

Microchip MPLAB XC8 Assembler V2.40 build 20220703182018 
                                                                                               Thu Apr 27 21:16:24 2023

Microchip MPLAB XC8 C Compiler v2.40 (Free license) build 20220703182018 Og1 
     1                           	processor	18F46K42
     2                           	fnconf	rparam,??,?,0
     3                           	pagewidth 120
     4                           	opt	flic
     5                           	psect	idataBANK0,global,class=CODE,delta=1,noexec
     6                           	psect	smallconst,global,reloc=2,class=SMALLCONST,delta=1,noexec
     7                           	psect	nvCOMRAM,global,class=COMRAM,space=1,delta=1,lowdata,noexec
     8                           	psect	nvBANK0,global,class=BANK0,space=1,delta=1,lowdata,noexec
     9                           	psect	cinit,global,reloc=2,class=CODE,delta=1
    10                           	psect	bssCOMRAM,global,class=COMRAM,space=1,delta=1,lowdata,noexec
    11                           	psect	bssBANK0,global,class=BANK0,space=1,delta=1,lowdata,noexec
    12                           	psect	dataBANK0,global,class=BANK0,space=1,delta=1,lowdata,noexec
    13                           	psect	cstackBANK1,global,class=BANK1,space=1,delta=1,lowdata,noexec
    14                           	psect	cstackBANK0,global,class=BANK0,space=1,delta=1,lowdata,noexec
    15                           	psect	cstackCOMRAM,global,class=COMRAM,space=1,delta=1,lowdata,noexec
    16                           	psect	text0,global,reloc=2,class=CODE,delta=1
    17                           	psect	text1,global,reloc=2,class=CODE,delta=1
    18                           	psect	text2,global,reloc=2,class=CODE,delta=1
    19                           	psect	text3,global,reloc=2,class=CODE,delta=1
    20                           	psect	text4,global,reloc=2,class=CODE,delta=1
    21                           	psect	text5,global,reloc=2,class=CODE,delta=1
    22                           	psect	text6,global,reloc=2,class=CODE,delta=1
    23                           	psect	text7,global,reloc=2,class=CODE,delta=1
    24                           	psect	text8,global,reloc=2,class=CODE,delta=1
    25                           	psect	text9,global,reloc=2,class=CODE,delta=1,inline
    26                           	psect	text10,global,reloc=2,class=CODE,delta=1
    27                           	psect	text11,global,reloc=2,class=CODE,delta=1
    28                           	psect	text12,global,reloc=2,class=CODE,delta=1
    29                           	psect	text13,global,reloc=2,class=CODE,delta=1,inline
    30                           	psect	text14,global,reloc=2,class=CODE,delta=1,inline
    31                           	psect	text15,global,reloc=2,class=CODE,delta=1
    32                           	psect	text16,global,reloc=2,class=CODE,delta=1
    33                           	psect	text17,global,reloc=2,class=CODE,delta=1
    34                           	psect	text18,global,reloc=2,class=CODE,delta=1
    35                           	psect	text19,global,reloc=2,class=CODE,delta=1
    36                           	psect	text20,global,reloc=2,class=CODE,delta=1
    37                           	psect	text21,global,reloc=2,class=CODE,delta=1
    38                           	psect	text22,global,reloc=2,class=CODE,delta=1
    39                           	psect	text23,global,reloc=2,class=CODE,delta=1
    40                           	psect	text24,global,reloc=2,class=CODE,delta=1
    41                           	psect	text25,global,reloc=2,class=CODE,delta=1
    42                           	psect	text26,global,reloc=2,class=CODE,delta=1
    43                           	psect	text27,global,reloc=2,class=CODE,delta=1
    44                           	psect	text28,global,reloc=2,class=CODE,delta=1
    45                           	psect	text29,global,reloc=2,class=CODE,delta=1
    46                           	psect	text30,global,reloc=2,class=CODE,delta=1
    47                           	psect	text31,global,reloc=2,class=CODE,delta=1
    48                           	psect	text32,global,reloc=2,class=CODE,delta=1
    49                           	psect	text33,global,reloc=2,class=CODE,delta=1
    50                           	psect	text34,global,reloc=2,class=CODE,delta=1,inline
    51                           	psect	text35,global,reloc=2,class=CODE,delta=1,inline
    52                           	psect	text36,global,reloc=2,class=CODE,delta=1,inline
    53                           	psect	text37,global,reloc=2,class=CODE,delta=1,inline
    54                           	psect	text38,global,reloc=2,class=CODE,delta=1,inline
    55                           	psect	text39,global,reloc=2,class=CODE,delta=1,inline
    56                           	psect	text40,global,reloc=2,class=CODE,delta=1,inline
    57                           	psect	text41,global,reloc=2,class=CODE,delta=1,inline
    58                           	psect	text42,global,reloc=2,class=CODE,delta=1,inline
    59                           	psect	text43,global,reloc=2,class=CODE,delta=1,inline
    60                           	psect	text44,global,reloc=2,class=CODE,delta=1,inline
    61                           	psect	text45,global,reloc=2,class=CODE,delta=1,inline
    62                           	psect	text46,global,reloc=2,class=CODE,delta=1,inline
    63                           	psect	text47,global,reloc=2,class=CODE,delta=1
    64                           	psect	text48,global,reloc=2,class=CODE,delta=1
    65                           	psect	text49,global,reloc=2,class=CODE,delta=1
    66                           	psect	text50,global,reloc=2,class=CODE,delta=1
    67                           	psect	text51,global,reloc=2,class=CODE,delta=1
    68                           	psect	text52,global,reloc=2,class=CODE,delta=1
    69                           	psect	text53,global,reloc=2,class=CODE,delta=1
    70                           	psect	text54,global,reloc=2,class=CODE,delta=1
    71                           	psect	text55,global,reloc=2,class=CODE,delta=1
    72                           	psect	text56,global,reloc=2,class=CODE,delta=1
    73                           	psect	text57,global,reloc=2,class=CODE,delta=1
    74                           	psect	text58,global,reloc=2,class=CODE,delta=1
    75                           	psect	text59,global,reloc=2,class=CODE,delta=1
    76                           	psect	text60,global,reloc=2,class=CODE,delta=1
    77                           	psect	text61,global,reloc=2,class=CODE,delta=1
    78                           	psect	text62,global,reloc=2,class=CODE,delta=1,inline
    79                           	psect	text63,global,reloc=2,class=CODE,delta=1,inline
    80                           	psect	text64,global,reloc=2,class=CODE,delta=1,inline
    81                           	psect	text65,global,reloc=2,class=CODE,delta=1,inline
    82                           	psect	text66,global,reloc=2,class=CODE,delta=1,inline
    83                           	psect	text67,global,reloc=2,class=CODE,delta=1,inline
    84                           	psect	text68,global,reloc=2,class=CODE,delta=1,inline
    85                           	psect	text69,global,reloc=2,class=CODE,delta=1
    86                           	psect	text70,global,reloc=2,class=CODE,delta=1,inline
    87                           	psect	text71,global,reloc=2,class=CODE,delta=1,inline
    88                           	psect	text72,global,reloc=2,class=CODE,delta=1,inline
    89                           	psect	text73,global,reloc=2,class=CODE,delta=1
    90                           	psect	text74,global,reloc=2,class=CODE,delta=1
    91                           	psect	text75,global,reloc=2,class=CODE,delta=1
    92                           	psect	text76,global,reloc=2,class=CODE,delta=1
    93                           	psect	text77,global,reloc=2,class=CODE,delta=1
    94                           	psect	text78,global,reloc=2,class=CODE,delta=1
    95                           	psect	text79,global,reloc=2,class=CODE,delta=1
    96                           	psect	text80,global,reloc=2,class=CODE,delta=1
    97                           	psect	text81,global,reloc=2,class=CODE,delta=1
    98                           	psect	text82,global,reloc=2,class=CODE,delta=1
    99                           	psect	text83,global,reloc=2,class=CODE,delta=1
   100                           	psect	text84,global,reloc=2,class=CODE,delta=1
   101                           	psect	text85,global,reloc=2,class=CODE,delta=1
   102                           	psect	text86,global,reloc=2,class=CODE,delta=1
   103                           	psect	text87,global,reloc=2,class=CODE,delta=1
   104                           	psect	text88,global,reloc=2,class=CODE,delta=1
   105                           	psect	text89,global,reloc=2,class=CODE,delta=1
   106                           	psect	text90,global,reloc=2,class=CODE,delta=1
   107                           	psect	text91,global,reloc=2,class=CODE,delta=1
   108                           	psect	text92,global,reloc=2,class=CODE,delta=1
   109                           	psect	intsave_regs,global,class=BIGRAM,space=1,delta=1,noexec
   110                           	psect	text93,global,reloc=2,class=CODE,delta=1
   111                           	psect	rparam,global,class=COMRAM,space=1,delta=1,noexec
   112                           	psect	idloc,global,abs,ovrld,class=IDLOC,space=5,delta=1,noexec
   113                           	psect	config,global,abs,ovrld,class=CONFIG,space=4,delta=1,noexec
   114   000000                     
   115                           ; Generated 06/04/2022 GMT
   116                           ; 
   117                           ; Copyright © 2022, Microchip Technology Inc. and its subsidiaries ("Microchip")
   118                           ; All rights reserved.
   119                           ; 
   120                           ; This software is developed by Microchip Technology Inc. and its subsidiaries ("Microch
      +                          ip").
   121                           ; 
   122                           ; Redistribution and use in source and binary forms, with or without modification, are
   123                           ; permitted provided that the following conditions are met:
   124                           ; 
   125                           ;     1. Redistributions of source code must retain the above copyright notice, this lis
      +                          t of
   126                           ;        conditions and the following disclaimer.
   127                           ; 
   128                           ;     2. Redistributions in binary form must reproduce the above copyright notice, this 
      +                          list
   129                           ;        of conditions and the following disclaimer in the documentation and/or other
   130                           ;        materials provided with the distribution. Publication is not required when
   131                           ;        this file is used in an embedded application.
   132                           ; 
   133                           ;     3. Microchip's name may not be used to endorse or promote products derived from th
      +                          is
   134                           ;        software without specific prior written permission.
   135                           ; 
   136                           ; THIS SOFTWARE IS PROVIDED BY MICROCHIP "AS IS" AND ANY EXPRESS OR IMPLIED WARRANTIES,
   137                           ; INCLUDING, BUT NOT LIMITED TO, THE IMPLIED WARRANTIES OF MERCHANTABILITY AND FITNESS F
      +                          OR
   138                           ; PURPOSE ARE DISCLAIMED.  IN NO EVENT SHALL MICROCHIP BE LIABLE FOR ANY DIRECT, INDIREC
      +                          T,
   139                           ; INCIDENTAL, SPECIAL, EXEMPLARY, OR CONSEQUENTIAL DAMAGES (INCLUDING BUT NOT LIMITED TO
   140                           ; PROCUREMENT OF SUBSTITUTE GOODS OR SERVICES; LOSS OF USE, DATA OR PROFITS; OR BUSINESS
   141                           ; INTERRUPTION) HOWSOEVER CAUSED AND ON ANY THEORY OF LIABILITY, WHETHER IN CONTRACT, ST
      +                          RICT
   142                           ; LIABILITY, OR TORT (INCLUDING NEGLIGENCE OR OTHERWISE) ARISING IN ANY WAY OUT OF THE U
      +                          SE OF
   143                           ; THIS SOFTWARE, EVEN IF ADVISED OF THE POSSIBILITY OF SUCH DAMAGE.
   144                           ; 
   145                           ; 
   146                           ; Code-generator required, PIC18F46K42 Definitions
   147                           ; 
   148                           ; SFR Addresses
   149   000000                     
   150                           	psect	idataBANK0
   151   003644                     __pidataBANK0:
   152                           	callstack 0
   153                           
   154                           ;initializer for I2CSIMPLE_example@F16297
   155   003644  00                 	db	0
   156   003645  00                 	db	0
   157   003646  A1                 	db	161
   158   003647  A2                 	db	162
   159   003648  A3                 	db	163
   160   003649  A4                 	db	164
   161   00364A  A5                 	db	165
   162   00364B  27                 	db	39
   163   00364C  A7                 	db	167
   164   00364D  A8                 	db	168
   165   00364E  A9                 	db	169
   166   00364F  AA                 	db	170
   167   003650  AB                 	db	171
   168   003651  AC                 	db	172
   169   003652  AD                 	db	173
   170   003653  AE                 	db	174
   171   003654  AF                 	db	175
   172                           
   173                           	psect	smallconst
   174   001000                     __psmallconst:
   175                           	callstack 0
   176   001000  00                 	db	0
   177   001001                     _i2c1_fsmStateTable:
   178                           	callstack 0
   179   001001  92                 	db	low _I2C1_DO_IDLE
   180   001002  36                 	db	high _I2C1_DO_IDLE
   181   001003  7A                 	db	low _I2C1_DO_SEND_ADR_READ
   182   001004  32                 	db	high _I2C1_DO_SEND_ADR_READ
   183   001005  7E                 	db	low _I2C1_DO_SEND_ADR_WRITE
   184   001006  35                 	db	high _I2C1_DO_SEND_ADR_WRITE
   185   001007  C8                 	db	low _I2C1_DO_TX
   186   001008  25                 	db	high _I2C1_DO_TX
   187   001009  A0                 	db	low _I2C1_DO_RX
   188   00100A  2A                 	db	high _I2C1_DO_RX
   189   00100B  E8                 	db	low _I2C1_DO_TX_EMPTY
   190   00100C  2C                 	db	high _I2C1_DO_TX_EMPTY
   191   00100D  FE                 	db	low _I2C1_DO_RX_EMPTY
   192   00100E  29                 	db	high _I2C1_DO_RX_EMPTY
   193   00100F  84                 	db	low _I2C1_DO_SEND_RESTART_READ
   194   001010  36                 	db	high _I2C1_DO_SEND_RESTART_READ
   195   001011  56                 	db	low _I2C1_DO_SEND_RESTART_WRITE
   196   001012  37                 	db	high _I2C1_DO_SEND_RESTART_WRITE
   197   001013  52                 	db	low _I2C1_DO_SEND_RESTART
   198   001014  37                 	db	high _I2C1_DO_SEND_RESTART
   199   001015  34                 	db	low _I2C1_DO_SEND_STOP
   200   001016  34                 	db	high _I2C1_DO_SEND_STOP
   201   001017  FE                 	db	low _I2C1_DO_RX_ACK
   202   001018  36                 	db	high _I2C1_DO_RX_ACK
   203   001019  06                 	db	low _I2C1_DO_TX_ACK
   204   00101A  37                 	db	high _I2C1_DO_TX_ACK
   205   00101B  76                 	db	low _I2C1_DO_RX_NACK_STOP
   206   00101C  36                 	db	high _I2C1_DO_RX_NACK_STOP
   207   00101D  F6                 	db	low _I2C1_DO_RX_NACK_RESTART
   208   00101E  36                 	db	high _I2C1_DO_RX_NACK_RESTART
   209   00101F  66                 	db	low _I2C1_DO_RESET
   210   001020  36                 	db	high _I2C1_DO_RESET
   211   001021  4E                 	db	low _I2C1_DO_ADDRESS_NACK
   212   001022  2E                 	db	high _I2C1_DO_ADDRESS_NACK
   213   001023  DE                 	db	low _I2C1_DO_BUS_COLLISION
   214   001024  2D                 	db	high _I2C1_DO_BUS_COLLISION
   215   001025  56                 	db	low _I2C1_DO_BUS_ERROR
   216   001026  36                 	db	high _I2C1_DO_BUS_ERROR
   217   001027                     __end_of_i2c1_fsmStateTable:
   218                           	callstack 0
   219   000000                     _TRISD	set	16325
   220   000000                     _TRISC	set	16324
   221   000000                     _TRISB	set	16323
   222   000000                     _LATC	set	16316
   223   000000                     _LATB	set	16315
   224   000000                     _OSCTUNE	set	14814
   225   000000                     _OSCFRQ	set	14815
   226   000000                     _I2C1TXB	set	15723
   227   000000                     _I2C1PIE	set	15738
   228   001027  2D                 	db	45
   229   001028  2D                 	db	45
   230   001029  2D                 	db	45
   231   00102A  2D                 	db	45
   232   00102B  2D                 	db	45
   233   00102C  2D                 	db	45
   234   00102D  2D                 	db	45
   235   00102E  2D                 	db	45
   236   00102F  2D                 	db	45
   237   001030  2D                 	db	45
   238   001031  2D                 	db	45
   239   001032  2D                 	db	45
   240   001033  2D                 	db	45
   241   001034  2D                 	db	45
   242   001035  2D                 	db	45
   243   001036  2D                 	db	45
   244   001037  2D                 	db	45
   245   001038  2D                 	db	45
   246   001039  2D                 	db	45
   247   00103A  2D                 	db	45
   248   00103B  2D                 	db	45
   249   00103C  2D                 	db	45
   250   00103D  2D                 	db	45
   251   00103E  2D                 	db	45
   252   00103F  2D                 	db	45
   253   001040  2D                 	db	45
   254   001041  2D                 	db	45
   255   001042  2D                 	db	45
   256   001043  2D                 	db	45
   257   001044  2D                 	db	45
   258   001045  2D                 	db	45
   259   001046  2D                 	db	45
   260   001047  2D                 	db	45
   261   001048  2D                 	db	45
   262   001049  2D                 	db	45
   263   00104A  2D                 	db	45
   264   00104B  2D                 	db	45
   265   00104C  2D                 	db	45
   266   00104D  2D                 	db	45
   267   00104E  2D                 	db	45
   268   00104F  2D                 	db	45
   269   001050  2D                 	db	45
   270   001051  2D                 	db	45
   271   001052  2D                 	db	45
   272   001053  2D                 	db	45
   273   001054  2D                 	db	45
   274   001055  2D                 	db	45
   275   001056  0A                 	db	10
   276   001057  0D                 	db	13
   277   001058  00                 	db	0
   278   001059                     STR_3:
   279   001059  0A                 	db	10
   280   00105A  44                 	db	68	;'D'
   281   00105B  61                 	db	97	;'a'
   282   00105C  74                 	db	116	;'t'
   283   00105D  61                 	db	97	;'a'
   284   00105E  20                 	db	32
   285   00105F  74                 	db	116	;'t'
   286   001060  6F                 	db	111	;'o'
   287   001061  20                 	db	32
   288   001062  62                 	db	98	;'b'
   289   001063  65                 	db	101	;'e'
   290   001064  20                 	db	32
   291   001065  77                 	db	119	;'w'
   292   001066  72                 	db	114	;'r'
   293   001067  69                 	db	105	;'i'
   294   001068  74                 	db	116	;'t'
   295   001069  74                 	db	116	;'t'
   296   00106A  65                 	db	101	;'e'
   297   00106B  6E                 	db	110	;'n'
   298   00106C  20                 	db	32
   299   00106D  74                 	db	116	;'t'
   300   00106E  6F                 	db	111	;'o'
   301   00106F  20                 	db	32
   302   001070  45                 	db	69	;'E'
   303   001071  45                 	db	69	;'E'
   304   001072  50                 	db	80	;'P'
   305   001073  52                 	db	82	;'R'
   306   001074  4F                 	db	79	;'O'
   307   001075  4D                 	db	77	;'M'
   308   001076  3A                 	db	58	;':'
   309   001077  0A                 	db	10
   310   001078  0A                 	db	10
   311   001079  0D                 	db	13
   312   00107A  00                 	db	0
   313   00107B  45                 	db	69	;'E'
   314   00107C  45                 	db	69	;'E'
   315   00107D  50                 	db	80	;'P'
   316   00107E  52                 	db	82	;'R'
   317   00107F  4F                 	db	79	;'O'
   318   001080  4D                 	db	77	;'M'
   319   001081  20                 	db	32
   320   001082  48                 	db	72	;'H'
   321   001083  69                 	db	105	;'i'
   322   001084  67                 	db	103	;'g'
   323   001085  68                 	db	104	;'h'
   324   001086  20                 	db	32
   325   001087  41                 	db	65	;'A'
   326   001088  64                 	db	100	;'d'
   327   001089  64                 	db	100	;'d'
   328   00108A  72                 	db	114	;'r'
   329   00108B  65                 	db	101	;'e'
   330   00108C  73                 	db	115	;'s'
   331   00108D  73                 	db	115	;'s'
   332   00108E  3A                 	db	58	;':'
   333   00108F  30                 	db	48	;'0'
   334   001090  78                 	db	120	;'x'
   335   001091  20                 	db	32
   336   001092  25                 	db	37
   337   001093  78                 	db	120	;'x'
   338   001094  0A                 	db	10
   339   001095  0D                 	db	13
   340   001096  00                 	db	0
   341   001097  45                 	db	69	;'E'
   342   001098  45                 	db	69	;'E'
   343   001099  50                 	db	80	;'P'
   344   00109A  52                 	db	82	;'R'
   345   00109B  4F                 	db	79	;'O'
   346   00109C  4D                 	db	77	;'M'
   347   00109D  20                 	db	32
   348   00109E  4C                 	db	76	;'L'
   349   00109F  6F                 	db	111	;'o'
   350   0010A0  77                 	db	119	;'w'
   351   0010A1  20                 	db	32
   352   0010A2  41                 	db	65	;'A'
   353   0010A3  64                 	db	100	;'d'
   354   0010A4  64                 	db	100	;'d'
   355   0010A5  72                 	db	114	;'r'
   356   0010A6  65                 	db	101	;'e'
   357   0010A7  73                 	db	115	;'s'
   358   0010A8  73                 	db	115	;'s'
   359   0010A9  3A                 	db	58	;':'
   360   0010AA  30                 	db	48	;'0'
   361   0010AB  78                 	db	120	;'x'
   362   0010AC  20                 	db	32
   363   0010AD  25                 	db	37
   364   0010AE  78                 	db	120	;'x'
   365   0010AF  0A                 	db	10
   366   0010B0  0D                 	db	13
   367   0010B1  00                 	db	0
   368   0010B2  0A                 	db	10
   369   0010B3  0D                 	db	13
   370   0010B4  45                 	db	69	;'E'
   371   0010B5  45                 	db	69	;'E'
   372   0010B6  50                 	db	80	;'P'
   373   0010B7  52                 	db	82	;'R'
   374   0010B8  4F                 	db	79	;'O'
   375   0010B9  4D                 	db	77	;'M'
   376   0010BA  20                 	db	32
   377   0010BB  52                 	db	82	;'R'
   378   0010BC  65                 	db	101	;'e'
   379   0010BD  61                 	db	97	;'a'
   380   0010BE  64                 	db	100	;'d'
   381   0010BF  20                 	db	32
   382   0010C0  44                 	db	68	;'D'
   383   0010C1  61                 	db	97	;'a'
   384   0010C2  74                 	db	116	;'t'
   385   0010C3  61                 	db	97	;'a'
   386   0010C4  3A                 	db	58	;':'
   387   0010C5  0A                 	db	10
   388   0010C6  0A                 	db	10
   389   0010C7  0D                 	db	13
   390   0010C8  00                 	db	0
   391   0010C9                     STR_4:
   392   0010C9  30                 	db	48	;'0'
   393   0010CA  78                 	db	120	;'x'
   394   0010CB  25                 	db	37
   395   0010CC  78                 	db	120	;'x'
   396   0010CD  20                 	db	32
   397   0010CE  20                 	db	32
   398   0010CF  00                 	db	0
   399   0010D0  00                 	db	0	; dummy byte at the end
   400   000000                     
   401                           	psect	nvCOMRAM
   402   00005A                     __pnvCOMRAM:
   403                           	callstack 0
   404   00005A                     _UART1_OverrunErrorHandler:
   405                           	callstack 0
   406   00005A                     	ds	2
   407   00005C                     _UART1_FramingErrorHandler:
   408                           	callstack 0
   409   00005C                     	ds	2
   410                           
   411                           	psect	nvBANK0
   412   0000B8                     __pnvBANK0:
   413                           	callstack 0
   414   0000B8                     _UART1_ErrorHandler:
   415                           	callstack 0
   416   0000B8                     	ds	2
   417   000000                     _I2C1PIEbits	set	15738
   418   000000                     _I2C1PIRbits	set	15737
   419   000000                     _I2C1ERRbits	set	15734
   420   000000                     _I2C1CON1bits	set	15732
   421   000000                     _I2C1CON0bits	set	15731
   422   000000                     _U1ERRIRbits	set	15865
   423   000000                     _U1CON0bits	set	15858
   424   000000                     _PIE2bits	set	14738
   425   000000                     _PIE3bits	set	14739
   426   000000                     _PIR3bits	set	14755
   427   000000                     _U1P1L	set	15852
   428   000000                     _LATA	set	16314
   429   000000                     _LATD	set	16317
   430   000000                     _LATE	set	16318
   431   000000                     _U1ERRIE	set	15866
   432   000000                     _U1ERRIR	set	15865
   433   000000                     _U1UIR	set	15864
   434   000000                     _U1FIFO	set	15863
   435   000000                     _U1BRGH	set	15862
   436   000000                     _U1BRGL	set	15861
   437   000000                     _U1CON2	set	15860
   438   000000                     _U1CON1	set	15859
   439   000000                     _U1CON0	set	15858
   440   000000                     _U1P3H	set	15857
   441   000000                     _U1P3L	set	15856
   442   000000                     _U1P2H	set	15855
   443   000000                     _U1P2L	set	15854
   444   000000                     _U1P1H	set	15853
   445   000000                     _PMD0	set	14784
   446   000000                     _OSCCON1	set	14809
   447   000000                     _RB1I2C	set	14938
   448   000000                     _I2C1CNT	set	15724
   449   000000                     _I2C1CON0	set	15731
   450   000000                     _U1RXB	set	15848
   451   000000                     _U1TXB	set	15850
   452   000000                     _I2C1STAT1bits	set	15736
   453   000000                     _I2C1ERR	set	15734
   454   000000                     _I2C1PIR	set	15737
   455   000000                     _I2C1CLK	set	15739
   456   000000                     _I2C1CON2	set	15733
   457   000000                     _I2C1CON1	set	15732
   458   000000                     _ANSELC	set	14944
   459   000000                     _ANSELD	set	14960
   460   000000                     _I2C1RXB	set	15722
   461   000000                     _RB2I2C	set	14939
   462   000000                     _PIR2bits	set	14754
   463   000000                     _OSCCON3	set	14811
   464   000000                     _OSCEN	set	14813
   465   000000                     _RB1PPS	set	14857
   466   000000                     _ANSELA	set	14912
   467   000000                     _ANSELB	set	14928
   468   000000                     _PMD7	set	14791
   469   000000                     _PMD6	set	14790
   470   000000                     _PMD5	set	14789
   471   000000                     _PMD4	set	14788
   472   000000                     _PMD3	set	14787
   473   000000                     _PMD2	set	14786
   474   000000                     _PMD1	set	14785
   475   000000                     _TRISA	set	16322
   476   000000                     _TRISE	set	16326
   477   000000                     _INLVLD	set	14964
   478   000000                     _SLRCOND	set	14963
   479   000000                     _ODCOND	set	14962
   480   000000                     _RD0I2C	set	14970
   481   000000                     _WPUD	set	14961
   482   000000                     _ANSELE	set	14976
   483   000000                     _INLVLC	set	14948
   484   000000                     _SLRCONC	set	14947
   485   000000                     _ODCONC	set	14946
   486   000000                     _RC3I2C	set	14954
   487   000000                     _WPUC	set	14945
   488   000000                     _INLVLB	set	14932
   489   000000                     _SLRCONB	set	14931
   490   000000                     _ODCONB	set	14930
   491   000000                     _WPUB	set	14929
   492   000000                     _I2C1SCLPPS	set	15073
   493   000000                     _I2C1SDAPPS	set	15074
   494   000000                     _INLVLE	set	14980
   495   000000                     _SLRCONE	set	14979
   496   000000                     _ODCONE	set	14978
   497   000000                     _WPUE	set	14977
   498   000000                     _INLVLA	set	14916
   499   000000                     _SLRCONA	set	14915
   500   000000                     _ODCONA	set	14914
   501   000000                     _WPUA	set	14913
   502   000000                     _RC4I2C	set	14955
   503   000000                     _RD1I2C	set	14971
   504   000000                     _U1RXPPS	set	15077
   505   000000                     _RC6PPS	set	14870
   506   000000                     _RB2PPS	set	14858
   507                           
   508                           ; #config settings
   509                           
   510                           	psect	cinit
   511   003216                     __pcinit:
   512                           	callstack 0
   513   003216                     start_initialization:
   514                           	callstack 0
   515   003216                     __initialization:
   516                           	callstack 0
   517                           
   518                           ; Initialize objects allocated to BANK0 (17 bytes)
   519                           ; load TBLPTR registers with __pidataBANK0
   520   003216  0E44               	movlw	low __pidataBANK0
   521   003218  6EF6               	movwf	tblptrl,c
   522   00321A  0E36               	movlw	high __pidataBANK0
   523   00321C  6EF7               	movwf	tblptrh,c
   524   00321E  0E00               	movlw	low (__pidataBANK0 shr (0+16))
   525   003220  6EF8               	movwf	tblptru,c
   526   003222  EE00  F0A7         	lfsr	0,__pdataBANK0
   527   003226  EE10 F011          	lfsr	1,17
   528   00322A                     copy_data0:
   529   00322A  0009               	tblrd		*+
   530   00322C  006F FFD7 FFEE     	movff	tablat,postinc0
   531   003232  50E5               	movf	postdec1,w,c
   532   003234  50E1               	movf	fsr1l,w,c
   533   003236  E1F9               	bnz	copy_data0
   534                           
   535                           ; Clear objects allocated to BANK0 (36 bytes)
   536   003238  EE00  F060         	lfsr	0,__pbssBANK0
   537   00323C  0E24               	movlw	36
   538   00323E                     clear_0:
   539   00323E  6AEE               	clrf	postinc0,c
   540   003240  06E8               	decf	wreg,f,c
   541   003242  E1FD               	bnz	clear_0
   542                           
   543                           ; Clear objects allocated to COMRAM (1 bytes)
   544   003244  6A5E               	clrf	__pbssCOMRAM& (0+255),c
   545   003246                     end_of_initialization:
   546                           	callstack 0
   547   003246                     __end_of__initialization:
   548                           	callstack 0
   549   003246  0100               	movlb	0
   550   003248  EF57  F011         	goto	_main	;jump to C main() function
   551                           
   552                           	psect	bssCOMRAM
   553   00005E                     __pbssCOMRAM:
   554                           	callstack 0
   555   00005E                     _uart1RxLastError:
   556                           	callstack 0
   557   00005E                     	ds	1
   558                           
   559                           	psect	bssBANK0
   560   000060                     __pbssBANK0:
   561                           	callstack 0
   562   000060                     _I2C1_Status:
   563                           	callstack 0
   564   000060                     	ds	36
   565                           
   566                           	psect	dataBANK0
   567   0000A7                     __pdataBANK0:
   568                           	callstack 0
   569   0000A7                     I2CSIMPLE_example@F16297:
   570                           	callstack 0
   571   0000A7                     	ds	17
   572                           
   573                           	psect	cstackBANK1
   574   000100                     __pcstackBANK1:
   575                           	callstack 0
   576   000100                     main@datosRecibidos:
   577                           	callstack 0
   578                           
   579                           ; 255 bytes @ 0x0
   580   000100                     	ds	255
   581                           
   582                           	psect	cstackBANK0
   583   000084                     __pcstackBANK0:
   584                           	callstack 0
   585   000084                     main@est:
   586                           	callstack 0
   587                           
   588                           ; 35 bytes @ 0x0
   589   000084                     	ds	35
   590                           
   591                           	psect	cstackCOMRAM
   592   000001                     __pcstackCOMRAM:
   593                           	callstack 0
   594   000001                     ?_tam_cola:
   595                           	callstack 0
   596   000001                     ?_cola_llena:
   597                           	callstack 0
   598   000001                     ?_cola_vacia:
   599                           	callstack 0
   600   000001                     UART1_Write@txData:
   601                           	callstack 0
   602   000001                     I2C1_Open@address:
   603                           	callstack 0
   604   000001                     I2C1_Close@returnValue:
   605                           	callstack 0
   606   000001                     I2C1_MasterSendTxData@data:
   607                           	callstack 0
   608   000001                     I2C1_MasterSetCounter@counter:
   609                           	callstack 0
   610   000001                     UART1_SetFramingErrorHandler@interruptHandler:
   611                           	callstack 0
   612   000001                     UART1_SetOverrunErrorHandler@interruptHandler:
   613                           	callstack 0
   614   000001                     UART1_SetErrorHandler@interruptHandler:
   615                           	callstack 0
   616   000001                     I2C1_SetBuffer@buffer:
   617                           	callstack 0
   618   000001                     I2C1_SetCallback@cb:
   619                           	callstack 0
   620   000001                     Iniciarlizar@est:
   621                           	callstack 0
   622   000001                     inicie_cola@c:
   623                           	callstack 0
   624   000001                     tam_cola@c:
   625                           	callstack 0
   626   000001                     cola_llena@c:
   627                           	callstack 0
   628   000001                     cola_vacia@c:
   629                           	callstack 0
   630                           
   631                           ; 2 bytes @ 0x0
   632   000001                     	ds	1
   633   000002                     I2C1_Open@returnValue:
   634                           	callstack 0
   635                           
   636                           ; 1 bytes @ 0x1
   637   000002                     	ds	1
   638   000003                     ??_Iniciarlizar:
   639   000003                     I2C1_SetBuffer@bufferSize:
   640                           	callstack 0
   641   000003                     I2C1_SetCallback@ptr:
   642                           	callstack 0
   643                           
   644                           ; 2 bytes @ 0x2
   645   000003                     	ds	2
   646   000005                     I2C1_SetCallback@idx:
   647                           	callstack 0
   648   000005                     Iniciarlizar@i:
   649                           	callstack 0
   650   000005                     cola_add@c:
   651                           	callstack 0
   652   000005                     cola_get@c:
   653                           	callstack 0
   654                           
   655                           ; 2 bytes @ 0x4
   656   000005                     	ds	1
   657   000006                     I2C1_SetDataCompleteCallback@cb:
   658                           	callstack 0
   659   000006                     I2C1_SetAddressNackCallback@cb:
   660                           	callstack 0
   661                           
   662                           ; 2 bytes @ 0x5
   663   000006                     	ds	1
   664   000007                     ??_cola_get:
   665   000007                     cola_add@dato:
   666                           	callstack 0
   667   000007                     Iniciarlizar@j:
   668                           	callstack 0
   669                           
   670                           ; 2 bytes @ 0x6
   671   000007                     	ds	1
   672   000008                     ??_cola_add:
   673   000008                     I2C1_SetDataCompleteCallback@ptr:
   674                           	callstack 0
   675   000008                     I2C1_SetAddressNackCallback@ptr:
   676                           	callstack 0
   677                           
   678                           ; 2 bytes @ 0x7
   679   000008                     	ds	1
   680   000009                     cola_get@temp:
   681                           	callstack 0
   682                           
   683                           ; 1 bytes @ 0x8
   684   000009                     	ds	1
   685   00000A                     wr1RegCompleteHandler@p:
   686                           	callstack 0
   687   00000A                     rd1RegCompleteHandler@p:
   688                           	callstack 0
   689   00000A                     rd2RegCompleteHandler@p:
   690                           	callstack 0
   691   00000A                     wr2RegCompleteHandler@p:
   692                           	callstack 0
   693   00000A                     rdBlkRegCompleteHandler@p:
   694                           	callstack 0
   695   00000A                     rd1RegCompleteHandler@i2c1_master_example$F145@ptr:
   696                           	callstack 0
   697   00000A                     rd2RegCompleteHandler@i2c1_master_example$F156@ptr:
   698                           	callstack 0
   699   00000A                     wr1RegCompleteHandler@i2c1_master_example$F162@ptr:
   700                           	callstack 0
   701   00000A                     wr2RegCompleteHandler@i2c1_master_example$F168@ptr:
   702                           	callstack 0
   703   00000A                     rdBlkRegCompleteHandler@i2c1_master_example$F179@ptr:
   704                           	callstack 0
   705   00000A                     I2C1_CallbackReturnReset@funPtr:
   706                           	callstack 0
   707   00000A                     lectura@est:
   708                           	callstack 0
   709                           
   710                           ; 2 bytes @ 0x9
   711   00000A                     	ds	2
   712   00000C                     ??_I2C1_DO_TX:
   713   00000C                     ??_I2C1_DO_TX_EMPTY:
   714   00000C                     ??_I2C1_DO_RX_EMPTY:
   715   00000C                     ??_I2C1_DO_ADDRESS_NACK:
   716   00000C                     ??_I2C1_DO_BUS_COLLISION:
   717   00000C                     ??_lectura:
   718   00000C                     
   719                           ; 1 bytes @ 0xB
   720   00000C                     	ds	2
   721   00000E                     ??_I2C1_DO_RX:
   722   00000E                     _I2C1_DO_TX$1176:
   723                           	callstack 0
   724                           
   725                           ; 2 bytes @ 0xD
   726   00000E                     	ds	2
   727   000010                     I2C1_DO_TX@dataTx:
   728                           	callstack 0
   729   000010                     I2C1_DO_RX@retFsmState:
   730                           	callstack 0
   731                           
   732                           ; 1 bytes @ 0xF
   733   000010                     	ds	1
   734   000011                     I2C1_DO_TX@retFsmState:
   735                           	callstack 0
   736   000011                     lectura@lectura:
   737                           	callstack 0
   738                           
   739                           ; 1 bytes @ 0x10
   740   000011                     	ds	1
   741   000012                     ??_I2C1_MasterFsm:
   742                           
   743                           ; 1 bytes @ 0x11
   744   000012                     	ds	2
   745   000014                     I2C1_MasterOperation@read:
   746                           	callstack 0
   747                           
   748                           ; 1 bytes @ 0x13
   749   000014                     	ds	1
   750   000015                     I2C1_MasterOperation@returnValue:
   751                           	callstack 0
   752                           
   753                           ; 1 bytes @ 0x14
   754   000015                     	ds	1
   755   000016                     i2c_writeNBytes@data:
   756                           	callstack 0
   757   000016                     i2c_readNBytes@data:
   758                           	callstack 0
   759                           
   760                           ; 2 bytes @ 0x15
   761   000016                     	ds	2
   762   000018                     i2c_writeNBytes@len:
   763                           	callstack 0
   764   000018                     i2c_readNBytes@len:
   765                           	callstack 0
   766                           
   767                           ; 2 bytes @ 0x17
   768   000018                     	ds	2
   769   00001A                     i2c_writeNBytes@address:
   770                           	callstack 0
   771   00001A                     i2c_readNBytes@address:
   772                           	callstack 0
   773                           
   774                           ; 1 bytes @ 0x19
   775   00001A                     	ds	1
   776   00001B                     ??_main:
   777                           
   778                           ; 1 bytes @ 0x1A
   779   00001B                     	ds	4
   780   00001F                     main@i:
   781                           	callstack 0
   782                           
   783                           ; 2 bytes @ 0x1E
   784   00001F                     	ds	2
   785   000021                     main@guardar:
   786                           	callstack 0
   787                           
   788                           ; 1 bytes @ 0x20
   789   000021                     	ds	1
   790   000022                     main@datosEnvio:
   791                           	callstack 0
   792                           
   793                           ; 18 bytes @ 0x21
   794   000022                     	ds	18
   795   000034                     main@i_1494:
   796                           	callstack 0
   797                           
   798                           ; 2 bytes @ 0x33
   799   000034                     	ds	2
   800   000036                     main@cola:
   801                           	callstack 0
   802                           
   803                           ; 36 bytes @ 0x35
   804   000036                     	ds	36
   805                           
   806 ;;
   807 ;;Main: autosize = 0, tempsize = 4, incstack = 0, save=0
   808 ;;
   809 ;; *************** function _main *****************
   810 ;; Defined at:
   811 ;;		line 11 in file "main.c"
   812 ;; Parameters:    Size  Location     Type
   813 ;;		None
   814 ;; Auto vars:     Size  Location     Type
   815 ;;  i               2   51[COMRAM] int 
   816 ;;  i               2   30[COMRAM] int 
   817 ;;  datosRecibid  255    0[BANK1 ] unsigned char [255]
   818 ;;  cola           36   53[COMRAM] struct eCola
   819 ;;  est            35    0[BANK0 ] struct variable
   820 ;;  datosEnvio     18   33[COMRAM] unsigned char [18]
   821 ;;  guardar         1   32[COMRAM] unsigned char 
   822 ;; Return value:  Size  Location     Type
   823 ;;                  1    wreg      void 
   824 ;; Registers used:
   825 ;;		wreg, fsr1l, fsr1h, fsr2l, fsr2h, status,2, status,0, pcl, pclath, pclatu, tosl, tblptrl, tblptrh, tblptru, prodl, p
      +rodh, cstack
   826 ;; Tracked objects:
   827 ;;		On entry : 0/0
   828 ;;		On exit  : 0/0
   829 ;;		Unchanged: 0/0
   830 ;; Data sizes:     COMRAM   BANK0   BANK1   BANK2   BANK3   BANK4   BANK5   BANK6   BANK7   BANK8   BANK9  BANK10  BANK1
      +1  BANK12  BANK13  BANK14  BANK15
   831 ;;      Params:         0       0       0       0       0       0       0       0       0       0       0       0       
      +0       0       0       0       0
   832 ;;      Locals:        59      35     255       0       0       0       0       0       0       0       0       0       
      +0       0       0       0       0
   833 ;;      Temps:          4       0       0       0       0       0       0       0       0       0       0       0       
      +0       0       0       0       0
   834 ;;      Totals:        63      35     255       0       0       0       0       0       0       0       0       0       
      +0       0       0       0       0
   835 ;;Total ram usage:      353 bytes
   836 ;; Hardware stack levels required when called: 12
   837 ;; This function calls:
   838 ;;		_Iniciarlizar
   839 ;;		_SYSTEM_Initialize
   840 ;;		_UART1_Read
   841 ;;		_UART1_Write
   842 ;;		_UART1_is_rx_ready
   843 ;;		_cola_add
   844 ;;		_cola_get
   845 ;;		_i2c_readNBytes
   846 ;;		_i2c_writeNBytes
   847 ;;		_inicie_cola
   848 ;;		_lectura
   849 ;;		_tam_cola
   850 ;; This function is called by:
   851 ;;		Startup code after reset
   852 ;; This function uses a non-reentrant model
   853 ;;
   854                           
   855                           	psect	text0
   856   0022AE                     __ptext0:
   857                           	callstack 0
   858   0022AE                     _main:
   859                           	callstack 19
   860   0022AE                     
   861                           ;main.c: 13:     variable est;;main.c: 14:     eCola cola;;main.c: 15:     uint8_t datos
      +                          Envio[18];;main.c: 16:     uint8_t datosRecibidos[255];;main.c: 17:     char guardar;;ma
      +                          in.c: 21:     SYSTEM_Initialize();
   862   0022AE  EC17  F01B         	call	_SYSTEM_Initialize	;wreg free
   863   0022B2                     
   864                           ;main.c: 23:     Iniciarlizar(&est);
   865   0022B2  0E84               	movlw	low main@est
   866   0022B4  6E01               	movwf	Iniciarlizar@est^0,c
   867   0022B6  0E00               	movlw	high main@est
   868   0022B8  6E02               	movwf	(Iniciarlizar@est+1)^0,c
   869   0022BA  EC75  F013         	call	_Iniciarlizar	;wreg free
   870   0022BE                     
   871                           ;main.c: 24:     inicie_cola(&cola);
   872   0022BE  0E36               	movlw	low main@cola
   873   0022C0  6E01               	movwf	inicie_cola@c^0,c
   874   0022C2  0E00               	movlw	high main@cola
   875   0022C4  6E02               	movwf	(inicie_cola@c+1)^0,c
   876   0022C6  ECEC  F018         	call	_inicie_cola	;wreg free
   877   0022CA                     l4712:
   878                           
   879                           ;main.c: 44:         if(UART1_is_rx_ready()){
   880   0022CA  EC0C  F01B         	call	_UART1_is_rx_ready	;wreg free
   881   0022CE  0900               	iorlw	0
   882   0022D0  B4D8               	btfsc	status,2,c
   883   0022D2  EF6D  F011         	goto	u3041
   884   0022D6  EF6F  F011         	goto	u3040
   885   0022DA                     u3041:
   886   0022DA  EF7A  F011         	goto	l4718
   887   0022DE                     u3040:
   888   0022DE                     
   889                           ;main.c: 45:             guardar=UART1_Read();
   890   0022DE  EC9F  F015         	call	_UART1_Read	;wreg free
   891   0022E2  6E21               	movwf	main@guardar^0,c
   892   0022E4                     
   893                           ;main.c: 47:             cola_add(&cola,guardar);
   894   0022E4  0E36               	movlw	low main@cola
   895   0022E6  6E05               	movwf	cola_add@c^0,c
   896   0022E8  0E00               	movlw	high main@cola
   897   0022EA  6E06               	movwf	(cola_add@c+1)^0,c
   898   0022EC  C021  F007         	movff	main@guardar,cola_add@dato
   899   0022F0  EC54  F014         	call	_cola_add	;wreg free
   900   0022F4                     l4718:
   901                           
   902                           ;main.c: 50:         if(tam_cola(&cola)>=1){
   903   0022F4  0E36               	movlw	low main@cola
   904   0022F6  6E01               	movwf	tam_cola@c^0,c
   905   0022F8  0E00               	movlw	high main@cola
   906   0022FA  6E02               	movwf	(tam_cola@c+1)^0,c
   907   0022FC  EC81  F01A         	call	_tam_cola	;wreg free
   908   002300  BE02               	btfsc	(?_tam_cola+1)^0,7,c
   909   002302  EF8B  F011         	goto	u3051
   910   002306  5002               	movf	(?_tam_cola+1)^0,w,c
   911   002308  E108               	bnz	u3050
   912   00230A  0401               	decf	?_tam_cola^0,w,c
   913   00230C  A0D8               	btfss	status,0,c
   914   00230E  EF8B  F011         	goto	u3051
   915   002312  EF8D  F011         	goto	u3050
   916   002316                     u3051:
   917   002316  EF99  F011         	goto	l4722
   918   00231A                     u3050:
   919   00231A                     
   920                           ;main.c: 51:             lectura(cola_get(&cola),&est);
   921   00231A  0E84               	movlw	low main@est
   922   00231C  6E0A               	movwf	lectura@est^0,c
   923   00231E  0E00               	movlw	high main@est
   924   002320  6E0B               	movwf	(lectura@est+1)^0,c
   925   002322  0E36               	movlw	low main@cola
   926   002324  6E05               	movwf	cola_get@c^0,c
   927   002326  0E00               	movlw	high main@cola
   928   002328  6E06               	movwf	(cola_get@c+1)^0,c
   929   00232A  ECF8  F013         	call	_cola_get	;wreg free
   930   00232E  EC69  F008         	call	_lectura
   931   002332                     l4722:
   932                           
   933                           ;main.c: 54:         if(est.instruccion[0]==1){
   934   002332  0100               	movlb	0	; () banked
   935   002334  05A3               	decf	(main@est+31)& (0+255),w,b
   936   002336  A4D8               	btfss	status,2,c
   937   002338  EFA0  F011         	goto	u3061
   938   00233C  EFA2  F011         	goto	u3060
   939   002340                     u3061:
   940   002340  EFDC  F011         	goto	l4746
   941   002344                     u3060:
   942   002344                     
   943                           ; BSR set to: 0
   944                           ;main.c: 55:            UART1_Write('R');
   945   002344  0E52               	movlw	82
   946   002346  EC8E  F01A         	call	_UART1_Write
   947                           
   948                           ;main.c: 56:            UART1_Write('B');
   949   00234A  0E42               	movlw	66
   950   00234C  EC8E  F01A         	call	_UART1_Write
   951   002350                     
   952                           ;main.c: 57:            datosEnvio[0]=(est.add[0]-48)*16;
   953   002350  0100               	movlb	0	; () banked
   954   002352  3986               	swapf	(main@est+2)& (0+255),w,b
   955   002354  0BF0               	andlw	240
   956   002356  6E22               	movwf	main@datosEnvio^0,c
   957   002358                     
   958                           ; BSR set to: 0
   959                           ;main.c: 58:            datosEnvio[0]=(est.add[1]-48)+datosEnvio[0];
   960   002358  5187               	movf	(main@est+3)& (0+255),w,b
   961   00235A  2422               	addwf	main@datosEnvio^0,w,c
   962   00235C  0FD0               	addlw	208
   963   00235E  6E22               	movwf	main@datosEnvio^0,c
   964   002360                     
   965                           ; BSR set to: 0
   966                           ;main.c: 59:            datosEnvio[1]=(est.add[2]-48)*16;
   967   002360  3988               	swapf	(main@est+4)& (0+255),w,b
   968   002362  0BF0               	andlw	240
   969   002364  6E23               	movwf	(main@datosEnvio+1)^0,c
   970   002366                     
   971                           ; BSR set to: 0
   972                           ;main.c: 60:            datosEnvio[1]=(est.add[3]-48)+datosEnvio[1];
   973   002366  5189               	movf	(main@est+5)& (0+255),w,b
   974   002368  2423               	addwf	(main@datosEnvio+1)^0,w,c
   975   00236A  0FD0               	addlw	208
   976   00236C  6E23               	movwf	(main@datosEnvio+1)^0,c
   977   00236E                     
   978                           ; BSR set to: 0
   979                           ;main.c: 62:            UART1_Write(datosEnvio[0]);
   980   00236E  5022               	movf	main@datosEnvio^0,w,c
   981   002370  EC8E  F01A         	call	_UART1_Write
   982   002374                     
   983                           ;main.c: 63:            UART1_Write(datosEnvio[1]);
   984   002374  5023               	movf	(main@datosEnvio+1)^0,w,c
   985   002376  EC8E  F01A         	call	_UART1_Write
   986   00237A                     
   987                           ;main.c: 66:            i2c_writeNBytes(0x50,datosEnvio,2);
   988   00237A  0E22               	movlw	low main@datosEnvio
   989   00237C  6E16               	movwf	i2c_writeNBytes@data^0,c
   990   00237E  0E00               	movlw	high main@datosEnvio
   991   002380  6E17               	movwf	(i2c_writeNBytes@data+1)^0,c
   992   002382  0E00               	movlw	0
   993   002384  6E19               	movwf	(i2c_writeNBytes@len+1)^0,c
   994   002386  0E02               	movlw	2
   995   002388  6E18               	movwf	i2c_writeNBytes@len^0,c
   996   00238A  0E50               	movlw	80
   997   00238C  ECBD  F017         	call	_i2c_writeNBytes
   998   002390                     
   999                           ;main.c: 67:            i2c_readNBytes(0x50,datosRecibidos,1);
  1000   002390  0E00               	movlw	low main@datosRecibidos
  1001   002392  6E16               	movwf	i2c_readNBytes@data^0,c
  1002   002394  0E01               	movlw	high main@datosRecibidos
  1003   002396  6E17               	movwf	(i2c_readNBytes@data+1)^0,c
  1004   002398  0E00               	movlw	0
  1005   00239A  6E19               	movwf	(i2c_readNBytes@len+1)^0,c
  1006   00239C  0E01               	movlw	1
  1007   00239E  6E18               	movwf	i2c_readNBytes@len^0,c
  1008   0023A0  0E50               	movlw	80
  1009   0023A2  EC88  F018         	call	_i2c_readNBytes
  1010   0023A6                     
  1011                           ;main.c: 69:            UART1_Write(datosRecibidos[0]);
  1012   0023A6  0101               	movlb	1	; () banked
  1013   0023A8  5100               	movf	main@datosRecibidos& (0+255),w,b
  1014   0023AA  EC8E  F01A         	call	_UART1_Write
  1015   0023AE                     
  1016                           ;main.c: 71:            est.instruccion[0]=0;
  1017   0023AE  0E00               	movlw	0
  1018   0023B0  0100               	movlb	0	; () banked
  1019   0023B2  6FA3               	movwf	(main@est+31)& (0+255),b
  1020                           
  1021                           ;main.c: 72:         }
  1022   0023B4  EF65  F011         	goto	l4712
  1023   0023B8                     l4746:
  1024                           
  1025                           ; BSR set to: 0
  1026   0023B8  05A4               	decf	(main@est+32)& (0+255),w,b
  1027   0023BA  A4D8               	btfss	status,2,c
  1028   0023BC  EFE2  F011         	goto	u3071
  1029   0023C0  EFE4  F011         	goto	u3070
  1030   0023C4                     u3071:
  1031   0023C4  EF36  F012         	goto	l4776
  1032   0023C8                     u3070:
  1033   0023C8                     
  1034                           ; BSR set to: 0
  1035                           ;main.c: 75:             UART1_Write('R');
  1036   0023C8  0E52               	movlw	82
  1037   0023CA  EC8E  F01A         	call	_UART1_Write
  1038                           
  1039                           ;main.c: 76:             UART1_Write('S');
  1040   0023CE  0E53               	movlw	83
  1041   0023D0  EC8E  F01A         	call	_UART1_Write
  1042   0023D4                     
  1043                           ;main.c: 77:             datosEnvio[0]=(est.add[0]-48)*16;
  1044   0023D4  0100               	movlb	0	; () banked
  1045   0023D6  3986               	swapf	(main@est+2)& (0+255),w,b
  1046   0023D8  0BF0               	andlw	240
  1047   0023DA  6E22               	movwf	main@datosEnvio^0,c
  1048   0023DC                     
  1049                           ; BSR set to: 0
  1050                           ;main.c: 78:             datosEnvio[0]=(est.add[1]-48)+datosEnvio[0];
  1051   0023DC  5187               	movf	(main@est+3)& (0+255),w,b
  1052   0023DE  2422               	addwf	main@datosEnvio^0,w,c
  1053   0023E0  0FD0               	addlw	208
  1054   0023E2  6E22               	movwf	main@datosEnvio^0,c
  1055   0023E4                     
  1056                           ; BSR set to: 0
  1057                           ;main.c: 79:             datosEnvio[1]=(est.add[2]-48)*16;
  1058   0023E4  3988               	swapf	(main@est+4)& (0+255),w,b
  1059   0023E6  0BF0               	andlw	240
  1060   0023E8  6E23               	movwf	(main@datosEnvio+1)^0,c
  1061   0023EA                     
  1062                           ; BSR set to: 0
  1063                           ;main.c: 80:             datosEnvio[1]=(est.add[3]-48)+datosEnvio[1];
  1064   0023EA  5189               	movf	(main@est+5)& (0+255),w,b
  1065   0023EC  2423               	addwf	(main@datosEnvio+1)^0,w,c
  1066   0023EE  0FD0               	addlw	208
  1067   0023F0  6E23               	movwf	(main@datosEnvio+1)^0,c
  1068   0023F2                     
  1069                           ; BSR set to: 0
  1070                           ;main.c: 82:             UART1_Write(datosEnvio[0]);
  1071   0023F2  5022               	movf	main@datosEnvio^0,w,c
  1072   0023F4  EC8E  F01A         	call	_UART1_Write
  1073   0023F8                     
  1074                           ;main.c: 83:             UART1_Write(datosEnvio[1]);
  1075   0023F8  5023               	movf	(main@datosEnvio+1)^0,w,c
  1076   0023FA  EC8E  F01A         	call	_UART1_Write
  1077   0023FE                     
  1078                           ;main.c: 85:             i2c_writeNBytes(0x50,datosEnvio,2);
  1079   0023FE  0E22               	movlw	low main@datosEnvio
  1080   002400  6E16               	movwf	i2c_writeNBytes@data^0,c
  1081   002402  0E00               	movlw	high main@datosEnvio
  1082   002404  6E17               	movwf	(i2c_writeNBytes@data+1)^0,c
  1083   002406  0E00               	movlw	0
  1084   002408  6E19               	movwf	(i2c_writeNBytes@len+1)^0,c
  1085   00240A  0E02               	movlw	2
  1086   00240C  6E18               	movwf	i2c_writeNBytes@len^0,c
  1087   00240E  0E50               	movlw	80
  1088   002410  ECBD  F017         	call	_i2c_writeNBytes
  1089   002414                     
  1090                           ;main.c: 86:             i2c_readNBytes(0x50,datosRecibidos,est.rs_num[0]);
  1091   002414  0E00               	movlw	low main@datosRecibidos
  1092   002416  6E16               	movwf	i2c_readNBytes@data^0,c
  1093   002418  0E01               	movlw	high main@datosRecibidos
  1094   00241A  6E17               	movwf	(i2c_readNBytes@data+1)^0,c
  1095   00241C  C08B  F018         	movff	main@est+7,i2c_readNBytes@len
  1096   002420  6A19               	clrf	(i2c_readNBytes@len+1)^0,c
  1097   002422  0E50               	movlw	80
  1098   002424  EC88  F018         	call	_i2c_readNBytes
  1099   002428                     
  1100                           ;main.c: 88:             for(int i=0;i<est.rs_num[0];i++){
  1101   002428  0E00               	movlw	0
  1102   00242A  6E20               	movwf	(main@i+1)^0,c
  1103   00242C  0E00               	movlw	0
  1104   00242E  6E1F               	movwf	main@i^0,c
  1105   002430  EF1F  F012         	goto	l4772
  1106   002434                     l4768:
  1107                           
  1108                           ; BSR set to: 0
  1109                           ;main.c: 89:                 UART1_Write(datosRecibidos);
  1110   002434  0E00               	movlw	main@datosRecibidos& (0+255)
  1111   002436  EC8E  F01A         	call	_UART1_Write
  1112   00243A                     
  1113                           ;main.c: 90:             }
  1114   00243A  4A1F               	infsnz	main@i^0,f,c
  1115   00243C  2A20               	incf	(main@i+1)^0,f,c
  1116   00243E                     l4772:
  1117   00243E  0100               	movlb	0	; () banked
  1118   002440  518B               	movf	(main@est+7)& (0+255),w,b
  1119   002442  6E1B               	movwf	??_main^0,c
  1120   002444  6A1C               	clrf	(??_main+1)^0,c
  1121   002446  501B               	movf	??_main^0,w,c
  1122   002448  5C1F               	subwf	main@i^0,w,c
  1123   00244A  5020               	movf	(main@i+1)^0,w,c
  1124   00244C  0A80               	xorlw	128
  1125   00244E  6E1D               	movwf	(??_main+2)^0,c
  1126   002450  501C               	movf	(??_main+1)^0,w,c
  1127   002452  0A80               	xorlw	128
  1128   002454  581D               	subwfb	(??_main+2)^0,w,c
  1129   002456  A0D8               	btfss	status,0,c
  1130   002458  EF30  F012         	goto	u3081
  1131   00245C  EF32  F012         	goto	u3080
  1132   002460                     u3081:
  1133   002460  EF1A  F012         	goto	l4768
  1134   002464                     u3080:
  1135   002464                     
  1136                           ; BSR set to: 0
  1137                           ;main.c: 91:             est.instruccion[1]=0;
  1138   002464  0E00               	movlw	0
  1139   002466  6FA4               	movwf	(main@est+32)& (0+255),b
  1140                           
  1141                           ;main.c: 92:         }
  1142   002468  EF65  F011         	goto	l4712
  1143   00246C                     l4776:
  1144                           
  1145                           ; BSR set to: 0
  1146   00246C  05A5               	decf	(main@est+33)& (0+255),w,b
  1147   00246E  A4D8               	btfss	status,2,c
  1148   002470  EF3C  F012         	goto	u3091
  1149   002474  EF3E  F012         	goto	u3090
  1150   002478                     u3091:
  1151   002478  EF84  F012         	goto	l4804
  1152   00247C                     u3090:
  1153   00247C                     
  1154                           ; BSR set to: 0
  1155                           ;main.c: 95:             UART1_Write('W');
  1156   00247C  0E57               	movlw	87
  1157   00247E  EC8E  F01A         	call	_UART1_Write
  1158                           
  1159                           ;main.c: 96:             UART1_Write('B');
  1160   002482  0E42               	movlw	66
  1161   002484  EC8E  F01A         	call	_UART1_Write
  1162   002488                     
  1163                           ;main.c: 97:             datosEnvio[0]=(est.add[0]-48)*16;
  1164   002488  0100               	movlb	0	; () banked
  1165   00248A  3986               	swapf	(main@est+2)& (0+255),w,b
  1166   00248C  0BF0               	andlw	240
  1167   00248E  6E22               	movwf	main@datosEnvio^0,c
  1168   002490                     
  1169                           ; BSR set to: 0
  1170                           ;main.c: 98:             datosEnvio[0]=(est.add[1]-48)+datosEnvio[0];
  1171   002490  5187               	movf	(main@est+3)& (0+255),w,b
  1172   002492  2422               	addwf	main@datosEnvio^0,w,c
  1173   002494  0FD0               	addlw	208
  1174   002496  6E22               	movwf	main@datosEnvio^0,c
  1175   002498                     
  1176                           ; BSR set to: 0
  1177                           ;main.c: 99:             datosEnvio[1]=(est.add[2]-48)*16;
  1178   002498  3988               	swapf	(main@est+4)& (0+255),w,b
  1179   00249A  0BF0               	andlw	240
  1180   00249C  6E23               	movwf	(main@datosEnvio+1)^0,c
  1181   00249E                     
  1182                           ; BSR set to: 0
  1183                           ;main.c: 100:             datosEnvio[1]=(est.add[3]-48)+datosEnvio[1];
  1184   00249E  5189               	movf	(main@est+5)& (0+255),w,b
  1185   0024A0  2423               	addwf	(main@datosEnvio+1)^0,w,c
  1186   0024A2  0FD0               	addlw	208
  1187   0024A4  6E23               	movwf	(main@datosEnvio+1)^0,c
  1188   0024A6                     
  1189                           ; BSR set to: 0
  1190                           ;main.c: 101:             datosEnvio[2]=est.wb_val[0];
  1191   0024A6  C08A  F024         	movff	main@est+6,main@datosEnvio+2
  1192   0024AA                     
  1193                           ; BSR set to: 0
  1194                           ;main.c: 103:             UART1_Write(datosEnvio[0]);
  1195   0024AA  5022               	movf	main@datosEnvio^0,w,c
  1196   0024AC  EC8E  F01A         	call	_UART1_Write
  1197   0024B0                     
  1198                           ;main.c: 104:             UART1_Write(datosEnvio[1]);
  1199   0024B0  5023               	movf	(main@datosEnvio+1)^0,w,c
  1200   0024B2  EC8E  F01A         	call	_UART1_Write
  1201   0024B6                     
  1202                           ;main.c: 105:             UART1_Write(datosEnvio[2]);
  1203   0024B6  5024               	movf	(main@datosEnvio+2)^0,w,c
  1204   0024B8  EC8E  F01A         	call	_UART1_Write
  1205   0024BC                     
  1206                           ;main.c: 107:             i2c_writeNBytes(0x50,datosEnvio,3);
  1207   0024BC  0E22               	movlw	low main@datosEnvio
  1208   0024BE  6E16               	movwf	i2c_writeNBytes@data^0,c
  1209   0024C0  0E00               	movlw	high main@datosEnvio
  1210   0024C2  6E17               	movwf	(i2c_writeNBytes@data+1)^0,c
  1211   0024C4  0E00               	movlw	0
  1212   0024C6  6E19               	movwf	(i2c_writeNBytes@len+1)^0,c
  1213   0024C8  0E03               	movlw	3
  1214   0024CA  6E18               	movwf	i2c_writeNBytes@len^0,c
  1215   0024CC  0E50               	movlw	80
  1216   0024CE  ECBD  F017         	call	_i2c_writeNBytes
  1217   0024D2                     
  1218                           ;main.c: 108:             i2c_writeNBytes(0x50,datosEnvio,2);
  1219   0024D2  0E22               	movlw	low main@datosEnvio
  1220   0024D4  6E16               	movwf	i2c_writeNBytes@data^0,c
  1221   0024D6  0E00               	movlw	high main@datosEnvio
  1222   0024D8  6E17               	movwf	(i2c_writeNBytes@data+1)^0,c
  1223   0024DA  0E00               	movlw	0
  1224   0024DC  6E19               	movwf	(i2c_writeNBytes@len+1)^0,c
  1225   0024DE  0E02               	movlw	2
  1226   0024E0  6E18               	movwf	i2c_writeNBytes@len^0,c
  1227   0024E2  0E50               	movlw	80
  1228   0024E4  ECBD  F017         	call	_i2c_writeNBytes
  1229   0024E8                     
  1230                           ;main.c: 109:             i2c_readNBytes(0x50,datosRecibidos,1);
  1231   0024E8  0E00               	movlw	low main@datosRecibidos
  1232   0024EA  6E16               	movwf	i2c_readNBytes@data^0,c
  1233   0024EC  0E01               	movlw	high main@datosRecibidos
  1234   0024EE  6E17               	movwf	(i2c_readNBytes@data+1)^0,c
  1235   0024F0  0E00               	movlw	0
  1236   0024F2  6E19               	movwf	(i2c_readNBytes@len+1)^0,c
  1237   0024F4  0E01               	movlw	1
  1238   0024F6  6E18               	movwf	i2c_readNBytes@len^0,c
  1239   0024F8  0E50               	movlw	80
  1240   0024FA  EC88  F018         	call	_i2c_readNBytes
  1241   0024FE                     
  1242                           ;main.c: 110:             est.instruccion[2]=0;
  1243   0024FE  0E00               	movlw	0
  1244   002500  0100               	movlb	0	; () banked
  1245   002502  6FA5               	movwf	(main@est+33)& (0+255),b
  1246                           
  1247                           ;main.c: 111:         }
  1248   002504  EF65  F011         	goto	l4712
  1249   002508                     l4804:
  1250                           
  1251                           ; BSR set to: 0
  1252   002508  05A6               	decf	(main@est+34)& (0+255),w,b
  1253   00250A  A4D8               	btfss	status,2,c
  1254   00250C  EF8A  F012         	goto	u3101
  1255   002510  EF8C  F012         	goto	u3100
  1256   002514                     u3101:
  1257   002514  EFE0  F012         	goto	l932
  1258   002518                     u3100:
  1259   002518                     
  1260                           ; BSR set to: 0
  1261                           ;main.c: 113:             UART1_Write('W');
  1262   002518  0E57               	movlw	87
  1263   00251A  EC8E  F01A         	call	_UART1_Write
  1264                           
  1265                           ;main.c: 114:             UART1_Write('s');
  1266   00251E  0E73               	movlw	115
  1267   002520  EC8E  F01A         	call	_UART1_Write
  1268   002524                     
  1269                           ;main.c: 115:             datosEnvio[0]=(est.add[0]-48)*16;
  1270   002524  0100               	movlb	0	; () banked
  1271   002526  3986               	swapf	(main@est+2)& (0+255),w,b
  1272   002528  0BF0               	andlw	240
  1273   00252A  6E22               	movwf	main@datosEnvio^0,c
  1274   00252C                     
  1275                           ; BSR set to: 0
  1276                           ;main.c: 116:             datosEnvio[0]=(est.add[1]-48)+datosEnvio[0];
  1277   00252C  5187               	movf	(main@est+3)& (0+255),w,b
  1278   00252E  2422               	addwf	main@datosEnvio^0,w,c
  1279   002530  0FD0               	addlw	208
  1280   002532  6E22               	movwf	main@datosEnvio^0,c
  1281   002534                     
  1282                           ; BSR set to: 0
  1283                           ;main.c: 117:             datosEnvio[1]=(est.add[2]-48)*16;
  1284   002534  3988               	swapf	(main@est+4)& (0+255),w,b
  1285   002536  0BF0               	andlw	240
  1286   002538  6E23               	movwf	(main@datosEnvio+1)^0,c
  1287   00253A                     
  1288                           ; BSR set to: 0
  1289                           ;main.c: 118:             datosEnvio[1]=(est.add[3]-48)+datosEnvio[1];
  1290   00253A  5189               	movf	(main@est+5)& (0+255),w,b
  1291   00253C  2423               	addwf	(main@datosEnvio+1)^0,w,c
  1292   00253E  0FD0               	addlw	208
  1293   002540  6E23               	movwf	(main@datosEnvio+1)^0,c
  1294   002542                     
  1295                           ; BSR set to: 0
  1296                           ;main.c: 120:             for(int i=0;i<16;i++){
  1297   002542  0E00               	movlw	0
  1298   002544  6E35               	movwf	(main@i_1494+1)^0,c
  1299   002546  0E00               	movlw	0
  1300   002548  6E34               	movwf	main@i_1494^0,c
  1301   00254A                     l4822:
  1302                           
  1303                           ;main.c: 121:                 datosEnvio[i+2]=est.ws_data[i];
  1304   00254A  0E08               	movlw	8
  1305   00254C  2434               	addwf	main@i_1494^0,w,c
  1306   00254E  6E1B               	movwf	??_main^0,c
  1307   002550  0E00               	movlw	0
  1308   002552  2035               	addwfc	(main@i_1494+1)^0,w,c
  1309   002554  6E1C               	movwf	(??_main+1)^0,c
  1310   002556  0E84               	movlw	low main@est
  1311   002558  241B               	addwf	??_main^0,w,c
  1312   00255A  6ED9               	movwf	fsr2l,c
  1313   00255C  0E00               	movlw	high main@est
  1314   00255E  201C               	addwfc	(??_main+1)^0,w,c
  1315   002560  6EDA               	movwf	fsr2h,c
  1316   002562  0E02               	movlw	2
  1317   002564  2434               	addwf	main@i_1494^0,w,c
  1318   002566  6E1D               	movwf	(??_main+2)^0,c
  1319   002568  0E00               	movlw	0
  1320   00256A  2035               	addwfc	(main@i_1494+1)^0,w,c
  1321   00256C  6E1E               	movwf	(??_main+3)^0,c
  1322   00256E  0E22               	movlw	low main@datosEnvio
  1323   002570  241D               	addwf	(??_main+2)^0,w,c
  1324   002572  6EE1               	movwf	fsr1l,c
  1325   002574  0E00               	movlw	high main@datosEnvio
  1326   002576  201E               	addwfc	(??_main+3)^0,w,c
  1327   002578  6EE2               	movwf	fsr1h,c
  1328   00257A  006F FF7F FFE7     	movff	indf2,indf1
  1329   002580                     
  1330                           ;main.c: 122:             }
  1331   002580  4A34               	infsnz	main@i_1494^0,f,c
  1332   002582  2A35               	incf	(main@i_1494+1)^0,f,c
  1333   002584  BE35               	btfsc	(main@i_1494+1)^0,7,c
  1334   002586  EFCE  F012         	goto	u3111
  1335   00258A  5035               	movf	(main@i_1494+1)^0,w,c
  1336   00258C  E109               	bnz	u3110
  1337   00258E  0E10               	movlw	16
  1338   002590  5C34               	subwf	main@i_1494^0,w,c
  1339   002592  A0D8               	btfss	status,0,c
  1340   002594  EFCE  F012         	goto	u3111
  1341   002598  EFD0  F012         	goto	u3110
  1342   00259C                     u3111:
  1343   00259C  EFA5  F012         	goto	l4822
  1344   0025A0                     u3110:
  1345   0025A0                     
  1346                           ;main.c: 124:             i2c_writeNBytes(0x50,datosEnvio,sizeof(datosEnvio));
  1347   0025A0  0E22               	movlw	low main@datosEnvio
  1348   0025A2  6E16               	movwf	i2c_writeNBytes@data^0,c
  1349   0025A4  0E00               	movlw	high main@datosEnvio
  1350   0025A6  6E17               	movwf	(i2c_writeNBytes@data+1)^0,c
  1351   0025A8  0E00               	movlw	0
  1352   0025AA  6E19               	movwf	(i2c_writeNBytes@len+1)^0,c
  1353   0025AC  0E12               	movlw	18
  1354   0025AE  6E18               	movwf	i2c_writeNBytes@len^0,c
  1355   0025B0  0E50               	movlw	80
  1356   0025B2  ECBD  F017         	call	_i2c_writeNBytes
  1357   0025B6                     
  1358                           ;main.c: 125:             est.instruccion[3]=0;
  1359   0025B6  0E00               	movlw	0
  1360   0025B8  0100               	movlb	0	; () banked
  1361   0025BA  6FA6               	movwf	(main@est+34)& (0+255),b
  1362   0025BC  EF65  F011         	goto	l4712
  1363   0025C0                     l932:
  1364                           
  1365                           ; BSR set to: 0
  1366   0025C0  EF65  F011         	goto	l4712
  1367   0025C4  EFFE  F07F         	goto	start
  1368   0025C8                     __end_of_main:
  1369                           	callstack 0
  1370                           
  1371 ;; *************** function _tam_cola *****************
  1372 ;; Defined at:
  1373 ;;		line 71 in file "cola.c"
  1374 ;; Parameters:    Size  Location     Type
  1375 ;;  c               2    0[COMRAM] PTR struct eCola
  1376 ;;		 -> main@cola(36), 
  1377 ;; Auto vars:     Size  Location     Type
  1378 ;;		None
  1379 ;; Return value:  Size  Location     Type
  1380 ;;                  2    0[COMRAM] int 
  1381 ;; Registers used:
  1382 ;;		wreg, fsr2l, fsr2h, status,2, status,0
  1383 ;; Tracked objects:
  1384 ;;		On entry : 0/0
  1385 ;;		On exit  : 0/0
  1386 ;;		Unchanged: 0/0
  1387 ;; Data sizes:     COMRAM   BANK0   BANK1   BANK2   BANK3   BANK4   BANK5   BANK6   BANK7   BANK8   BANK9  BANK10  BANK1
      +1  BANK12  BANK13  BANK14  BANK15
  1388 ;;      Params:         2       0       0       0       0       0       0       0       0       0       0       0       
      +0       0       0       0       0
  1389 ;;      Locals:         0       0       0       0       0       0       0       0       0       0       0       0       
      +0       0       0       0       0
  1390 ;;      Temps:          0       0       0       0       0       0       0       0       0       0       0       0       
      +0       0       0       0       0
  1391 ;;      Totals:         2       0       0       0       0       0       0       0       0       0       0       0       
      +0       0       0       0       0
  1392 ;;Total ram usage:        2 bytes
  1393 ;; Hardware stack levels used: 1
  1394 ;; This function calls:
  1395 ;;		Nothing
  1396 ;; This function is called by:
  1397 ;;		_main
  1398 ;; This function uses a non-reentrant model
  1399 ;;
  1400                           
  1401                           	psect	text1
  1402   003502                     __ptext1:
  1403                           	callstack 0
  1404   003502                     _tam_cola:
  1405                           	callstack 30
  1406   003502                     
  1407                           ;cola.c: 72:     return (c->peso);
  1408   003502  EE20 F022          	lfsr	2,34
  1409   003506  5001               	movf	tam_cola@c^0,w,c
  1410   003508  26D9               	addwf	fsr2l,f,c
  1411   00350A  5002               	movf	(tam_cola@c+1)^0,w,c
  1412   00350C  22DA               	addwfc	fsr2h,f,c
  1413   00350E  006F FF78  F001    	movff	postinc2,?_tam_cola
  1414   003514  006F FF74  F002    	movff	postdec2,?_tam_cola+1
  1415   00351A  0012               	return		;funcret
  1416   00351C                     __end_of_tam_cola:
  1417                           	callstack 0
  1418                           
  1419 ;; *************** function _lectura *****************
  1420 ;; Defined at:
  1421 ;;		line 24 in file "FSM.c"
  1422 ;; Parameters:    Size  Location     Type
  1423 ;;  lectura         1    wreg     unsigned char 
  1424 ;;  est             2    9[COMRAM] PTR struct variable
  1425 ;;		 -> main@est(35), 
  1426 ;; Auto vars:     Size  Location     Type
  1427 ;;  lectura         1   16[COMRAM] unsigned char 
  1428 ;; Return value:  Size  Location     Type
  1429 ;;                  1    wreg      void 
  1430 ;; Registers used:
  1431 ;;		wreg, fsr1l, fsr1h, fsr2l, fsr2h, status,2, status,0, prodl, prodh
  1432 ;; Tracked objects:
  1433 ;;		On entry : 0/0
  1434 ;;		On exit  : 0/0
  1435 ;;		Unchanged: 0/0
  1436 ;; Data sizes:     COMRAM   BANK0   BANK1   BANK2   BANK3   BANK4   BANK5   BANK6   BANK7   BANK8   BANK9  BANK10  BANK1
      +1  BANK12  BANK13  BANK14  BANK15
  1437 ;;      Params:         2       0       0       0       0       0       0       0       0       0       0       0       
      +0       0       0       0       0
  1438 ;;      Locals:         1       0       0       0       0       0       0       0       0       0       0       0       
      +0       0       0       0       0
  1439 ;;      Temps:          5       0       0       0       0       0       0       0       0       0       0       0       
      +0       0       0       0       0
  1440 ;;      Totals:         8       0       0       0       0       0       0       0       0       0       0       0       
      +0       0       0       0       0
  1441 ;;Total ram usage:        8 bytes
  1442 ;; Hardware stack levels used: 1
  1443 ;; This function calls:
  1444 ;;		Nothing
  1445 ;; This function is called by:
  1446 ;;		_main
  1447 ;; This function uses a non-reentrant model
  1448 ;;
  1449                           
  1450                           	psect	text2
  1451   0010D2                     __ptext2:
  1452                           	callstack 0
  1453   0010D2                     _lectura:
  1454                           	callstack 30
  1455                           
  1456                           ;incstack = 0
  1457                           ;lectura@lectura stored from wreg
  1458   0010D2  6E11               	movwf	lectura@lectura^0,c
  1459   0010D4                     
  1460                           ;FSM.c: 26:  switch(est->estados){
  1461   0010D4  EF20  F011         	goto	l4448
  1462   0010D8                     l4184:
  1463                           
  1464                           ;FSM.c: 29:             if(lectura=='R'){
  1465   0010D8  0E52               	movlw	82
  1466   0010DA  1811               	xorwf	lectura@lectura^0,w,c
  1467   0010DC  A4D8               	btfss	status,2,c
  1468   0010DE  EF73  F008         	goto	u2201
  1469   0010E2  EF75  F008         	goto	u2200
  1470   0010E6                     u2201:
  1471   0010E6  EF81  F008         	goto	l4188
  1472   0010EA                     u2200:
  1473   0010EA                     
  1474                           ;FSM.c: 31:    est->estados=2;
  1475   0010EA  0060  F02B  FFD9   	movff	lectura@est,fsr2l
  1476   0010F0  0060  F02F  FFDA   	movff	lectura@est+1,fsr2h
  1477   0010F6  0E02               	movlw	2
  1478   0010F8  6EDE               	movwf	postinc2,c
  1479   0010FA  0E00               	movlw	0
  1480   0010FC  6EDD               	movwf	postdec2,c
  1481                           
  1482                           ;FSM.c: 32:    }
  1483   0010FE  EF56  F011         	goto	l1055
  1484   001102                     l4188:
  1485   001102  0E57               	movlw	87
  1486   001104  1811               	xorwf	lectura@lectura^0,w,c
  1487   001106  A4D8               	btfss	status,2,c
  1488   001108  EF88  F008         	goto	u2211
  1489   00110C  EF8A  F008         	goto	u2210
  1490   001110                     u2211:
  1491   001110  EF96  F008         	goto	l4192
  1492   001114                     u2210:
  1493   001114                     
  1494                           ;FSM.c: 36:    est->estados=3;
  1495   001114  0060  F02B  FFD9   	movff	lectura@est,fsr2l
  1496   00111A  0060  F02F  FFDA   	movff	lectura@est+1,fsr2h
  1497   001120  0E03               	movlw	3
  1498   001122  6EDE               	movwf	postinc2,c
  1499   001124  0E00               	movlw	0
  1500   001126  6EDD               	movwf	postdec2,c
  1501                           
  1502                           ;FSM.c: 37:             }
  1503   001128  EF56  F011         	goto	l1055
  1504   00112C                     l4192:
  1505                           
  1506                           ;FSM.c: 43:             est->estados=1;
  1507   00112C  0060  F02B  FFD9   	movff	lectura@est,fsr2l
  1508   001132  0060  F02F  FFDA   	movff	lectura@est+1,fsr2h
  1509   001138  0E01               	movlw	1
  1510   00113A  6EDE               	movwf	postinc2,c
  1511   00113C  0E00               	movlw	0
  1512   00113E  6EDD               	movwf	postdec2,c
  1513   001140  EF56  F011         	goto	l1055
  1514   001144                     l958:
  1515                           
  1516                           ;FSM.c: 45:         break;
  1517   001144  EF56  F011         	goto	l1055
  1518   001148                     l4194:
  1519                           
  1520                           ;FSM.c: 48:             if(lectura=='B'){
  1521   001148  0E42               	movlw	66
  1522   00114A  1811               	xorwf	lectura@lectura^0,w,c
  1523   00114C  A4D8               	btfss	status,2,c
  1524   00114E  EFAB  F008         	goto	u2221
  1525   001152  EFAD  F008         	goto	u2220
  1526   001156                     u2221:
  1527   001156  EFC3  F008         	goto	l4200
  1528   00115A                     u2220:
  1529   00115A                     
  1530                           ;FSM.c: 50:                 est->lectura_add=0;
  1531   00115A  EE20 F018          	lfsr	2,24
  1532   00115E  500A               	movf	lectura@est^0,w,c
  1533   001160  26D9               	addwf	fsr2l,f,c
  1534   001162  500B               	movf	(lectura@est+1)^0,w,c
  1535   001164  22DA               	addwfc	fsr2h,f,c
  1536   001166  0E00               	movlw	0
  1537   001168  6EDE               	movwf	postinc2,c
  1538   00116A  0E00               	movlw	0
  1539   00116C  6EDD               	movwf	postdec2,c
  1540   00116E                     
  1541                           ;FSM.c: 51:                 est->estados=4;
  1542   00116E  0060  F02B  FFD9   	movff	lectura@est,fsr2l
  1543   001174  0060  F02F  FFDA   	movff	lectura@est+1,fsr2h
  1544   00117A  0E04               	movlw	4
  1545   00117C  6EDE               	movwf	postinc2,c
  1546   00117E  0E00               	movlw	0
  1547   001180  6EDD               	movwf	postdec2,c
  1548                           
  1549                           ;FSM.c: 52:             }
  1550   001182  EF56  F011         	goto	l1055
  1551   001186                     l4200:
  1552   001186  0E53               	movlw	83
  1553   001188  1811               	xorwf	lectura@lectura^0,w,c
  1554   00118A  A4D8               	btfss	status,2,c
  1555   00118C  EFCA  F008         	goto	u2231
  1556   001190  EFCC  F008         	goto	u2230
  1557   001194                     u2231:
  1558   001194  EFEA  F008         	goto	l4206
  1559   001198                     u2230:
  1560   001198                     
  1561                           ;FSM.c: 56:                 est->flag=0;
  1562   001198  EE20 F01C          	lfsr	2,28
  1563   00119C  500A               	movf	lectura@est^0,w,c
  1564   00119E  26D9               	addwf	fsr2l,f,c
  1565   0011A0  500B               	movf	(lectura@est+1)^0,w,c
  1566   0011A2  22DA               	addwfc	fsr2h,f,c
  1567   0011A4  0E00               	movlw	0
  1568   0011A6  6EDF               	movwf	indf2,c
  1569                           
  1570                           ;FSM.c: 57:                 est->lectura_add=0;
  1571   0011A8  EE20 F018          	lfsr	2,24
  1572   0011AC  500A               	movf	lectura@est^0,w,c
  1573   0011AE  26D9               	addwf	fsr2l,f,c
  1574   0011B0  500B               	movf	(lectura@est+1)^0,w,c
  1575   0011B2  22DA               	addwfc	fsr2h,f,c
  1576   0011B4  0E00               	movlw	0
  1577   0011B6  6EDE               	movwf	postinc2,c
  1578   0011B8  0E00               	movlw	0
  1579   0011BA  6EDD               	movwf	postdec2,c
  1580   0011BC                     
  1581                           ;FSM.c: 58:                 est->estados=5;
  1582   0011BC  0060  F02B  FFD9   	movff	lectura@est,fsr2l
  1583   0011C2  0060  F02F  FFDA   	movff	lectura@est+1,fsr2h
  1584   0011C8  0E05               	movlw	5
  1585   0011CA  6EDE               	movwf	postinc2,c
  1586   0011CC  0E00               	movlw	0
  1587   0011CE  6EDD               	movwf	postdec2,c
  1588                           
  1589                           ;FSM.c: 59:             }
  1590   0011D0  EF56  F011         	goto	l1055
  1591   0011D4                     l4206:
  1592                           
  1593                           ;FSM.c: 65:                 est->estados=1;
  1594   0011D4  0060  F02B  FFD9   	movff	lectura@est,fsr2l
  1595   0011DA  0060  F02F  FFDA   	movff	lectura@est+1,fsr2h
  1596   0011E0  0E01               	movlw	1
  1597   0011E2  6EDE               	movwf	postinc2,c
  1598   0011E4  0E00               	movlw	0
  1599   0011E6  6EDD               	movwf	postdec2,c
  1600   0011E8  EF56  F011         	goto	l1055
  1601   0011EC                     l4208:
  1602                           
  1603                           ;FSM.c: 70:             if(lectura=='B'){
  1604   0011EC  0E42               	movlw	66
  1605   0011EE  1811               	xorwf	lectura@lectura^0,w,c
  1606   0011F0  A4D8               	btfss	status,2,c
  1607   0011F2  EFFD  F008         	goto	u2241
  1608   0011F6  EFFF  F008         	goto	u2240
  1609   0011FA                     u2241:
  1610   0011FA  EF27  F009         	goto	l4214
  1611   0011FE                     u2240:
  1612   0011FE                     
  1613                           ;FSM.c: 72:                 est->flag=0;
  1614   0011FE  EE20 F01C          	lfsr	2,28
  1615   001202  500A               	movf	lectura@est^0,w,c
  1616   001204  26D9               	addwf	fsr2l,f,c
  1617   001206  500B               	movf	(lectura@est+1)^0,w,c
  1618   001208  22DA               	addwfc	fsr2h,f,c
  1619   00120A  0E00               	movlw	0
  1620   00120C  6EDF               	movwf	indf2,c
  1621                           
  1622                           ;FSM.c: 73:                 est->lectura_add=0;
  1623   00120E  EE20 F018          	lfsr	2,24
  1624   001212  500A               	movf	lectura@est^0,w,c
  1625   001214  26D9               	addwf	fsr2l,f,c
  1626   001216  500B               	movf	(lectura@est+1)^0,w,c
  1627   001218  22DA               	addwfc	fsr2h,f,c
  1628   00121A  0E00               	movlw	0
  1629   00121C  6EDE               	movwf	postinc2,c
  1630   00121E  0E00               	movlw	0
  1631   001220  6EDD               	movwf	postdec2,c
  1632                           
  1633                           ;FSM.c: 74:                 est->lectura_data=0;
  1634   001222  EE20 F01A          	lfsr	2,26
  1635   001226  500A               	movf	lectura@est^0,w,c
  1636   001228  26D9               	addwf	fsr2l,f,c
  1637   00122A  500B               	movf	(lectura@est+1)^0,w,c
  1638   00122C  22DA               	addwfc	fsr2h,f,c
  1639   00122E  0E00               	movlw	0
  1640   001230  6EDE               	movwf	postinc2,c
  1641   001232  0E00               	movlw	0
  1642   001234  6EDD               	movwf	postdec2,c
  1643   001236                     
  1644                           ;FSM.c: 75:                 est->estados=6;
  1645   001236  0060  F02B  FFD9   	movff	lectura@est,fsr2l
  1646   00123C  0060  F02F  FFDA   	movff	lectura@est+1,fsr2h
  1647   001242  0E06               	movlw	6
  1648   001244  6EDE               	movwf	postinc2,c
  1649   001246  0E00               	movlw	0
  1650   001248  6EDD               	movwf	postdec2,c
  1651                           
  1652                           ;FSM.c: 76:             }
  1653   00124A  EF56  F011         	goto	l1055
  1654   00124E                     l4214:
  1655   00124E  0E53               	movlw	83
  1656   001250  1811               	xorwf	lectura@lectura^0,w,c
  1657   001252  A4D8               	btfss	status,2,c
  1658   001254  EF2E  F009         	goto	u2251
  1659   001258  EF30  F009         	goto	u2250
  1660   00125C                     u2251:
  1661   00125C  EF60  F009         	goto	l4220
  1662   001260                     u2250:
  1663   001260                     
  1664                           ;FSM.c: 80:                 est->contador=0;
  1665   001260  EE20 F01E          	lfsr	2,30
  1666   001264  500A               	movf	lectura@est^0,w,c
  1667   001266  26D9               	addwf	fsr2l,f,c
  1668   001268  500B               	movf	(lectura@est+1)^0,w,c
  1669   00126A  22DA               	addwfc	fsr2h,f,c
  1670   00126C  0E00               	movlw	0
  1671   00126E  6EDF               	movwf	indf2,c
  1672                           
  1673                           ;FSM.c: 81:                 est->flag=0;
  1674   001270  EE20 F01C          	lfsr	2,28
  1675   001274  500A               	movf	lectura@est^0,w,c
  1676   001276  26D9               	addwf	fsr2l,f,c
  1677   001278  500B               	movf	(lectura@est+1)^0,w,c
  1678   00127A  22DA               	addwfc	fsr2h,f,c
  1679   00127C  0E00               	movlw	0
  1680   00127E  6EDF               	movwf	indf2,c
  1681                           
  1682                           ;FSM.c: 82:                 est->lectura_add=0;
  1683   001280  EE20 F018          	lfsr	2,24
  1684   001284  500A               	movf	lectura@est^0,w,c
  1685   001286  26D9               	addwf	fsr2l,f,c
  1686   001288  500B               	movf	(lectura@est+1)^0,w,c
  1687   00128A  22DA               	addwfc	fsr2h,f,c
  1688   00128C  0E00               	movlw	0
  1689   00128E  6EDE               	movwf	postinc2,c
  1690   001290  0E00               	movlw	0
  1691   001292  6EDD               	movwf	postdec2,c
  1692                           
  1693                           ;FSM.c: 83:                 est->lectura_data=0;
  1694   001294  EE20 F01A          	lfsr	2,26
  1695   001298  500A               	movf	lectura@est^0,w,c
  1696   00129A  26D9               	addwf	fsr2l,f,c
  1697   00129C  500B               	movf	(lectura@est+1)^0,w,c
  1698   00129E  22DA               	addwfc	fsr2h,f,c
  1699   0012A0  0E00               	movlw	0
  1700   0012A2  6EDE               	movwf	postinc2,c
  1701   0012A4  0E00               	movlw	0
  1702   0012A6  6EDD               	movwf	postdec2,c
  1703   0012A8                     
  1704                           ;FSM.c: 84:                 est->estados=7;
  1705   0012A8  0060  F02B  FFD9   	movff	lectura@est,fsr2l
  1706   0012AE  0060  F02F  FFDA   	movff	lectura@est+1,fsr2h
  1707   0012B4  0E07               	movlw	7
  1708   0012B6  6EDE               	movwf	postinc2,c
  1709   0012B8  0E00               	movlw	0
  1710   0012BA  6EDD               	movwf	postdec2,c
  1711                           
  1712                           ;FSM.c: 85:             }
  1713   0012BC  EF56  F011         	goto	l1055
  1714   0012C0                     l4220:
  1715                           
  1716                           ;FSM.c: 91:                 est->estados=1;
  1717   0012C0  0060  F02B  FFD9   	movff	lectura@est,fsr2l
  1718   0012C6  0060  F02F  FFDA   	movff	lectura@est+1,fsr2h
  1719   0012CC  0E01               	movlw	1
  1720   0012CE  6EDE               	movwf	postinc2,c
  1721   0012D0  0E00               	movlw	0
  1722   0012D2  6EDD               	movwf	postdec2,c
  1723   0012D4  EF56  F011         	goto	l1055
  1724   0012D8                     l4222:
  1725                           
  1726                           ;FSM.c: 96:             if(est->lectura_add<3){
  1727   0012D8  EE20 F018          	lfsr	2,24
  1728   0012DC  500A               	movf	lectura@est^0,w,c
  1729   0012DE  26D9               	addwf	fsr2l,f,c
  1730   0012E0  500B               	movf	(lectura@est+1)^0,w,c
  1731   0012E2  22DA               	addwfc	fsr2h,f,c
  1732   0012E4  0E01               	movlw	1
  1733   0012E6  BEDB               	btfsc	plusw2,7,c
  1734   0012E8  EF82  F009         	goto	u2260
  1735   0012EC  0E01               	movlw	1
  1736   0012EE  50DB               	movf	plusw2,w,c
  1737   0012F0  E107               	bnz	u2261
  1738   0012F2  0E03               	movlw	3
  1739   0012F4  5CDE               	subwf	postinc2,w,c
  1740   0012F6  B0D8               	btfsc	status,0,c
  1741   0012F8  EF80  F009         	goto	u2261
  1742   0012FC  EF82  F009         	goto	u2260
  1743   001300                     u2261:
  1744   001300  EFBB  F009         	goto	l4226
  1745   001304                     u2260:
  1746   001304                     
  1747                           ;FSM.c: 97:                 est->add[est->lectura_add]=lectura;
  1748   001304  EE20 F018          	lfsr	2,24
  1749   001308  500A               	movf	lectura@est^0,w,c
  1750   00130A  26D9               	addwf	fsr2l,f,c
  1751   00130C  500B               	movf	(lectura@est+1)^0,w,c
  1752   00130E  22DA               	addwfc	fsr2h,f,c
  1753   001310  006F FF78  F00C    	movff	postinc2,??_lectura
  1754   001316  006F FF74  F00D    	movff	postdec2,??_lectura+1
  1755   00131C  500C               	movf	??_lectura^0,w,c
  1756   00131E  240A               	addwf	lectura@est^0,w,c
  1757   001320  6E0E               	movwf	(??_lectura+2)^0,c
  1758   001322  500D               	movf	(??_lectura+1)^0,w,c
  1759   001324  200B               	addwfc	(lectura@est+1)^0,w,c
  1760   001326  6E0F               	movwf	(??_lectura+3)^0,c
  1761   001328  0E02               	movlw	2
  1762   00132A  240E               	addwf	(??_lectura+2)^0,w,c
  1763   00132C  6ED9               	movwf	fsr2l,c
  1764   00132E  0E00               	movlw	0
  1765   001330  200F               	addwfc	(??_lectura+3)^0,w,c
  1766   001332  6EDA               	movwf	fsr2h,c
  1767   001334  0060  F047  FFDF   	movff	lectura@lectura,indf2
  1768                           
  1769                           ;FSM.c: 98:                 est->lectura_add=est->lectura_add+1;
  1770   00133A  EE20 F018          	lfsr	2,24
  1771   00133E  500A               	movf	lectura@est^0,w,c
  1772   001340  26D9               	addwf	fsr2l,f,c
  1773   001342  500B               	movf	(lectura@est+1)^0,w,c
  1774   001344  22DA               	addwfc	fsr2h,f,c
  1775   001346  006F FF78  F00C    	movff	postinc2,??_lectura
  1776   00134C  006F FF74  F00D    	movff	postdec2,??_lectura+1
  1777   001352  0E01               	movlw	1
  1778   001354  260C               	addwf	??_lectura^0,f,c
  1779   001356  0E00               	movlw	0
  1780   001358  220D               	addwfc	(??_lectura+1)^0,f,c
  1781   00135A  EE20 F018          	lfsr	2,24
  1782   00135E  500A               	movf	lectura@est^0,w,c
  1783   001360  26D9               	addwf	fsr2l,f,c
  1784   001362  500B               	movf	(lectura@est+1)^0,w,c
  1785   001364  22DA               	addwfc	fsr2h,f,c
  1786   001366  0060  F033  FFDE   	movff	??_lectura,postinc2
  1787   00136C  0060  F037  FFDD   	movff	??_lectura+1,postdec2
  1788                           
  1789                           ;FSM.c: 101:             }
  1790   001372  EF56  F011         	goto	l1055
  1791   001376                     l4226:
  1792   001376  EE20 F018          	lfsr	2,24
  1793   00137A  500A               	movf	lectura@est^0,w,c
  1794   00137C  26D9               	addwf	fsr2l,f,c
  1795   00137E  500B               	movf	(lectura@est+1)^0,w,c
  1796   001380  22DA               	addwfc	fsr2h,f,c
  1797   001382  0E03               	movlw	3
  1798   001384  18DE               	xorwf	postinc2,w,c
  1799   001386  10DE               	iorwf	postinc2,w,c
  1800   001388  A4D8               	btfss	status,2,c
  1801   00138A  EFC9  F009         	goto	u2271
  1802   00138E  EFCB  F009         	goto	u2270
  1803   001392                     u2271:
  1804   001392  EF16  F00A         	goto	l4232
  1805   001396                     u2270:
  1806   001396                     
  1807                           ;FSM.c: 104:                 est->add[est->lectura_add]=lectura;
  1808   001396  EE20 F018          	lfsr	2,24
  1809   00139A  500A               	movf	lectura@est^0,w,c
  1810   00139C  26D9               	addwf	fsr2l,f,c
  1811   00139E  500B               	movf	(lectura@est+1)^0,w,c
  1812   0013A0  22DA               	addwfc	fsr2h,f,c
  1813   0013A2  006F FF78  F00C    	movff	postinc2,??_lectura
  1814   0013A8  006F FF74  F00D    	movff	postdec2,??_lectura+1
  1815   0013AE  500C               	movf	??_lectura^0,w,c
  1816   0013B0  240A               	addwf	lectura@est^0,w,c
  1817   0013B2  6E0E               	movwf	(??_lectura+2)^0,c
  1818   0013B4  500D               	movf	(??_lectura+1)^0,w,c
  1819   0013B6  200B               	addwfc	(lectura@est+1)^0,w,c
  1820   0013B8  6E0F               	movwf	(??_lectura+3)^0,c
  1821   0013BA  0E02               	movlw	2
  1822   0013BC  240E               	addwf	(??_lectura+2)^0,w,c
  1823   0013BE  6ED9               	movwf	fsr2l,c
  1824   0013C0  0E00               	movlw	0
  1825   0013C2  200F               	addwfc	(??_lectura+3)^0,w,c
  1826   0013C4  6EDA               	movwf	fsr2h,c
  1827   0013C6  0060  F047  FFDF   	movff	lectura@lectura,indf2
  1828                           
  1829                           ;FSM.c: 105:                 est->lectura_add=est->lectura_add+1;
  1830   0013CC  EE20 F018          	lfsr	2,24
  1831   0013D0  500A               	movf	lectura@est^0,w,c
  1832   0013D2  26D9               	addwf	fsr2l,f,c
  1833   0013D4  500B               	movf	(lectura@est+1)^0,w,c
  1834   0013D6  22DA               	addwfc	fsr2h,f,c
  1835   0013D8  006F FF78  F00C    	movff	postinc2,??_lectura
  1836   0013DE  006F FF74  F00D    	movff	postdec2,??_lectura+1
  1837   0013E4  0E01               	movlw	1
  1838   0013E6  260C               	addwf	??_lectura^0,f,c
  1839   0013E8  0E00               	movlw	0
  1840   0013EA  220D               	addwfc	(??_lectura+1)^0,f,c
  1841   0013EC  EE20 F018          	lfsr	2,24
  1842   0013F0  500A               	movf	lectura@est^0,w,c
  1843   0013F2  26D9               	addwf	fsr2l,f,c
  1844   0013F4  500B               	movf	(lectura@est+1)^0,w,c
  1845   0013F6  22DA               	addwfc	fsr2h,f,c
  1846   0013F8  0060  F033  FFDE   	movff	??_lectura,postinc2
  1847   0013FE  0060  F037  FFDD   	movff	??_lectura+1,postdec2
  1848                           
  1849                           ;FSM.c: 107:                 est->instruccion[0]=1;
  1850   001404  EE20 F01F          	lfsr	2,31
  1851   001408  500A               	movf	lectura@est^0,w,c
  1852   00140A  26D9               	addwf	fsr2l,f,c
  1853   00140C  500B               	movf	(lectura@est+1)^0,w,c
  1854   00140E  22DA               	addwfc	fsr2h,f,c
  1855   001410  0E01               	movlw	1
  1856   001412  6EDF               	movwf	indf2,c
  1857   001414                     
  1858                           ;FSM.c: 108:                 est->estados=8;
  1859   001414  0060  F02B  FFD9   	movff	lectura@est,fsr2l
  1860   00141A  0060  F02F  FFDA   	movff	lectura@est+1,fsr2h
  1861   001420  0E08               	movlw	8
  1862   001422  6EDE               	movwf	postinc2,c
  1863   001424  0E00               	movlw	0
  1864   001426  6EDD               	movwf	postdec2,c
  1865                           
  1866                           ;FSM.c: 109:             }
  1867   001428  EF56  F011         	goto	l1055
  1868   00142C                     l4232:
  1869                           
  1870                           ;FSM.c: 115:                 est->lectura_add=0;
  1871   00142C  EE20 F018          	lfsr	2,24
  1872   001430  500A               	movf	lectura@est^0,w,c
  1873   001432  26D9               	addwf	fsr2l,f,c
  1874   001434  500B               	movf	(lectura@est+1)^0,w,c
  1875   001436  22DA               	addwfc	fsr2h,f,c
  1876   001438  0E00               	movlw	0
  1877   00143A  6EDE               	movwf	postinc2,c
  1878   00143C  0E00               	movlw	0
  1879   00143E  6EDD               	movwf	postdec2,c
  1880   001440                     
  1881                           ;FSM.c: 116:                 est->estados=1;
  1882   001440  0060  F02B  FFD9   	movff	lectura@est,fsr2l
  1883   001446  0060  F02F  FFDA   	movff	lectura@est+1,fsr2h
  1884   00144C  0E01               	movlw	1
  1885   00144E  6EDE               	movwf	postinc2,c
  1886   001450  0E00               	movlw	0
  1887   001452  6EDD               	movwf	postdec2,c
  1888   001454  EF56  F011         	goto	l1055
  1889   001458                     l4236:
  1890                           
  1891                           ;FSM.c: 121:             if(est->flag==0){
  1892   001458  EE20 F01C          	lfsr	2,28
  1893   00145C  500A               	movf	lectura@est^0,w,c
  1894   00145E  26D9               	addwf	fsr2l,f,c
  1895   001460  500B               	movf	(lectura@est+1)^0,w,c
  1896   001462  22DA               	addwfc	fsr2h,f,c
  1897   001464  50DF               	movf	indf2,w,c
  1898   001466  A4D8               	btfss	status,2,c
  1899   001468  EF38  F00A         	goto	u2281
  1900   00146C  EF3A  F00A         	goto	u2280
  1901   001470                     u2281:
  1902   001470  EFED  F00A         	goto	l4250
  1903   001474                     u2280:
  1904   001474                     
  1905                           ;FSM.c: 122:                 if(est->lectura_add<3){
  1906   001474  EE20 F018          	lfsr	2,24
  1907   001478  500A               	movf	lectura@est^0,w,c
  1908   00147A  26D9               	addwf	fsr2l,f,c
  1909   00147C  500B               	movf	(lectura@est+1)^0,w,c
  1910   00147E  22DA               	addwfc	fsr2h,f,c
  1911   001480  0E01               	movlw	1
  1912   001482  BEDB               	btfsc	plusw2,7,c
  1913   001484  EF50  F00A         	goto	u2290
  1914   001488  0E01               	movlw	1
  1915   00148A  50DB               	movf	plusw2,w,c
  1916   00148C  E107               	bnz	u2291
  1917   00148E  0E03               	movlw	3
  1918   001490  5CDE               	subwf	postinc2,w,c
  1919   001492  B0D8               	btfsc	status,0,c
  1920   001494  EF4E  F00A         	goto	u2291
  1921   001498  EF50  F00A         	goto	u2290
  1922   00149C                     u2291:
  1923   00149C  EF89  F00A         	goto	l4242
  1924   0014A0                     u2290:
  1925   0014A0                     
  1926                           ;FSM.c: 123:                 est->add[est->lectura_add]=lectura;
  1927   0014A0  EE20 F018          	lfsr	2,24
  1928   0014A4  500A               	movf	lectura@est^0,w,c
  1929   0014A6  26D9               	addwf	fsr2l,f,c
  1930   0014A8  500B               	movf	(lectura@est+1)^0,w,c
  1931   0014AA  22DA               	addwfc	fsr2h,f,c
  1932   0014AC  006F FF78  F00C    	movff	postinc2,??_lectura
  1933   0014B2  006F FF74  F00D    	movff	postdec2,??_lectura+1
  1934   0014B8  500C               	movf	??_lectura^0,w,c
  1935   0014BA  240A               	addwf	lectura@est^0,w,c
  1936   0014BC  6E0E               	movwf	(??_lectura+2)^0,c
  1937   0014BE  500D               	movf	(??_lectura+1)^0,w,c
  1938   0014C0  200B               	addwfc	(lectura@est+1)^0,w,c
  1939   0014C2  6E0F               	movwf	(??_lectura+3)^0,c
  1940   0014C4  0E02               	movlw	2
  1941   0014C6  240E               	addwf	(??_lectura+2)^0,w,c
  1942   0014C8  6ED9               	movwf	fsr2l,c
  1943   0014CA  0E00               	movlw	0
  1944   0014CC  200F               	addwfc	(??_lectura+3)^0,w,c
  1945   0014CE  6EDA               	movwf	fsr2h,c
  1946   0014D0  0060  F047  FFDF   	movff	lectura@lectura,indf2
  1947                           
  1948                           ;FSM.c: 124:                 est->lectura_add=est->lectura_add+1;
  1949   0014D6  EE20 F018          	lfsr	2,24
  1950   0014DA  500A               	movf	lectura@est^0,w,c
  1951   0014DC  26D9               	addwf	fsr2l,f,c
  1952   0014DE  500B               	movf	(lectura@est+1)^0,w,c
  1953   0014E0  22DA               	addwfc	fsr2h,f,c
  1954   0014E2  006F FF78  F00C    	movff	postinc2,??_lectura
  1955   0014E8  006F FF74  F00D    	movff	postdec2,??_lectura+1
  1956   0014EE  0E01               	movlw	1
  1957   0014F0  260C               	addwf	??_lectura^0,f,c
  1958   0014F2  0E00               	movlw	0
  1959   0014F4  220D               	addwfc	(??_lectura+1)^0,f,c
  1960   0014F6  EE20 F018          	lfsr	2,24
  1961   0014FA  500A               	movf	lectura@est^0,w,c
  1962   0014FC  26D9               	addwf	fsr2l,f,c
  1963   0014FE  500B               	movf	(lectura@est+1)^0,w,c
  1964   001500  22DA               	addwfc	fsr2h,f,c
  1965   001502  0060  F033  FFDE   	movff	??_lectura,postinc2
  1966   001508  0060  F037  FFDD   	movff	??_lectura+1,postdec2
  1967                           
  1968                           ;FSM.c: 127:                 }
  1969   00150E  EF56  F011         	goto	l1055
  1970   001512                     l4242:
  1971   001512  EE20 F018          	lfsr	2,24
  1972   001516  500A               	movf	lectura@est^0,w,c
  1973   001518  26D9               	addwf	fsr2l,f,c
  1974   00151A  500B               	movf	(lectura@est+1)^0,w,c
  1975   00151C  22DA               	addwfc	fsr2h,f,c
  1976   00151E  0E03               	movlw	3
  1977   001520  18DE               	xorwf	postinc2,w,c
  1978   001522  10DE               	iorwf	postinc2,w,c
  1979   001524  A4D8               	btfss	status,2,c
  1980   001526  EF97  F00A         	goto	u2301
  1981   00152A  EF99  F00A         	goto	u2300
  1982   00152E                     u2301:
  1983   00152E  EFDA  F00A         	goto	l4246
  1984   001532                     u2300:
  1985   001532                     
  1986                           ;FSM.c: 130:                     est->add[est->lectura_add]=lectura;
  1987   001532  EE20 F018          	lfsr	2,24
  1988   001536  500A               	movf	lectura@est^0,w,c
  1989   001538  26D9               	addwf	fsr2l,f,c
  1990   00153A  500B               	movf	(lectura@est+1)^0,w,c
  1991   00153C  22DA               	addwfc	fsr2h,f,c
  1992   00153E  006F FF78  F00C    	movff	postinc2,??_lectura
  1993   001544  006F FF74  F00D    	movff	postdec2,??_lectura+1
  1994   00154A  500C               	movf	??_lectura^0,w,c
  1995   00154C  240A               	addwf	lectura@est^0,w,c
  1996   00154E  6E0E               	movwf	(??_lectura+2)^0,c
  1997   001550  500D               	movf	(??_lectura+1)^0,w,c
  1998   001552  200B               	addwfc	(lectura@est+1)^0,w,c
  1999   001554  6E0F               	movwf	(??_lectura+3)^0,c
  2000   001556  0E02               	movlw	2
  2001   001558  240E               	addwf	(??_lectura+2)^0,w,c
  2002   00155A  6ED9               	movwf	fsr2l,c
  2003   00155C  0E00               	movlw	0
  2004   00155E  200F               	addwfc	(??_lectura+3)^0,w,c
  2005   001560  6EDA               	movwf	fsr2h,c
  2006   001562  0060  F047  FFDF   	movff	lectura@lectura,indf2
  2007                           
  2008                           ;FSM.c: 131:                     est->lectura_add=est->lectura_add+1;
  2009   001568  EE20 F018          	lfsr	2,24
  2010   00156C  500A               	movf	lectura@est^0,w,c
  2011   00156E  26D9               	addwf	fsr2l,f,c
  2012   001570  500B               	movf	(lectura@est+1)^0,w,c
  2013   001572  22DA               	addwfc	fsr2h,f,c
  2014   001574  006F FF78  F00C    	movff	postinc2,??_lectura
  2015   00157A  006F FF74  F00D    	movff	postdec2,??_lectura+1
  2016   001580  0E01               	movlw	1
  2017   001582  260C               	addwf	??_lectura^0,f,c
  2018   001584  0E00               	movlw	0
  2019   001586  220D               	addwfc	(??_lectura+1)^0,f,c
  2020   001588  EE20 F018          	lfsr	2,24
  2021   00158C  500A               	movf	lectura@est^0,w,c
  2022   00158E  26D9               	addwf	fsr2l,f,c
  2023   001590  500B               	movf	(lectura@est+1)^0,w,c
  2024   001592  22DA               	addwfc	fsr2h,f,c
  2025   001594  0060  F033  FFDE   	movff	??_lectura,postinc2
  2026   00159A  0060  F037  FFDD   	movff	??_lectura+1,postdec2
  2027                           
  2028                           ;FSM.c: 133:                     est->instruccion[0]=1;
  2029   0015A0  EE20 F01F          	lfsr	2,31
  2030   0015A4  500A               	movf	lectura@est^0,w,c
  2031   0015A6  26D9               	addwf	fsr2l,f,c
  2032   0015A8  500B               	movf	(lectura@est+1)^0,w,c
  2033   0015AA  22DA               	addwfc	fsr2h,f,c
  2034   0015AC  0E01               	movlw	1
  2035   0015AE  6EDF               	movwf	indf2,c
  2036                           
  2037                           ;FSM.c: 134:                 }
  2038   0015B0  EF56  F011         	goto	l1055
  2039   0015B4                     l4246:
  2040   0015B4  0E2C               	movlw	44
  2041   0015B6  1811               	xorwf	lectura@lectura^0,w,c
  2042   0015B8  A4D8               	btfss	status,2,c
  2043   0015BA  EFE1  F00A         	goto	u2311
  2044   0015BE  EFE3  F00A         	goto	u2310
  2045   0015C2                     u2311:
  2046   0015C2  EFA2  F008         	goto	l958
  2047   0015C6                     u2310:
  2048   0015C6                     
  2049                           ;FSM.c: 138:                 est->flag=1;
  2050   0015C6  EE20 F01C          	lfsr	2,28
  2051   0015CA  500A               	movf	lectura@est^0,w,c
  2052   0015CC  26D9               	addwf	fsr2l,f,c
  2053   0015CE  500B               	movf	(lectura@est+1)^0,w,c
  2054   0015D0  22DA               	addwfc	fsr2h,f,c
  2055   0015D2  0E01               	movlw	1
  2056   0015D4  6EDF               	movwf	indf2,c
  2057   0015D6  EF56  F011         	goto	l1055
  2058   0015DA                     l4250:
  2059   0015DA  EE20 F01C          	lfsr	2,28
  2060   0015DE  500A               	movf	lectura@est^0,w,c
  2061   0015E0  26D9               	addwf	fsr2l,f,c
  2062   0015E2  500B               	movf	(lectura@est+1)^0,w,c
  2063   0015E4  22DA               	addwfc	fsr2h,f,c
  2064   0015E6  04DE               	decf	postinc2,w,c
  2065   0015E8  A4D8               	btfss	status,2,c
  2066   0015EA  EFF9  F00A         	goto	u2321
  2067   0015EE  EFFB  F00A         	goto	u2320
  2068   0015F2                     u2321:
  2069   0015F2  EFA3  F00B         	goto	l4276
  2070   0015F6                     u2320:
  2071   0015F6                     
  2072                           ;FSM.c: 142:                 if(est->lectura_data==0){
  2073   0015F6  EE20 F01A          	lfsr	2,26
  2074   0015FA  500A               	movf	lectura@est^0,w,c
  2075   0015FC  26D9               	addwf	fsr2l,f,c
  2076   0015FE  500B               	movf	(lectura@est+1)^0,w,c
  2077   001600  22DA               	addwfc	fsr2h,f,c
  2078   001602  50DE               	movf	postinc2,w,c
  2079   001604  10DE               	iorwf	postinc2,w,c
  2080   001606  A4D8               	btfss	status,2,c
  2081   001608  EF08  F00B         	goto	u2331
  2082   00160C  EF0A  F00B         	goto	u2330
  2083   001610                     u2331:
  2084   001610  EF4E  F00B         	goto	l4264
  2085   001614                     u2330:
  2086   001614                     
  2087                           ;FSM.c: 143:                     if(lectura<=57){
  2088   001614  0E3A               	movlw	58
  2089   001616  6011               	cpfslt	lectura@lectura^0,c
  2090   001618  EF10  F00B         	goto	u2341
  2091   00161C  EF12  F00B         	goto	u2340
  2092   001620                     u2341:
  2093   001620  EF1D  F00B         	goto	l4258
  2094   001624                     u2340:
  2095   001624                     
  2096                           ;FSM.c: 144:                     est->rs_num[0]=16*(lectura-48);
  2097   001624  EE20 F007          	lfsr	2,7
  2098   001628  500A               	movf	lectura@est^0,w,c
  2099   00162A  26D9               	addwf	fsr2l,f,c
  2100   00162C  500B               	movf	(lectura@est+1)^0,w,c
  2101   00162E  22DA               	addwfc	fsr2h,f,c
  2102   001630  3811               	swapf	lectura@lectura^0,w,c
  2103   001632  0BF0               	andlw	240
  2104   001634  6EDF               	movwf	indf2,c
  2105                           
  2106                           ;FSM.c: 145:                 }
  2107   001636  EF30  F00B         	goto	l4262
  2108   00163A                     l4258:
  2109   00163A  0E39               	movlw	57
  2110   00163C  6411               	cpfsgt	lectura@lectura^0,c
  2111   00163E  EF23  F00B         	goto	u2351
  2112   001642  EF25  F00B         	goto	u2350
  2113   001646                     u2351:
  2114   001646  EF30  F00B         	goto	l4262
  2115   00164A                     u2350:
  2116   00164A                     
  2117                           ;FSM.c: 147:                     est->rs_num[0]=16*(lectura-55);
  2118   00164A  EE20 F007          	lfsr	2,7
  2119   00164E  500A               	movf	lectura@est^0,w,c
  2120   001650  26D9               	addwf	fsr2l,f,c
  2121   001652  500B               	movf	(lectura@est+1)^0,w,c
  2122   001654  22DA               	addwfc	fsr2h,f,c
  2123   001656  5011               	movf	lectura@lectura^0,w,c
  2124   001658  0D10               	mullw	16
  2125   00165A  50F3               	movf	243,w,c
  2126   00165C  0F90               	addlw	144
  2127   00165E  6EDF               	movwf	indf2,c
  2128   001660                     l4262:
  2129                           
  2130                           ;FSM.c: 149:                 est->lectura_data=est->lectura_data+1;
  2131   001660  EE20 F01A          	lfsr	2,26
  2132   001664  500A               	movf	lectura@est^0,w,c
  2133   001666  26D9               	addwf	fsr2l,f,c
  2134   001668  500B               	movf	(lectura@est+1)^0,w,c
  2135   00166A  22DA               	addwfc	fsr2h,f,c
  2136   00166C  006F FF78  F00C    	movff	postinc2,??_lectura
  2137   001672  006F FF74  F00D    	movff	postdec2,??_lectura+1
  2138   001678  0E01               	movlw	1
  2139   00167A  260C               	addwf	??_lectura^0,f,c
  2140   00167C  0E00               	movlw	0
  2141   00167E  220D               	addwfc	(??_lectura+1)^0,f,c
  2142   001680  EE20 F01A          	lfsr	2,26
  2143   001684  500A               	movf	lectura@est^0,w,c
  2144   001686  26D9               	addwf	fsr2l,f,c
  2145   001688  500B               	movf	(lectura@est+1)^0,w,c
  2146   00168A  22DA               	addwfc	fsr2h,f,c
  2147   00168C  0060  F033  FFDE   	movff	??_lectura,postinc2
  2148   001692  0060  F037  FFDD   	movff	??_lectura+1,postdec2
  2149                           
  2150                           ;FSM.c: 151:                 }
  2151   001698  EF56  F011         	goto	l1055
  2152   00169C                     l4264:
  2153   00169C  EE20 F01A          	lfsr	2,26
  2154   0016A0  500A               	movf	lectura@est^0,w,c
  2155   0016A2  26D9               	addwf	fsr2l,f,c
  2156   0016A4  500B               	movf	(lectura@est+1)^0,w,c
  2157   0016A6  22DA               	addwfc	fsr2h,f,c
  2158   0016A8  04DE               	decf	postinc2,w,c
  2159   0016AA  10DE               	iorwf	postinc2,w,c
  2160   0016AC  A4D8               	btfss	status,2,c
  2161   0016AE  EF5B  F00B         	goto	u2361
  2162   0016B2  EF5D  F00B         	goto	u2360
  2163   0016B6                     u2361:
  2164   0016B6  EF56  F011         	goto	l1055
  2165   0016BA                     u2360:
  2166   0016BA                     
  2167                           ;FSM.c: 153:                     if(lectura<=57){
  2168   0016BA  0E3A               	movlw	58
  2169   0016BC  6011               	cpfslt	lectura@lectura^0,c
  2170   0016BE  EF63  F00B         	goto	u2371
  2171   0016C2  EF65  F00B         	goto	u2370
  2172   0016C6                     u2371:
  2173   0016C6  EF73  F00B         	goto	l4270
  2174   0016CA                     u2370:
  2175   0016CA                     
  2176                           ;FSM.c: 154:                     est->rs_num[0]+=(lectura-48);
  2177   0016CA  C011  F00C         	movff	lectura@lectura,??_lectura
  2178   0016CE  0ED0               	movlw	208
  2179   0016D0  260C               	addwf	??_lectura^0,f,c
  2180   0016D2  EE20 F007          	lfsr	2,7
  2181   0016D6  500A               	movf	lectura@est^0,w,c
  2182   0016D8  26D9               	addwf	fsr2l,f,c
  2183   0016DA  500B               	movf	(lectura@est+1)^0,w,c
  2184   0016DC  22DA               	addwfc	fsr2h,f,c
  2185   0016DE  500C               	movf	??_lectura^0,w,c
  2186   0016E0  26DF               	addwf	indf2,f,c
  2187                           
  2188                           ;FSM.c: 155:                     }
  2189   0016E2  EF87  F00B         	goto	l993
  2190   0016E6                     l4270:
  2191   0016E6  0E39               	movlw	57
  2192   0016E8  6411               	cpfsgt	lectura@lectura^0,c
  2193   0016EA  EF79  F00B         	goto	u2381
  2194   0016EE  EF7B  F00B         	goto	u2380
  2195   0016F2                     u2381:
  2196   0016F2  EF87  F00B         	goto	l993
  2197   0016F6                     u2380:
  2198   0016F6                     
  2199                           ;FSM.c: 157:                         est->rs_num[0]+=(lectura-55);
  2200   0016F6  C011  F00C         	movff	lectura@lectura,??_lectura
  2201   0016FA  0EC9               	movlw	201
  2202   0016FC  260C               	addwf	??_lectura^0,f,c
  2203   0016FE  EE20 F007          	lfsr	2,7
  2204   001702  500A               	movf	lectura@est^0,w,c
  2205   001704  26D9               	addwf	fsr2l,f,c
  2206   001706  500B               	movf	(lectura@est+1)^0,w,c
  2207   001708  22DA               	addwfc	fsr2h,f,c
  2208   00170A  500C               	movf	??_lectura^0,w,c
  2209   00170C  26DF               	addwf	indf2,f,c
  2210   00170E                     l993:
  2211                           
  2212                           ;FSM.c: 159:                     est->flag=0;
  2213   00170E  EE20 F01C          	lfsr	2,28
  2214   001712  500A               	movf	lectura@est^0,w,c
  2215   001714  26D9               	addwf	fsr2l,f,c
  2216   001716  500B               	movf	(lectura@est+1)^0,w,c
  2217   001718  22DA               	addwfc	fsr2h,f,c
  2218   00171A  0E00               	movlw	0
  2219   00171C  6EDF               	movwf	indf2,c
  2220                           
  2221                           ;FSM.c: 160:                     est->instruccion[1]=1;
  2222   00171E  EE20 F020          	lfsr	2,32
  2223   001722  500A               	movf	lectura@est^0,w,c
  2224   001724  26D9               	addwf	fsr2l,f,c
  2225   001726  500B               	movf	(lectura@est+1)^0,w,c
  2226   001728  22DA               	addwfc	fsr2h,f,c
  2227   00172A  0E01               	movlw	1
  2228   00172C  6EDF               	movwf	indf2,c
  2229   00172E                     
  2230                           ;FSM.c: 161:                     est->estados=8;
  2231   00172E  0060  F02B  FFD9   	movff	lectura@est,fsr2l
  2232   001734  0060  F02F  FFDA   	movff	lectura@est+1,fsr2h
  2233   00173A  0E08               	movlw	8
  2234   00173C  6EDE               	movwf	postinc2,c
  2235   00173E  0E00               	movlw	0
  2236   001740  6EDD               	movwf	postdec2,c
  2237   001742  EF56  F011         	goto	l1055
  2238   001746                     l4276:
  2239                           
  2240                           ;FSM.c: 170:                 est->estados=1;
  2241   001746  0060  F02B  FFD9   	movff	lectura@est,fsr2l
  2242   00174C  0060  F02F  FFDA   	movff	lectura@est+1,fsr2h
  2243   001752  0E01               	movlw	1
  2244   001754  6EDE               	movwf	postinc2,c
  2245   001756  0E00               	movlw	0
  2246   001758  6EDD               	movwf	postdec2,c
  2247   00175A                     
  2248                           ;FSM.c: 171:                 est->lectura_data=0;
  2249   00175A  EE20 F01A          	lfsr	2,26
  2250   00175E  500A               	movf	lectura@est^0,w,c
  2251   001760  26D9               	addwf	fsr2l,f,c
  2252   001762  500B               	movf	(lectura@est+1)^0,w,c
  2253   001764  22DA               	addwfc	fsr2h,f,c
  2254   001766  0E00               	movlw	0
  2255   001768  6EDE               	movwf	postinc2,c
  2256   00176A  0E00               	movlw	0
  2257   00176C  6EDD               	movwf	postdec2,c
  2258   00176E                     
  2259                           ;FSM.c: 172:                 est->contador=0;
  2260   00176E  EE20 F01E          	lfsr	2,30
  2261   001772  500A               	movf	lectura@est^0,w,c
  2262   001774  26D9               	addwf	fsr2l,f,c
  2263   001776  500B               	movf	(lectura@est+1)^0,w,c
  2264   001778  22DA               	addwfc	fsr2h,f,c
  2265   00177A  0E00               	movlw	0
  2266   00177C  6EDF               	movwf	indf2,c
  2267   00177E                     
  2268                           ;FSM.c: 173:                 est->flag=0;
  2269   00177E  EE20 F01C          	lfsr	2,28
  2270   001782  500A               	movf	lectura@est^0,w,c
  2271   001784  26D9               	addwf	fsr2l,f,c
  2272   001786  500B               	movf	(lectura@est+1)^0,w,c
  2273   001788  22DA               	addwfc	fsr2h,f,c
  2274   00178A  0E00               	movlw	0
  2275   00178C  6EDF               	movwf	indf2,c
  2276   00178E  EF56  F011         	goto	l1055
  2277   001792                     l4284:
  2278                           
  2279                           ;FSM.c: 178:             if(est->flag == 0){
  2280   001792  EE20 F01C          	lfsr	2,28
  2281   001796  500A               	movf	lectura@est^0,w,c
  2282   001798  26D9               	addwf	fsr2l,f,c
  2283   00179A  500B               	movf	(lectura@est+1)^0,w,c
  2284   00179C  22DA               	addwfc	fsr2h,f,c
  2285   00179E  50DF               	movf	indf2,w,c
  2286   0017A0  A4D8               	btfss	status,2,c
  2287   0017A2  EFD5  F00B         	goto	u2391
  2288   0017A6  EFD7  F00B         	goto	u2390
  2289   0017AA                     u2391:
  2290   0017AA  EF8A  F00C         	goto	l4298
  2291   0017AE                     u2390:
  2292   0017AE                     
  2293                           ;FSM.c: 179:                 if(est->lectura_add<3){
  2294   0017AE  EE20 F018          	lfsr	2,24
  2295   0017B2  500A               	movf	lectura@est^0,w,c
  2296   0017B4  26D9               	addwf	fsr2l,f,c
  2297   0017B6  500B               	movf	(lectura@est+1)^0,w,c
  2298   0017B8  22DA               	addwfc	fsr2h,f,c
  2299   0017BA  0E01               	movlw	1
  2300   0017BC  BEDB               	btfsc	plusw2,7,c
  2301   0017BE  EFED  F00B         	goto	u2400
  2302   0017C2  0E01               	movlw	1
  2303   0017C4  50DB               	movf	plusw2,w,c
  2304   0017C6  E107               	bnz	u2401
  2305   0017C8  0E03               	movlw	3
  2306   0017CA  5CDE               	subwf	postinc2,w,c
  2307   0017CC  B0D8               	btfsc	status,0,c
  2308   0017CE  EFEB  F00B         	goto	u2401
  2309   0017D2  EFED  F00B         	goto	u2400
  2310   0017D6                     u2401:
  2311   0017D6  EF26  F00C         	goto	l4290
  2312   0017DA                     u2400:
  2313   0017DA                     
  2314                           ;FSM.c: 180:                     est->add[est->lectura_add]=lectura;
  2315   0017DA  EE20 F018          	lfsr	2,24
  2316   0017DE  500A               	movf	lectura@est^0,w,c
  2317   0017E0  26D9               	addwf	fsr2l,f,c
  2318   0017E2  500B               	movf	(lectura@est+1)^0,w,c
  2319   0017E4  22DA               	addwfc	fsr2h,f,c
  2320   0017E6  006F FF78  F00C    	movff	postinc2,??_lectura
  2321   0017EC  006F FF74  F00D    	movff	postdec2,??_lectura+1
  2322   0017F2  500C               	movf	??_lectura^0,w,c
  2323   0017F4  240A               	addwf	lectura@est^0,w,c
  2324   0017F6  6E0E               	movwf	(??_lectura+2)^0,c
  2325   0017F8  500D               	movf	(??_lectura+1)^0,w,c
  2326   0017FA  200B               	addwfc	(lectura@est+1)^0,w,c
  2327   0017FC  6E0F               	movwf	(??_lectura+3)^0,c
  2328   0017FE  0E02               	movlw	2
  2329   001800  240E               	addwf	(??_lectura+2)^0,w,c
  2330   001802  6ED9               	movwf	fsr2l,c
  2331   001804  0E00               	movlw	0
  2332   001806  200F               	addwfc	(??_lectura+3)^0,w,c
  2333   001808  6EDA               	movwf	fsr2h,c
  2334   00180A  0060  F047  FFDF   	movff	lectura@lectura,indf2
  2335                           
  2336                           ;FSM.c: 181:                     est->lectura_add=est->lectura_add+1;
  2337   001810  EE20 F018          	lfsr	2,24
  2338   001814  500A               	movf	lectura@est^0,w,c
  2339   001816  26D9               	addwf	fsr2l,f,c
  2340   001818  500B               	movf	(lectura@est+1)^0,w,c
  2341   00181A  22DA               	addwfc	fsr2h,f,c
  2342   00181C  006F FF78  F00C    	movff	postinc2,??_lectura
  2343   001822  006F FF74  F00D    	movff	postdec2,??_lectura+1
  2344   001828  0E01               	movlw	1
  2345   00182A  260C               	addwf	??_lectura^0,f,c
  2346   00182C  0E00               	movlw	0
  2347   00182E  220D               	addwfc	(??_lectura+1)^0,f,c
  2348   001830  EE20 F018          	lfsr	2,24
  2349   001834  500A               	movf	lectura@est^0,w,c
  2350   001836  26D9               	addwf	fsr2l,f,c
  2351   001838  500B               	movf	(lectura@est+1)^0,w,c
  2352   00183A  22DA               	addwfc	fsr2h,f,c
  2353   00183C  0060  F033  FFDE   	movff	??_lectura,postinc2
  2354   001842  0060  F037  FFDD   	movff	??_lectura+1,postdec2
  2355                           
  2356                           ;FSM.c: 184:                 }
  2357   001848  EF56  F011         	goto	l1055
  2358   00184C                     l4290:
  2359   00184C  EE20 F018          	lfsr	2,24
  2360   001850  500A               	movf	lectura@est^0,w,c
  2361   001852  26D9               	addwf	fsr2l,f,c
  2362   001854  500B               	movf	(lectura@est+1)^0,w,c
  2363   001856  22DA               	addwfc	fsr2h,f,c
  2364   001858  0E03               	movlw	3
  2365   00185A  18DE               	xorwf	postinc2,w,c
  2366   00185C  10DE               	iorwf	postinc2,w,c
  2367   00185E  A4D8               	btfss	status,2,c
  2368   001860  EF34  F00C         	goto	u2411
  2369   001864  EF36  F00C         	goto	u2410
  2370   001868                     u2411:
  2371   001868  EF77  F00C         	goto	l4294
  2372   00186C                     u2410:
  2373   00186C                     
  2374                           ;FSM.c: 186:                     est->add[est->lectura_add]=lectura;
  2375   00186C  EE20 F018          	lfsr	2,24
  2376   001870  500A               	movf	lectura@est^0,w,c
  2377   001872  26D9               	addwf	fsr2l,f,c
  2378   001874  500B               	movf	(lectura@est+1)^0,w,c
  2379   001876  22DA               	addwfc	fsr2h,f,c
  2380   001878  006F FF78  F00C    	movff	postinc2,??_lectura
  2381   00187E  006F FF74  F00D    	movff	postdec2,??_lectura+1
  2382   001884  500C               	movf	??_lectura^0,w,c
  2383   001886  240A               	addwf	lectura@est^0,w,c
  2384   001888  6E0E               	movwf	(??_lectura+2)^0,c
  2385   00188A  500D               	movf	(??_lectura+1)^0,w,c
  2386   00188C  200B               	addwfc	(lectura@est+1)^0,w,c
  2387   00188E  6E0F               	movwf	(??_lectura+3)^0,c
  2388   001890  0E02               	movlw	2
  2389   001892  240E               	addwf	(??_lectura+2)^0,w,c
  2390   001894  6ED9               	movwf	fsr2l,c
  2391   001896  0E00               	movlw	0
  2392   001898  200F               	addwfc	(??_lectura+3)^0,w,c
  2393   00189A  6EDA               	movwf	fsr2h,c
  2394   00189C  0060  F047  FFDF   	movff	lectura@lectura,indf2
  2395                           
  2396                           ;FSM.c: 187:                     est->lectura_add=est->lectura_add+1;
  2397   0018A2  EE20 F018          	lfsr	2,24
  2398   0018A6  500A               	movf	lectura@est^0,w,c
  2399   0018A8  26D9               	addwf	fsr2l,f,c
  2400   0018AA  500B               	movf	(lectura@est+1)^0,w,c
  2401   0018AC  22DA               	addwfc	fsr2h,f,c
  2402   0018AE  006F FF78  F00C    	movff	postinc2,??_lectura
  2403   0018B4  006F FF74  F00D    	movff	postdec2,??_lectura+1
  2404   0018BA  0E01               	movlw	1
  2405   0018BC  260C               	addwf	??_lectura^0,f,c
  2406   0018BE  0E00               	movlw	0
  2407   0018C0  220D               	addwfc	(??_lectura+1)^0,f,c
  2408   0018C2  EE20 F018          	lfsr	2,24
  2409   0018C6  500A               	movf	lectura@est^0,w,c
  2410   0018C8  26D9               	addwf	fsr2l,f,c
  2411   0018CA  500B               	movf	(lectura@est+1)^0,w,c
  2412   0018CC  22DA               	addwfc	fsr2h,f,c
  2413   0018CE  0060  F033  FFDE   	movff	??_lectura,postinc2
  2414   0018D4  0060  F037  FFDD   	movff	??_lectura+1,postdec2
  2415                           
  2416                           ;FSM.c: 189:                     est->instruccion[0]=1;
  2417   0018DA  EE20 F01F          	lfsr	2,31
  2418   0018DE  500A               	movf	lectura@est^0,w,c
  2419   0018E0  26D9               	addwf	fsr2l,f,c
  2420   0018E2  500B               	movf	(lectura@est+1)^0,w,c
  2421   0018E4  22DA               	addwfc	fsr2h,f,c
  2422   0018E6  0E01               	movlw	1
  2423   0018E8  6EDF               	movwf	indf2,c
  2424                           
  2425                           ;FSM.c: 190:                 }
  2426   0018EA  EF56  F011         	goto	l1055
  2427   0018EE                     l4294:
  2428   0018EE  0E2C               	movlw	44
  2429   0018F0  1811               	xorwf	lectura@lectura^0,w,c
  2430   0018F2  A4D8               	btfss	status,2,c
  2431   0018F4  EF7E  F00C         	goto	u2421
  2432   0018F8  EF80  F00C         	goto	u2420
  2433   0018FC                     u2421:
  2434   0018FC  EFA2  F008         	goto	l958
  2435   001900                     u2420:
  2436   001900                     
  2437                           ;FSM.c: 193:                     est->flag=1;
  2438   001900  EE20 F01C          	lfsr	2,28
  2439   001904  500A               	movf	lectura@est^0,w,c
  2440   001906  26D9               	addwf	fsr2l,f,c
  2441   001908  500B               	movf	(lectura@est+1)^0,w,c
  2442   00190A  22DA               	addwfc	fsr2h,f,c
  2443   00190C  0E01               	movlw	1
  2444   00190E  6EDF               	movwf	indf2,c
  2445   001910  EF56  F011         	goto	l1055
  2446   001914                     l4298:
  2447   001914  EE20 F01C          	lfsr	2,28
  2448   001918  500A               	movf	lectura@est^0,w,c
  2449   00191A  26D9               	addwf	fsr2l,f,c
  2450   00191C  500B               	movf	(lectura@est+1)^0,w,c
  2451   00191E  22DA               	addwfc	fsr2h,f,c
  2452   001920  04DE               	decf	postinc2,w,c
  2453   001922  A4D8               	btfss	status,2,c
  2454   001924  EF96  F00C         	goto	u2431
  2455   001928  EF98  F00C         	goto	u2430
  2456   00192C                     u2431:
  2457   00192C  EF4A  F00D         	goto	l4324
  2458   001930                     u2430:
  2459   001930                     
  2460                           ;FSM.c: 197:                 if(est->lectura_data==0){
  2461   001930  EE20 F01A          	lfsr	2,26
  2462   001934  500A               	movf	lectura@est^0,w,c
  2463   001936  26D9               	addwf	fsr2l,f,c
  2464   001938  500B               	movf	(lectura@est+1)^0,w,c
  2465   00193A  22DA               	addwfc	fsr2h,f,c
  2466   00193C  50DE               	movf	postinc2,w,c
  2467   00193E  10DE               	iorwf	postinc2,w,c
  2468   001940  A4D8               	btfss	status,2,c
  2469   001942  EFA5  F00C         	goto	u2441
  2470   001946  EFA7  F00C         	goto	u2440
  2471   00194A                     u2441:
  2472   00194A  EFEB  F00C         	goto	l4312
  2473   00194E                     u2440:
  2474   00194E                     
  2475                           ;FSM.c: 198:                     if(lectura<=57){
  2476   00194E  0E3A               	movlw	58
  2477   001950  6011               	cpfslt	lectura@lectura^0,c
  2478   001952  EFAD  F00C         	goto	u2451
  2479   001956  EFAF  F00C         	goto	u2450
  2480   00195A                     u2451:
  2481   00195A  EFBA  F00C         	goto	l4306
  2482   00195E                     u2450:
  2483   00195E                     
  2484                           ;FSM.c: 199:                         est->wb_val[0]=16*(lectura-48);
  2485   00195E  EE20 F006          	lfsr	2,6
  2486   001962  500A               	movf	lectura@est^0,w,c
  2487   001964  26D9               	addwf	fsr2l,f,c
  2488   001966  500B               	movf	(lectura@est+1)^0,w,c
  2489   001968  22DA               	addwfc	fsr2h,f,c
  2490   00196A  3811               	swapf	lectura@lectura^0,w,c
  2491   00196C  0BF0               	andlw	240
  2492   00196E  6EDF               	movwf	indf2,c
  2493                           
  2494                           ;FSM.c: 200:                     }
  2495   001970  EFCD  F00C         	goto	l4310
  2496   001974                     l4306:
  2497   001974  0E39               	movlw	57
  2498   001976  6411               	cpfsgt	lectura@lectura^0,c
  2499   001978  EFC0  F00C         	goto	u2461
  2500   00197C  EFC2  F00C         	goto	u2460
  2501   001980                     u2461:
  2502   001980  EFCD  F00C         	goto	l4310
  2503   001984                     u2460:
  2504   001984                     
  2505                           ;FSM.c: 203:                         est->wb_val[0]=16*(lectura-55);
  2506   001984  EE20 F006          	lfsr	2,6
  2507   001988  500A               	movf	lectura@est^0,w,c
  2508   00198A  26D9               	addwf	fsr2l,f,c
  2509   00198C  500B               	movf	(lectura@est+1)^0,w,c
  2510   00198E  22DA               	addwfc	fsr2h,f,c
  2511   001990  5011               	movf	lectura@lectura^0,w,c
  2512   001992  0D10               	mullw	16
  2513   001994  50F3               	movf	243,w,c
  2514   001996  0F90               	addlw	144
  2515   001998  6EDF               	movwf	indf2,c
  2516   00199A                     l4310:
  2517                           
  2518                           ;FSM.c: 206:                     est->lectura_data=est->lectura_data+1;
  2519   00199A  EE20 F01A          	lfsr	2,26
  2520   00199E  500A               	movf	lectura@est^0,w,c
  2521   0019A0  26D9               	addwf	fsr2l,f,c
  2522   0019A2  500B               	movf	(lectura@est+1)^0,w,c
  2523   0019A4  22DA               	addwfc	fsr2h,f,c
  2524   0019A6  006F FF78  F00C    	movff	postinc2,??_lectura
  2525   0019AC  006F FF74  F00D    	movff	postdec2,??_lectura+1
  2526   0019B2  0E01               	movlw	1
  2527   0019B4  260C               	addwf	??_lectura^0,f,c
  2528   0019B6  0E00               	movlw	0
  2529   0019B8  220D               	addwfc	(??_lectura+1)^0,f,c
  2530   0019BA  EE20 F01A          	lfsr	2,26
  2531   0019BE  500A               	movf	lectura@est^0,w,c
  2532   0019C0  26D9               	addwf	fsr2l,f,c
  2533   0019C2  500B               	movf	(lectura@est+1)^0,w,c
  2534   0019C4  22DA               	addwfc	fsr2h,f,c
  2535   0019C6  0060  F033  FFDE   	movff	??_lectura,postinc2
  2536   0019CC  0060  F037  FFDD   	movff	??_lectura+1,postdec2
  2537                           
  2538                           ;FSM.c: 208:                 }
  2539   0019D2  EF56  F011         	goto	l1055
  2540   0019D6                     l4312:
  2541   0019D6  EE20 F01A          	lfsr	2,26
  2542   0019DA  500A               	movf	lectura@est^0,w,c
  2543   0019DC  26D9               	addwf	fsr2l,f,c
  2544   0019DE  500B               	movf	(lectura@est+1)^0,w,c
  2545   0019E0  22DA               	addwfc	fsr2h,f,c
  2546   0019E2  04DE               	decf	postinc2,w,c
  2547   0019E4  10DE               	iorwf	postinc2,w,c
  2548   0019E6  A4D8               	btfss	status,2,c
  2549   0019E8  EFF8  F00C         	goto	u2471
  2550   0019EC  EFFA  F00C         	goto	u2470
  2551   0019F0                     u2471:
  2552   0019F0  EF56  F011         	goto	l1055
  2553   0019F4                     u2470:
  2554   0019F4                     
  2555                           ;FSM.c: 210:                     if(lectura<=57){
  2556   0019F4  0E3A               	movlw	58
  2557   0019F6  6011               	cpfslt	lectura@lectura^0,c
  2558   0019F8  EF00  F00D         	goto	u2481
  2559   0019FC  EF02  F00D         	goto	u2480
  2560   001A00                     u2481:
  2561   001A00  EF10  F00D         	goto	l4318
  2562   001A04                     u2480:
  2563   001A04                     
  2564                           ;FSM.c: 211:                         est->wb_val[0]+=(lectura-48);
  2565   001A04  C011  F00C         	movff	lectura@lectura,??_lectura
  2566   001A08  0ED0               	movlw	208
  2567   001A0A  260C               	addwf	??_lectura^0,f,c
  2568   001A0C  EE20 F006          	lfsr	2,6
  2569   001A10  500A               	movf	lectura@est^0,w,c
  2570   001A12  26D9               	addwf	fsr2l,f,c
  2571   001A14  500B               	movf	(lectura@est+1)^0,w,c
  2572   001A16  22DA               	addwfc	fsr2h,f,c
  2573   001A18  500C               	movf	??_lectura^0,w,c
  2574   001A1A  26DF               	addwf	indf2,f,c
  2575                           
  2576                           ;FSM.c: 212:                     }
  2577   001A1C  EF24  F00D         	goto	l1012
  2578   001A20                     l4318:
  2579   001A20  0E39               	movlw	57
  2580   001A22  6411               	cpfsgt	lectura@lectura^0,c
  2581   001A24  EF16  F00D         	goto	u2491
  2582   001A28  EF18  F00D         	goto	u2490
  2583   001A2C                     u2491:
  2584   001A2C  EF24  F00D         	goto	l1012
  2585   001A30                     u2490:
  2586   001A30                     
  2587                           ;FSM.c: 214:                         est->wb_val[0]+=(lectura-55);
  2588   001A30  C011  F00C         	movff	lectura@lectura,??_lectura
  2589   001A34  0EC9               	movlw	201
  2590   001A36  260C               	addwf	??_lectura^0,f,c
  2591   001A38  EE20 F006          	lfsr	2,6
  2592   001A3C  500A               	movf	lectura@est^0,w,c
  2593   001A3E  26D9               	addwf	fsr2l,f,c
  2594   001A40  500B               	movf	(lectura@est+1)^0,w,c
  2595   001A42  22DA               	addwfc	fsr2h,f,c
  2596   001A44  500C               	movf	??_lectura^0,w,c
  2597   001A46  26DF               	addwf	indf2,f,c
  2598   001A48                     l1012:
  2599                           
  2600                           ;FSM.c: 217:                     est->flag=0;
  2601   001A48  EE20 F01C          	lfsr	2,28
  2602   001A4C  500A               	movf	lectura@est^0,w,c
  2603   001A4E  26D9               	addwf	fsr2l,f,c
  2604   001A50  500B               	movf	(lectura@est+1)^0,w,c
  2605   001A52  22DA               	addwfc	fsr2h,f,c
  2606   001A54  0E00               	movlw	0
  2607   001A56  6EDF               	movwf	indf2,c
  2608                           
  2609                           ;FSM.c: 218:                     est->lectura_data=0;
  2610   001A58  EE20 F01A          	lfsr	2,26
  2611   001A5C  500A               	movf	lectura@est^0,w,c
  2612   001A5E  26D9               	addwf	fsr2l,f,c
  2613   001A60  500B               	movf	(lectura@est+1)^0,w,c
  2614   001A62  22DA               	addwfc	fsr2h,f,c
  2615   001A64  0E00               	movlw	0
  2616   001A66  6EDE               	movwf	postinc2,c
  2617   001A68  0E00               	movlw	0
  2618   001A6A  6EDD               	movwf	postdec2,c
  2619                           
  2620                           ;FSM.c: 219:                     est->instruccion[2]=1;
  2621   001A6C  EE20 F021          	lfsr	2,33
  2622   001A70  500A               	movf	lectura@est^0,w,c
  2623   001A72  26D9               	addwf	fsr2l,f,c
  2624   001A74  500B               	movf	(lectura@est+1)^0,w,c
  2625   001A76  22DA               	addwfc	fsr2h,f,c
  2626   001A78  0E01               	movlw	1
  2627   001A7A  6EDF               	movwf	indf2,c
  2628   001A7C                     
  2629                           ;FSM.c: 220:                     est->estados=8;
  2630   001A7C  0060  F02B  FFD9   	movff	lectura@est,fsr2l
  2631   001A82  0060  F02F  FFDA   	movff	lectura@est+1,fsr2h
  2632   001A88  0E08               	movlw	8
  2633   001A8A  6EDE               	movwf	postinc2,c
  2634   001A8C  0E00               	movlw	0
  2635   001A8E  6EDD               	movwf	postdec2,c
  2636   001A90  EF56  F011         	goto	l1055
  2637   001A94                     l4324:
  2638                           
  2639                           ;FSM.c: 227:                 est->estados=1;
  2640   001A94  0060  F02B  FFD9   	movff	lectura@est,fsr2l
  2641   001A9A  0060  F02F  FFDA   	movff	lectura@est+1,fsr2h
  2642   001AA0  0E01               	movlw	1
  2643   001AA2  6EDE               	movwf	postinc2,c
  2644   001AA4  0E00               	movlw	0
  2645   001AA6  6EDD               	movwf	postdec2,c
  2646   001AA8                     
  2647                           ;FSM.c: 228:                 est->lectura_data=0;
  2648   001AA8  EE20 F01A          	lfsr	2,26
  2649   001AAC  500A               	movf	lectura@est^0,w,c
  2650   001AAE  26D9               	addwf	fsr2l,f,c
  2651   001AB0  500B               	movf	(lectura@est+1)^0,w,c
  2652   001AB2  22DA               	addwfc	fsr2h,f,c
  2653   001AB4  0E00               	movlw	0
  2654   001AB6  6EDE               	movwf	postinc2,c
  2655   001AB8  0E00               	movlw	0
  2656   001ABA  6EDD               	movwf	postdec2,c
  2657   001ABC                     
  2658                           ;FSM.c: 229:                 est->contador=0;
  2659   001ABC  EE20 F01E          	lfsr	2,30
  2660   001AC0  500A               	movf	lectura@est^0,w,c
  2661   001AC2  26D9               	addwf	fsr2l,f,c
  2662   001AC4  500B               	movf	(lectura@est+1)^0,w,c
  2663   001AC6  22DA               	addwfc	fsr2h,f,c
  2664   001AC8  0E00               	movlw	0
  2665   001ACA  6EDF               	movwf	indf2,c
  2666   001ACC                     
  2667                           ;FSM.c: 230:                 est->flag=0;
  2668   001ACC  EE20 F01C          	lfsr	2,28
  2669   001AD0  500A               	movf	lectura@est^0,w,c
  2670   001AD2  26D9               	addwf	fsr2l,f,c
  2671   001AD4  500B               	movf	(lectura@est+1)^0,w,c
  2672   001AD6  22DA               	addwfc	fsr2h,f,c
  2673   001AD8  0E00               	movlw	0
  2674   001ADA  6EDF               	movwf	indf2,c
  2675   001ADC  EF56  F011         	goto	l1055
  2676   001AE0                     l4332:
  2677                           
  2678                           ;FSM.c: 235:             if(est->flag == 0){
  2679   001AE0  EE20 F01C          	lfsr	2,28
  2680   001AE4  500A               	movf	lectura@est^0,w,c
  2681   001AE6  26D9               	addwf	fsr2l,f,c
  2682   001AE8  500B               	movf	(lectura@est+1)^0,w,c
  2683   001AEA  22DA               	addwfc	fsr2h,f,c
  2684   001AEC  50DF               	movf	indf2,w,c
  2685   001AEE  A4D8               	btfss	status,2,c
  2686   001AF0  EF7C  F00D         	goto	u2501
  2687   001AF4  EF7E  F00D         	goto	u2500
  2688   001AF8                     u2501:
  2689   001AF8  EF31  F00E         	goto	l4346
  2690   001AFC                     u2500:
  2691   001AFC                     
  2692                           ;FSM.c: 236:                 if(est->lectura_add<3){
  2693   001AFC  EE20 F018          	lfsr	2,24
  2694   001B00  500A               	movf	lectura@est^0,w,c
  2695   001B02  26D9               	addwf	fsr2l,f,c
  2696   001B04  500B               	movf	(lectura@est+1)^0,w,c
  2697   001B06  22DA               	addwfc	fsr2h,f,c
  2698   001B08  0E01               	movlw	1
  2699   001B0A  BEDB               	btfsc	plusw2,7,c
  2700   001B0C  EF94  F00D         	goto	u2510
  2701   001B10  0E01               	movlw	1
  2702   001B12  50DB               	movf	plusw2,w,c
  2703   001B14  E107               	bnz	u2511
  2704   001B16  0E03               	movlw	3
  2705   001B18  5CDE               	subwf	postinc2,w,c
  2706   001B1A  B0D8               	btfsc	status,0,c
  2707   001B1C  EF92  F00D         	goto	u2511
  2708   001B20  EF94  F00D         	goto	u2510
  2709   001B24                     u2511:
  2710   001B24  EFCD  F00D         	goto	l4338
  2711   001B28                     u2510:
  2712   001B28                     
  2713                           ;FSM.c: 237:                     est->add[est->lectura_add]=lectura;
  2714   001B28  EE20 F018          	lfsr	2,24
  2715   001B2C  500A               	movf	lectura@est^0,w,c
  2716   001B2E  26D9               	addwf	fsr2l,f,c
  2717   001B30  500B               	movf	(lectura@est+1)^0,w,c
  2718   001B32  22DA               	addwfc	fsr2h,f,c
  2719   001B34  006F FF78  F00C    	movff	postinc2,??_lectura
  2720   001B3A  006F FF74  F00D    	movff	postdec2,??_lectura+1
  2721   001B40  500C               	movf	??_lectura^0,w,c
  2722   001B42  240A               	addwf	lectura@est^0,w,c
  2723   001B44  6E0E               	movwf	(??_lectura+2)^0,c
  2724   001B46  500D               	movf	(??_lectura+1)^0,w,c
  2725   001B48  200B               	addwfc	(lectura@est+1)^0,w,c
  2726   001B4A  6E0F               	movwf	(??_lectura+3)^0,c
  2727   001B4C  0E02               	movlw	2
  2728   001B4E  240E               	addwf	(??_lectura+2)^0,w,c
  2729   001B50  6ED9               	movwf	fsr2l,c
  2730   001B52  0E00               	movlw	0
  2731   001B54  200F               	addwfc	(??_lectura+3)^0,w,c
  2732   001B56  6EDA               	movwf	fsr2h,c
  2733   001B58  0060  F047  FFDF   	movff	lectura@lectura,indf2
  2734                           
  2735                           ;FSM.c: 238:                     est->lectura_add=est->lectura_add+1;
  2736   001B5E  EE20 F018          	lfsr	2,24
  2737   001B62  500A               	movf	lectura@est^0,w,c
  2738   001B64  26D9               	addwf	fsr2l,f,c
  2739   001B66  500B               	movf	(lectura@est+1)^0,w,c
  2740   001B68  22DA               	addwfc	fsr2h,f,c
  2741   001B6A  006F FF78  F00C    	movff	postinc2,??_lectura
  2742   001B70  006F FF74  F00D    	movff	postdec2,??_lectura+1
  2743   001B76  0E01               	movlw	1
  2744   001B78  260C               	addwf	??_lectura^0,f,c
  2745   001B7A  0E00               	movlw	0
  2746   001B7C  220D               	addwfc	(??_lectura+1)^0,f,c
  2747   001B7E  EE20 F018          	lfsr	2,24
  2748   001B82  500A               	movf	lectura@est^0,w,c
  2749   001B84  26D9               	addwf	fsr2l,f,c
  2750   001B86  500B               	movf	(lectura@est+1)^0,w,c
  2751   001B88  22DA               	addwfc	fsr2h,f,c
  2752   001B8A  0060  F033  FFDE   	movff	??_lectura,postinc2
  2753   001B90  0060  F037  FFDD   	movff	??_lectura+1,postdec2
  2754                           
  2755                           ;FSM.c: 241:                 }
  2756   001B96  EF56  F011         	goto	l1055
  2757   001B9A                     l4338:
  2758   001B9A  EE20 F018          	lfsr	2,24
  2759   001B9E  500A               	movf	lectura@est^0,w,c
  2760   001BA0  26D9               	addwf	fsr2l,f,c
  2761   001BA2  500B               	movf	(lectura@est+1)^0,w,c
  2762   001BA4  22DA               	addwfc	fsr2h,f,c
  2763   001BA6  0E03               	movlw	3
  2764   001BA8  18DE               	xorwf	postinc2,w,c
  2765   001BAA  10DE               	iorwf	postinc2,w,c
  2766   001BAC  A4D8               	btfss	status,2,c
  2767   001BAE  EFDB  F00D         	goto	u2521
  2768   001BB2  EFDD  F00D         	goto	u2520
  2769   001BB6                     u2521:
  2770   001BB6  EF1E  F00E         	goto	l4342
  2771   001BBA                     u2520:
  2772   001BBA                     
  2773                           ;FSM.c: 244:                     est->add[est->lectura_add]=lectura;
  2774   001BBA  EE20 F018          	lfsr	2,24
  2775   001BBE  500A               	movf	lectura@est^0,w,c
  2776   001BC0  26D9               	addwf	fsr2l,f,c
  2777   001BC2  500B               	movf	(lectura@est+1)^0,w,c
  2778   001BC4  22DA               	addwfc	fsr2h,f,c
  2779   001BC6  006F FF78  F00C    	movff	postinc2,??_lectura
  2780   001BCC  006F FF74  F00D    	movff	postdec2,??_lectura+1
  2781   001BD2  500C               	movf	??_lectura^0,w,c
  2782   001BD4  240A               	addwf	lectura@est^0,w,c
  2783   001BD6  6E0E               	movwf	(??_lectura+2)^0,c
  2784   001BD8  500D               	movf	(??_lectura+1)^0,w,c
  2785   001BDA  200B               	addwfc	(lectura@est+1)^0,w,c
  2786   001BDC  6E0F               	movwf	(??_lectura+3)^0,c
  2787   001BDE  0E02               	movlw	2
  2788   001BE0  240E               	addwf	(??_lectura+2)^0,w,c
  2789   001BE2  6ED9               	movwf	fsr2l,c
  2790   001BE4  0E00               	movlw	0
  2791   001BE6  200F               	addwfc	(??_lectura+3)^0,w,c
  2792   001BE8  6EDA               	movwf	fsr2h,c
  2793   001BEA  0060  F047  FFDF   	movff	lectura@lectura,indf2
  2794                           
  2795                           ;FSM.c: 245:                     est->lectura_add=est->lectura_add+1;
  2796   001BF0  EE20 F018          	lfsr	2,24
  2797   001BF4  500A               	movf	lectura@est^0,w,c
  2798   001BF6  26D9               	addwf	fsr2l,f,c
  2799   001BF8  500B               	movf	(lectura@est+1)^0,w,c
  2800   001BFA  22DA               	addwfc	fsr2h,f,c
  2801   001BFC  006F FF78  F00C    	movff	postinc2,??_lectura
  2802   001C02  006F FF74  F00D    	movff	postdec2,??_lectura+1
  2803   001C08  0E01               	movlw	1
  2804   001C0A  260C               	addwf	??_lectura^0,f,c
  2805   001C0C  0E00               	movlw	0
  2806   001C0E  220D               	addwfc	(??_lectura+1)^0,f,c
  2807   001C10  EE20 F018          	lfsr	2,24
  2808   001C14  500A               	movf	lectura@est^0,w,c
  2809   001C16  26D9               	addwf	fsr2l,f,c
  2810   001C18  500B               	movf	(lectura@est+1)^0,w,c
  2811   001C1A  22DA               	addwfc	fsr2h,f,c
  2812   001C1C  0060  F033  FFDE   	movff	??_lectura,postinc2
  2813   001C22  0060  F037  FFDD   	movff	??_lectura+1,postdec2
  2814                           
  2815                           ;FSM.c: 247:                     est->instruccion[0]=1;
  2816   001C28  EE20 F01F          	lfsr	2,31
  2817   001C2C  500A               	movf	lectura@est^0,w,c
  2818   001C2E  26D9               	addwf	fsr2l,f,c
  2819   001C30  500B               	movf	(lectura@est+1)^0,w,c
  2820   001C32  22DA               	addwfc	fsr2h,f,c
  2821   001C34  0E01               	movlw	1
  2822   001C36  6EDF               	movwf	indf2,c
  2823                           
  2824                           ;FSM.c: 248:                 }
  2825   001C38  EF56  F011         	goto	l1055
  2826   001C3C                     l4342:
  2827   001C3C  0E2C               	movlw	44
  2828   001C3E  1811               	xorwf	lectura@lectura^0,w,c
  2829   001C40  A4D8               	btfss	status,2,c
  2830   001C42  EF25  F00E         	goto	u2531
  2831   001C46  EF27  F00E         	goto	u2530
  2832   001C4A                     u2531:
  2833   001C4A  EFA2  F008         	goto	l958
  2834   001C4E                     u2530:
  2835   001C4E                     
  2836                           ;FSM.c: 252:                     est->flag=1;
  2837   001C4E  EE20 F01C          	lfsr	2,28
  2838   001C52  500A               	movf	lectura@est^0,w,c
  2839   001C54  26D9               	addwf	fsr2l,f,c
  2840   001C56  500B               	movf	(lectura@est+1)^0,w,c
  2841   001C58  22DA               	addwfc	fsr2h,f,c
  2842   001C5A  0E01               	movlw	1
  2843   001C5C  6EDF               	movwf	indf2,c
  2844   001C5E  EF56  F011         	goto	l1055
  2845   001C62                     l4346:
  2846   001C62  EE20 F01C          	lfsr	2,28
  2847   001C66  500A               	movf	lectura@est^0,w,c
  2848   001C68  26D9               	addwf	fsr2l,f,c
  2849   001C6A  500B               	movf	(lectura@est+1)^0,w,c
  2850   001C6C  22DA               	addwfc	fsr2h,f,c
  2851   001C6E  04DE               	decf	postinc2,w,c
  2852   001C70  A4D8               	btfss	status,2,c
  2853   001C72  EF3D  F00E         	goto	u2541
  2854   001C76  EF3F  F00E         	goto	u2540
  2855   001C7A                     u2541:
  2856   001C7A  EFDB  F010         	goto	l4432
  2857   001C7E                     u2540:
  2858   001C7E                     
  2859                           ;FSM.c: 256:                 if(est->lectura_data<15){
  2860   001C7E  EE20 F01A          	lfsr	2,26
  2861   001C82  500A               	movf	lectura@est^0,w,c
  2862   001C84  26D9               	addwf	fsr2l,f,c
  2863   001C86  500B               	movf	(lectura@est+1)^0,w,c
  2864   001C88  22DA               	addwfc	fsr2h,f,c
  2865   001C8A  0E01               	movlw	1
  2866   001C8C  BEDB               	btfsc	plusw2,7,c
  2867   001C8E  EF55  F00E         	goto	u2550
  2868   001C92  0E01               	movlw	1
  2869   001C94  50DB               	movf	plusw2,w,c
  2870   001C96  E107               	bnz	u2551
  2871   001C98  0E0F               	movlw	15
  2872   001C9A  5CDE               	subwf	postinc2,w,c
  2873   001C9C  B0D8               	btfsc	status,0,c
  2874   001C9E  EF53  F00E         	goto	u2551
  2875   001CA2  EF55  F00E         	goto	u2550
  2876   001CA6                     u2551:
  2877   001CA6  EF88  F00F         	goto	l4390
  2878   001CAA                     u2550:
  2879   001CAA                     
  2880                           ;FSM.c: 257:                     if(est->contador==0){
  2881   001CAA  EE20 F01E          	lfsr	2,30
  2882   001CAE  500A               	movf	lectura@est^0,w,c
  2883   001CB0  26D9               	addwf	fsr2l,f,c
  2884   001CB2  500B               	movf	(lectura@est+1)^0,w,c
  2885   001CB4  22DA               	addwfc	fsr2h,f,c
  2886   001CB6  50DF               	movf	indf2,w,c
  2887   001CB8  A4D8               	btfss	status,2,c
  2888   001CBA  EF61  F00E         	goto	u2561
  2889   001CBE  EF63  F00E         	goto	u2560
  2890   001CC2                     u2561:
  2891   001CC2  EFBF  F00E         	goto	l4362
  2892   001CC6                     u2560:
  2893   001CC6                     
  2894                           ;FSM.c: 258:                         if(lectura<=57){
  2895   001CC6  0E3A               	movlw	58
  2896   001CC8  6011               	cpfslt	lectura@lectura^0,c
  2897   001CCA  EF69  F00E         	goto	u2571
  2898   001CCE  EF6B  F00E         	goto	u2570
  2899   001CD2                     u2571:
  2900   001CD2  EF88  F00E         	goto	l4356
  2901   001CD6                     u2570:
  2902   001CD6                     
  2903                           ;FSM.c: 259:                             est->ws_data[est->lectura_data]=16*(lectura-48)
      +                          ;
  2904   001CD6  EE20 F01A          	lfsr	2,26
  2905   001CDA  500A               	movf	lectura@est^0,w,c
  2906   001CDC  26D9               	addwf	fsr2l,f,c
  2907   001CDE  500B               	movf	(lectura@est+1)^0,w,c
  2908   001CE0  22DA               	addwfc	fsr2h,f,c
  2909   001CE2  006F FF78  F00C    	movff	postinc2,??_lectura
  2910   001CE8  006F FF74  F00D    	movff	postdec2,??_lectura+1
  2911   001CEE  500C               	movf	??_lectura^0,w,c
  2912   001CF0  240A               	addwf	lectura@est^0,w,c
  2913   001CF2  6E0E               	movwf	(??_lectura+2)^0,c
  2914   001CF4  500D               	movf	(??_lectura+1)^0,w,c
  2915   001CF6  200B               	addwfc	(lectura@est+1)^0,w,c
  2916   001CF8  6E0F               	movwf	(??_lectura+3)^0,c
  2917   001CFA  0E08               	movlw	8
  2918   001CFC  240E               	addwf	(??_lectura+2)^0,w,c
  2919   001CFE  6ED9               	movwf	fsr2l,c
  2920   001D00  0E00               	movlw	0
  2921   001D02  200F               	addwfc	(??_lectura+3)^0,w,c
  2922   001D04  6EDA               	movwf	fsr2h,c
  2923   001D06  3811               	swapf	lectura@lectura^0,w,c
  2924   001D08  0BF0               	andlw	240
  2925   001D0A  6EDF               	movwf	indf2,c
  2926                           
  2927                           ;FSM.c: 260:                         }
  2928   001D0C  EFAD  F00E         	goto	l4360
  2929   001D10                     l4356:
  2930   001D10  0E39               	movlw	57
  2931   001D12  6411               	cpfsgt	lectura@lectura^0,c
  2932   001D14  EF8E  F00E         	goto	u2581
  2933   001D18  EF90  F00E         	goto	u2580
  2934   001D1C                     u2581:
  2935   001D1C  EFAD  F00E         	goto	l4360
  2936   001D20                     u2580:
  2937   001D20                     
  2938                           ;FSM.c: 262:                             est->ws_data[est->lectura_data]=16*(lectura-55)
      +                          ;
  2939   001D20  EE20 F01A          	lfsr	2,26
  2940   001D24  500A               	movf	lectura@est^0,w,c
  2941   001D26  26D9               	addwf	fsr2l,f,c
  2942   001D28  500B               	movf	(lectura@est+1)^0,w,c
  2943   001D2A  22DA               	addwfc	fsr2h,f,c
  2944   001D2C  006F FF78  F00C    	movff	postinc2,??_lectura
  2945   001D32  006F FF74  F00D    	movff	postdec2,??_lectura+1
  2946   001D38  500C               	movf	??_lectura^0,w,c
  2947   001D3A  240A               	addwf	lectura@est^0,w,c
  2948   001D3C  6E0E               	movwf	(??_lectura+2)^0,c
  2949   001D3E  500D               	movf	(??_lectura+1)^0,w,c
  2950   001D40  200B               	addwfc	(lectura@est+1)^0,w,c
  2951   001D42  6E0F               	movwf	(??_lectura+3)^0,c
  2952   001D44  0E08               	movlw	8
  2953   001D46  240E               	addwf	(??_lectura+2)^0,w,c
  2954   001D48  6ED9               	movwf	fsr2l,c
  2955   001D4A  0E00               	movlw	0
  2956   001D4C  200F               	addwfc	(??_lectura+3)^0,w,c
  2957   001D4E  6EDA               	movwf	fsr2h,c
  2958   001D50  5011               	movf	lectura@lectura^0,w,c
  2959   001D52  0D10               	mullw	16
  2960   001D54  50F3               	movf	243,w,c
  2961   001D56  0F90               	addlw	144
  2962   001D58  6EDF               	movwf	indf2,c
  2963   001D5A                     l4360:
  2964                           
  2965                           ;FSM.c: 264:                         est->contador=est->contador+1;
  2966   001D5A  EE20 F01E          	lfsr	2,30
  2967   001D5E  500A               	movf	lectura@est^0,w,c
  2968   001D60  26D9               	addwf	fsr2l,f,c
  2969   001D62  500B               	movf	(lectura@est+1)^0,w,c
  2970   001D64  22DA               	addwfc	fsr2h,f,c
  2971   001D66  EE10 F01E          	lfsr	1,30
  2972   001D6A  500A               	movf	lectura@est^0,w,c
  2973   001D6C  26E1               	addwf	fsr1l,f,c
  2974   001D6E  500B               	movf	(lectura@est+1)^0,w,c
  2975   001D70  22E2               	addwfc	fsr1h,f,c
  2976   001D72  50E7               	movf	indf1,w,c
  2977   001D74  6E0C               	movwf	??_lectura^0,c
  2978   001D76  280C               	incf	??_lectura^0,w,c
  2979   001D78  6EDF               	movwf	indf2,c
  2980                           
  2981                           ;FSM.c: 266:                     }
  2982   001D7A  EF56  F011         	goto	l1055
  2983   001D7E                     l4362:
  2984   001D7E  EE20 F01E          	lfsr	2,30
  2985   001D82  500A               	movf	lectura@est^0,w,c
  2986   001D84  26D9               	addwf	fsr2l,f,c
  2987   001D86  500B               	movf	(lectura@est+1)^0,w,c
  2988   001D88  22DA               	addwfc	fsr2h,f,c
  2989   001D8A  04DE               	decf	postinc2,w,c
  2990   001D8C  A4D8               	btfss	status,2,c
  2991   001D8E  EFCB  F00E         	goto	u2591
  2992   001D92  EFCD  F00E         	goto	u2590
  2993   001D96                     u2591:
  2994   001D96  EF2D  F00F         	goto	l4374
  2995   001D9A                     u2590:
  2996   001D9A                     
  2997                           ;FSM.c: 268:                         if(lectura<=57){
  2998   001D9A  0E3A               	movlw	58
  2999   001D9C  6011               	cpfslt	lectura@lectura^0,c
  3000   001D9E  EFD3  F00E         	goto	u2601
  3001   001DA2  EFD5  F00E         	goto	u2600
  3002   001DA6                     u2601:
  3003   001DA6  EFF5  F00E         	goto	l4368
  3004   001DAA                     u2600:
  3005   001DAA                     
  3006                           ;FSM.c: 269:                             est->ws_data[est->lectura_data]+=(lectura-48);
  3007   001DAA  C011  F00C         	movff	lectura@lectura,??_lectura
  3008   001DAE  0ED0               	movlw	208
  3009   001DB0  260C               	addwf	??_lectura^0,f,c
  3010   001DB2  EE20 F01A          	lfsr	2,26
  3011   001DB6  500A               	movf	lectura@est^0,w,c
  3012   001DB8  26D9               	addwf	fsr2l,f,c
  3013   001DBA  500B               	movf	(lectura@est+1)^0,w,c
  3014   001DBC  22DA               	addwfc	fsr2h,f,c
  3015   001DBE  006F FF78  F00D    	movff	postinc2,??_lectura+1
  3016   001DC4  006F FF74  F00E    	movff	postdec2,??_lectura+2
  3017   001DCA  500D               	movf	(??_lectura+1)^0,w,c
  3018   001DCC  240A               	addwf	lectura@est^0,w,c
  3019   001DCE  6E0F               	movwf	(??_lectura+3)^0,c
  3020   001DD0  500E               	movf	(??_lectura+2)^0,w,c
  3021   001DD2  200B               	addwfc	(lectura@est+1)^0,w,c
  3022   001DD4  6E10               	movwf	(??_lectura+4)^0,c
  3023   001DD6  0E08               	movlw	8
  3024   001DD8  240F               	addwf	(??_lectura+3)^0,w,c
  3025   001DDA  6ED9               	movwf	fsr2l,c
  3026   001DDC  0E00               	movlw	0
  3027   001DDE  2010               	addwfc	(??_lectura+4)^0,w,c
  3028   001DE0  6EDA               	movwf	fsr2h,c
  3029   001DE2  500C               	movf	??_lectura^0,w,c
  3030   001DE4  26DF               	addwf	indf2,f,c
  3031                           
  3032                           ;FSM.c: 270:                         }
  3033   001DE6  EF1B  F00F         	goto	l4372
  3034   001DEA                     l4368:
  3035   001DEA  0E39               	movlw	57
  3036   001DEC  6411               	cpfsgt	lectura@lectura^0,c
  3037   001DEE  EFFB  F00E         	goto	u2611
  3038   001DF2  EFFD  F00E         	goto	u2610
  3039   001DF6                     u2611:
  3040   001DF6  EF1B  F00F         	goto	l4372
  3041   001DFA                     u2610:
  3042   001DFA                     
  3043                           ;FSM.c: 272:                             est->ws_data[est->lectura_data]+=(lectura-55);
  3044   001DFA  C011  F00C         	movff	lectura@lectura,??_lectura
  3045   001DFE  0EC9               	movlw	201
  3046   001E00  260C               	addwf	??_lectura^0,f,c
  3047   001E02  EE20 F01A          	lfsr	2,26
  3048   001E06  500A               	movf	lectura@est^0,w,c
  3049   001E08  26D9               	addwf	fsr2l,f,c
  3050   001E0A  500B               	movf	(lectura@est+1)^0,w,c
  3051   001E0C  22DA               	addwfc	fsr2h,f,c
  3052   001E0E  006F FF78  F00D    	movff	postinc2,??_lectura+1
  3053   001E14  006F FF74  F00E    	movff	postdec2,??_lectura+2
  3054   001E1A  500D               	movf	(??_lectura+1)^0,w,c
  3055   001E1C  240A               	addwf	lectura@est^0,w,c
  3056   001E1E  6E0F               	movwf	(??_lectura+3)^0,c
  3057   001E20  500E               	movf	(??_lectura+2)^0,w,c
  3058   001E22  200B               	addwfc	(lectura@est+1)^0,w,c
  3059   001E24  6E10               	movwf	(??_lectura+4)^0,c
  3060   001E26  0E08               	movlw	8
  3061   001E28  240F               	addwf	(??_lectura+3)^0,w,c
  3062   001E2A  6ED9               	movwf	fsr2l,c
  3063   001E2C  0E00               	movlw	0
  3064   001E2E  2010               	addwfc	(??_lectura+4)^0,w,c
  3065   001E30  6EDA               	movwf	fsr2h,c
  3066   001E32  500C               	movf	??_lectura^0,w,c
  3067   001E34  26DF               	addwf	indf2,f,c
  3068   001E36                     l4372:
  3069                           
  3070                           ;FSM.c: 274:                         est->contador=est->contador+1;
  3071   001E36  EE20 F01E          	lfsr	2,30
  3072   001E3A  500A               	movf	lectura@est^0,w,c
  3073   001E3C  26D9               	addwf	fsr2l,f,c
  3074   001E3E  500B               	movf	(lectura@est+1)^0,w,c
  3075   001E40  22DA               	addwfc	fsr2h,f,c
  3076   001E42  EE10 F01E          	lfsr	1,30
  3077   001E46  500A               	movf	lectura@est^0,w,c
  3078   001E48  26E1               	addwf	fsr1l,f,c
  3079   001E4A  500B               	movf	(lectura@est+1)^0,w,c
  3080   001E4C  22E2               	addwfc	fsr1h,f,c
  3081   001E4E  50E7               	movf	indf1,w,c
  3082   001E50  6E0C               	movwf	??_lectura^0,c
  3083   001E52  280C               	incf	??_lectura^0,w,c
  3084   001E54  6EDF               	movwf	indf2,c
  3085                           
  3086                           ;FSM.c: 277:                     }
  3087   001E56  EF56  F011         	goto	l1055
  3088   001E5A                     l4374:
  3089   001E5A  EE20 F01E          	lfsr	2,30
  3090   001E5E  500A               	movf	lectura@est^0,w,c
  3091   001E60  26D9               	addwf	fsr2l,f,c
  3092   001E62  500B               	movf	(lectura@est+1)^0,w,c
  3093   001E64  22DA               	addwfc	fsr2h,f,c
  3094   001E66  0E02               	movlw	2
  3095   001E68  18DE               	xorwf	postinc2,w,c
  3096   001E6A  A4D8               	btfss	status,2,c
  3097   001E6C  EF3A  F00F         	goto	u2621
  3098   001E70  EF3C  F00F         	goto	u2620
  3099   001E74                     u2621:
  3100   001E74  EF56  F011         	goto	l1055
  3101   001E78                     u2620:
  3102   001E78                     
  3103                           ;FSM.c: 279:                         if(lectura==','){
  3104   001E78  0E2C               	movlw	44
  3105   001E7A  1811               	xorwf	lectura@lectura^0,w,c
  3106   001E7C  A4D8               	btfss	status,2,c
  3107   001E7E  EF43  F00F         	goto	u2631
  3108   001E82  EF45  F00F         	goto	u2630
  3109   001E86                     u2631:
  3110   001E86  EF58  F00F         	goto	l4380
  3111   001E8A                     u2630:
  3112   001E8A                     
  3113                           ;FSM.c: 281:                             est->contador=0;
  3114   001E8A  EE20 F01E          	lfsr	2,30
  3115   001E8E  500A               	movf	lectura@est^0,w,c
  3116   001E90  26D9               	addwf	fsr2l,f,c
  3117   001E92  500B               	movf	(lectura@est+1)^0,w,c
  3118   001E94  22DA               	addwfc	fsr2h,f,c
  3119   001E96  0E00               	movlw	0
  3120   001E98  6EDF               	movwf	indf2,c
  3121                           
  3122                           ;FSM.c: 282:                             est->lectura_data++;
  3123   001E9A  EE20 F01A          	lfsr	2,26
  3124   001E9E  500A               	movf	lectura@est^0,w,c
  3125   001EA0  26D9               	addwf	fsr2l,f,c
  3126   001EA2  500B               	movf	(lectura@est+1)^0,w,c
  3127   001EA4  22DA               	addwfc	fsr2h,f,c
  3128   001EA6  2ADE               	incf	postinc2,f,c
  3129   001EA8  0E00               	movlw	0
  3130   001EAA  22DD               	addwfc	postdec2,f,c
  3131                           
  3132                           ;FSM.c: 283:                         }
  3133   001EAC  EF56  F011         	goto	l1055
  3134   001EB0                     l4380:
  3135                           
  3136                           ;FSM.c: 288:                             est->estados=1;
  3137   001EB0  0060  F02B  FFD9   	movff	lectura@est,fsr2l
  3138   001EB6  0060  F02F  FFDA   	movff	lectura@est+1,fsr2h
  3139   001EBC  0E01               	movlw	1
  3140   001EBE  6EDE               	movwf	postinc2,c
  3141   001EC0  0E00               	movlw	0
  3142   001EC2  6EDD               	movwf	postdec2,c
  3143   001EC4                     
  3144                           ;FSM.c: 289:                             est->lectura_data=0;
  3145   001EC4  EE20 F01A          	lfsr	2,26
  3146   001EC8  500A               	movf	lectura@est^0,w,c
  3147   001ECA  26D9               	addwf	fsr2l,f,c
  3148   001ECC  500B               	movf	(lectura@est+1)^0,w,c
  3149   001ECE  22DA               	addwfc	fsr2h,f,c
  3150   001ED0  0E00               	movlw	0
  3151   001ED2  6EDE               	movwf	postinc2,c
  3152   001ED4  0E00               	movlw	0
  3153   001ED6  6EDD               	movwf	postdec2,c
  3154   001ED8                     
  3155                           ;FSM.c: 290:                             est->contador=0;
  3156   001ED8  EE20 F01E          	lfsr	2,30
  3157   001EDC  500A               	movf	lectura@est^0,w,c
  3158   001EDE  26D9               	addwf	fsr2l,f,c
  3159   001EE0  500B               	movf	(lectura@est+1)^0,w,c
  3160   001EE2  22DA               	addwfc	fsr2h,f,c
  3161   001EE4  0E00               	movlw	0
  3162   001EE6  6EDF               	movwf	indf2,c
  3163   001EE8                     
  3164                           ;FSM.c: 291:                             est->lectura_data=0;
  3165   001EE8  EE20 F01A          	lfsr	2,26
  3166   001EEC  500A               	movf	lectura@est^0,w,c
  3167   001EEE  26D9               	addwf	fsr2l,f,c
  3168   001EF0  500B               	movf	(lectura@est+1)^0,w,c
  3169   001EF2  22DA               	addwfc	fsr2h,f,c
  3170   001EF4  0E00               	movlw	0
  3171   001EF6  6EDE               	movwf	postinc2,c
  3172   001EF8  0E00               	movlw	0
  3173   001EFA  6EDD               	movwf	postdec2,c
  3174   001EFC                     
  3175                           ;FSM.c: 292:                             est->flag=0;
  3176   001EFC  EE20 F01C          	lfsr	2,28
  3177   001F00  500A               	movf	lectura@est^0,w,c
  3178   001F02  26D9               	addwf	fsr2l,f,c
  3179   001F04  500B               	movf	(lectura@est+1)^0,w,c
  3180   001F06  22DA               	addwfc	fsr2h,f,c
  3181   001F08  0E00               	movlw	0
  3182   001F0A  6EDF               	movwf	indf2,c
  3183   001F0C  EF56  F011         	goto	l1055
  3184   001F10                     l4390:
  3185   001F10  EE20 F01A          	lfsr	2,26
  3186   001F14  500A               	movf	lectura@est^0,w,c
  3187   001F16  26D9               	addwf	fsr2l,f,c
  3188   001F18  500B               	movf	(lectura@est+1)^0,w,c
  3189   001F1A  22DA               	addwfc	fsr2h,f,c
  3190   001F1C  0E01               	movlw	1
  3191   001F1E  BEDB               	btfsc	plusw2,7,c
  3192   001F20  EF9C  F00F         	goto	u2641
  3193   001F24  0E01               	movlw	1
  3194   001F26  50DB               	movf	plusw2,w,c
  3195   001F28  E109               	bnz	u2640
  3196   001F2A  0E0F               	movlw	15
  3197   001F2C  5CDE               	subwf	postinc2,w,c
  3198   001F2E  A0D8               	btfss	status,0,c
  3199   001F30  EF9C  F00F         	goto	u2641
  3200   001F34  EF9E  F00F         	goto	u2640
  3201   001F38                     u2641:
  3202   001F38  EF56  F011         	goto	l1055
  3203   001F3C                     u2640:
  3204   001F3C                     
  3205                           ;FSM.c: 297:                     if(est->contador==0){
  3206   001F3C  EE20 F01E          	lfsr	2,30
  3207   001F40  500A               	movf	lectura@est^0,w,c
  3208   001F42  26D9               	addwf	fsr2l,f,c
  3209   001F44  500B               	movf	(lectura@est+1)^0,w,c
  3210   001F46  22DA               	addwfc	fsr2h,f,c
  3211   001F48  50DF               	movf	indf2,w,c
  3212   001F4A  A4D8               	btfss	status,2,c
  3213   001F4C  EFAA  F00F         	goto	u2651
  3214   001F50  EFAC  F00F         	goto	u2650
  3215   001F54                     u2651:
  3216   001F54  EF08  F010         	goto	l4404
  3217   001F58                     u2650:
  3218   001F58                     
  3219                           ;FSM.c: 298:                         if(lectura<=57){
  3220   001F58  0E3A               	movlw	58
  3221   001F5A  6011               	cpfslt	lectura@lectura^0,c
  3222   001F5C  EFB2  F00F         	goto	u2661
  3223   001F60  EFB4  F00F         	goto	u2660
  3224   001F64                     u2661:
  3225   001F64  EFD1  F00F         	goto	l4398
  3226   001F68                     u2660:
  3227   001F68                     
  3228                           ;FSM.c: 299:                             est->ws_data[est->lectura_data]=16*(lectura-48)
      +                          ;
  3229   001F68  EE20 F01A          	lfsr	2,26
  3230   001F6C  500A               	movf	lectura@est^0,w,c
  3231   001F6E  26D9               	addwf	fsr2l,f,c
  3232   001F70  500B               	movf	(lectura@est+1)^0,w,c
  3233   001F72  22DA               	addwfc	fsr2h,f,c
  3234   001F74  006F FF78  F00C    	movff	postinc2,??_lectura
  3235   001F7A  006F FF74  F00D    	movff	postdec2,??_lectura+1
  3236   001F80  500C               	movf	??_lectura^0,w,c
  3237   001F82  240A               	addwf	lectura@est^0,w,c
  3238   001F84  6E0E               	movwf	(??_lectura+2)^0,c
  3239   001F86  500D               	movf	(??_lectura+1)^0,w,c
  3240   001F88  200B               	addwfc	(lectura@est+1)^0,w,c
  3241   001F8A  6E0F               	movwf	(??_lectura+3)^0,c
  3242   001F8C  0E08               	movlw	8
  3243   001F8E  240E               	addwf	(??_lectura+2)^0,w,c
  3244   001F90  6ED9               	movwf	fsr2l,c
  3245   001F92  0E00               	movlw	0
  3246   001F94  200F               	addwfc	(??_lectura+3)^0,w,c
  3247   001F96  6EDA               	movwf	fsr2h,c
  3248   001F98  3811               	swapf	lectura@lectura^0,w,c
  3249   001F9A  0BF0               	andlw	240
  3250   001F9C  6EDF               	movwf	indf2,c
  3251                           
  3252                           ;FSM.c: 300:                         }
  3253   001F9E  EFF6  F00F         	goto	l4402
  3254   001FA2                     l4398:
  3255   001FA2  0E39               	movlw	57
  3256   001FA4  6411               	cpfsgt	lectura@lectura^0,c
  3257   001FA6  EFD7  F00F         	goto	u2671
  3258   001FAA  EFD9  F00F         	goto	u2670
  3259   001FAE                     u2671:
  3260   001FAE  EFF6  F00F         	goto	l4402
  3261   001FB2                     u2670:
  3262   001FB2                     
  3263                           ;FSM.c: 302:                             est->ws_data[est->lectura_data]=16*(lectura-55)
      +                          ;
  3264   001FB2  EE20 F01A          	lfsr	2,26
  3265   001FB6  500A               	movf	lectura@est^0,w,c
  3266   001FB8  26D9               	addwf	fsr2l,f,c
  3267   001FBA  500B               	movf	(lectura@est+1)^0,w,c
  3268   001FBC  22DA               	addwfc	fsr2h,f,c
  3269   001FBE  006F FF78  F00C    	movff	postinc2,??_lectura
  3270   001FC4  006F FF74  F00D    	movff	postdec2,??_lectura+1
  3271   001FCA  500C               	movf	??_lectura^0,w,c
  3272   001FCC  240A               	addwf	lectura@est^0,w,c
  3273   001FCE  6E0E               	movwf	(??_lectura+2)^0,c
  3274   001FD0  500D               	movf	(??_lectura+1)^0,w,c
  3275   001FD2  200B               	addwfc	(lectura@est+1)^0,w,c
  3276   001FD4  6E0F               	movwf	(??_lectura+3)^0,c
  3277   001FD6  0E08               	movlw	8
  3278   001FD8  240E               	addwf	(??_lectura+2)^0,w,c
  3279   001FDA  6ED9               	movwf	fsr2l,c
  3280   001FDC  0E00               	movlw	0
  3281   001FDE  200F               	addwfc	(??_lectura+3)^0,w,c
  3282   001FE0  6EDA               	movwf	fsr2h,c
  3283   001FE2  5011               	movf	lectura@lectura^0,w,c
  3284   001FE4  0D10               	mullw	16
  3285   001FE6  50F3               	movf	243,w,c
  3286   001FE8  0F90               	addlw	144
  3287   001FEA  6EDF               	movwf	indf2,c
  3288   001FEC                     l4402:
  3289                           
  3290                           ;FSM.c: 304:                         est->contador=est->contador+1;
  3291   001FEC  EE20 F01E          	lfsr	2,30
  3292   001FF0  500A               	movf	lectura@est^0,w,c
  3293   001FF2  26D9               	addwf	fsr2l,f,c
  3294   001FF4  500B               	movf	(lectura@est+1)^0,w,c
  3295   001FF6  22DA               	addwfc	fsr2h,f,c
  3296   001FF8  EE10 F01E          	lfsr	1,30
  3297   001FFC  500A               	movf	lectura@est^0,w,c
  3298   001FFE  26E1               	addwf	fsr1l,f,c
  3299   002000  500B               	movf	(lectura@est+1)^0,w,c
  3300   002002  22E2               	addwfc	fsr1h,f,c
  3301   002004  50E7               	movf	indf1,w,c
  3302   002006  6E0C               	movwf	??_lectura^0,c
  3303   002008  280C               	incf	??_lectura^0,w,c
  3304   00200A  6EDF               	movwf	indf2,c
  3305                           
  3306                           ;FSM.c: 306:                     }
  3307   00200C  EF56  F011         	goto	l1055
  3308   002010                     l4404:
  3309   002010  EE20 F01E          	lfsr	2,30
  3310   002014  500A               	movf	lectura@est^0,w,c
  3311   002016  26D9               	addwf	fsr2l,f,c
  3312   002018  500B               	movf	(lectura@est+1)^0,w,c
  3313   00201A  22DA               	addwfc	fsr2h,f,c
  3314   00201C  04DE               	decf	postinc2,w,c
  3315   00201E  A4D8               	btfss	status,2,c
  3316   002020  EF14  F010         	goto	u2681
  3317   002024  EF16  F010         	goto	u2680
  3318   002028                     u2681:
  3319   002028  EF76  F010         	goto	l4416
  3320   00202C                     u2680:
  3321   00202C                     
  3322                           ;FSM.c: 308:                         if(lectura<=57){
  3323   00202C  0E3A               	movlw	58
  3324   00202E  6011               	cpfslt	lectura@lectura^0,c
  3325   002030  EF1C  F010         	goto	u2691
  3326   002034  EF1E  F010         	goto	u2690
  3327   002038                     u2691:
  3328   002038  EF3E  F010         	goto	l4410
  3329   00203C                     u2690:
  3330   00203C                     
  3331                           ;FSM.c: 309:                             est->ws_data[est->lectura_data]+=(lectura-48);
  3332   00203C  C011  F00C         	movff	lectura@lectura,??_lectura
  3333   002040  0ED0               	movlw	208
  3334   002042  260C               	addwf	??_lectura^0,f,c
  3335   002044  EE20 F01A          	lfsr	2,26
  3336   002048  500A               	movf	lectura@est^0,w,c
  3337   00204A  26D9               	addwf	fsr2l,f,c
  3338   00204C  500B               	movf	(lectura@est+1)^0,w,c
  3339   00204E  22DA               	addwfc	fsr2h,f,c
  3340   002050  006F FF78  F00D    	movff	postinc2,??_lectura+1
  3341   002056  006F FF74  F00E    	movff	postdec2,??_lectura+2
  3342   00205C  500D               	movf	(??_lectura+1)^0,w,c
  3343   00205E  240A               	addwf	lectura@est^0,w,c
  3344   002060  6E0F               	movwf	(??_lectura+3)^0,c
  3345   002062  500E               	movf	(??_lectura+2)^0,w,c
  3346   002064  200B               	addwfc	(lectura@est+1)^0,w,c
  3347   002066  6E10               	movwf	(??_lectura+4)^0,c
  3348   002068  0E08               	movlw	8
  3349   00206A  240F               	addwf	(??_lectura+3)^0,w,c
  3350   00206C  6ED9               	movwf	fsr2l,c
  3351   00206E  0E00               	movlw	0
  3352   002070  2010               	addwfc	(??_lectura+4)^0,w,c
  3353   002072  6EDA               	movwf	fsr2h,c
  3354   002074  500C               	movf	??_lectura^0,w,c
  3355   002076  26DF               	addwf	indf2,f,c
  3356                           
  3357                           ;FSM.c: 310:                         }
  3358   002078  EF64  F010         	goto	l4414
  3359   00207C                     l4410:
  3360   00207C  0E39               	movlw	57
  3361   00207E  6411               	cpfsgt	lectura@lectura^0,c
  3362   002080  EF44  F010         	goto	u2701
  3363   002084  EF46  F010         	goto	u2700
  3364   002088                     u2701:
  3365   002088  EF64  F010         	goto	l4414
  3366   00208C                     u2700:
  3367   00208C                     
  3368                           ;FSM.c: 312:                             est->ws_data[est->lectura_data]+=(lectura-55);
  3369   00208C  C011  F00C         	movff	lectura@lectura,??_lectura
  3370   002090  0EC9               	movlw	201
  3371   002092  260C               	addwf	??_lectura^0,f,c
  3372   002094  EE20 F01A          	lfsr	2,26
  3373   002098  500A               	movf	lectura@est^0,w,c
  3374   00209A  26D9               	addwf	fsr2l,f,c
  3375   00209C  500B               	movf	(lectura@est+1)^0,w,c
  3376   00209E  22DA               	addwfc	fsr2h,f,c
  3377   0020A0  006F FF78  F00D    	movff	postinc2,??_lectura+1
  3378   0020A6  006F FF74  F00E    	movff	postdec2,??_lectura+2
  3379   0020AC  500D               	movf	(??_lectura+1)^0,w,c
  3380   0020AE  240A               	addwf	lectura@est^0,w,c
  3381   0020B0  6E0F               	movwf	(??_lectura+3)^0,c
  3382   0020B2  500E               	movf	(??_lectura+2)^0,w,c
  3383   0020B4  200B               	addwfc	(lectura@est+1)^0,w,c
  3384   0020B6  6E10               	movwf	(??_lectura+4)^0,c
  3385   0020B8  0E08               	movlw	8
  3386   0020BA  240F               	addwf	(??_lectura+3)^0,w,c
  3387   0020BC  6ED9               	movwf	fsr2l,c
  3388   0020BE  0E00               	movlw	0
  3389   0020C0  2010               	addwfc	(??_lectura+4)^0,w,c
  3390   0020C2  6EDA               	movwf	fsr2h,c
  3391   0020C4  500C               	movf	??_lectura^0,w,c
  3392   0020C6  26DF               	addwf	indf2,f,c
  3393   0020C8                     l4414:
  3394                           
  3395                           ;FSM.c: 314:                         est->contador=est->contador+1;
  3396   0020C8  EE20 F01E          	lfsr	2,30
  3397   0020CC  500A               	movf	lectura@est^0,w,c
  3398   0020CE  26D9               	addwf	fsr2l,f,c
  3399   0020D0  500B               	movf	(lectura@est+1)^0,w,c
  3400   0020D2  22DA               	addwfc	fsr2h,f,c
  3401   0020D4  EE10 F01E          	lfsr	1,30
  3402   0020D8  500A               	movf	lectura@est^0,w,c
  3403   0020DA  26E1               	addwf	fsr1l,f,c
  3404   0020DC  500B               	movf	(lectura@est+1)^0,w,c
  3405   0020DE  22E2               	addwfc	fsr1h,f,c
  3406   0020E0  50E7               	movf	indf1,w,c
  3407   0020E2  6E0C               	movwf	??_lectura^0,c
  3408   0020E4  280C               	incf	??_lectura^0,w,c
  3409   0020E6  6EDF               	movwf	indf2,c
  3410                           
  3411                           ;FSM.c: 317:                     }
  3412   0020E8  EF56  F011         	goto	l1055
  3413   0020EC                     l4416:
  3414   0020EC  EE20 F01E          	lfsr	2,30
  3415   0020F0  500A               	movf	lectura@est^0,w,c
  3416   0020F2  26D9               	addwf	fsr2l,f,c
  3417   0020F4  500B               	movf	(lectura@est+1)^0,w,c
  3418   0020F6  22DA               	addwfc	fsr2h,f,c
  3419   0020F8  0E02               	movlw	2
  3420   0020FA  18DE               	xorwf	postinc2,w,c
  3421   0020FC  A4D8               	btfss	status,2,c
  3422   0020FE  EF83  F010         	goto	u2711
  3423   002102  EF85  F010         	goto	u2710
  3424   002106                     u2711:
  3425   002106  EFAB  F010         	goto	l4422
  3426   00210A                     u2710:
  3427   00210A                     
  3428                           ;FSM.c: 319:                         est->lectura_data=0;
  3429   00210A  EE20 F01A          	lfsr	2,26
  3430   00210E  500A               	movf	lectura@est^0,w,c
  3431   002110  26D9               	addwf	fsr2l,f,c
  3432   002112  500B               	movf	(lectura@est+1)^0,w,c
  3433   002114  22DA               	addwfc	fsr2h,f,c
  3434   002116  0E00               	movlw	0
  3435   002118  6EDE               	movwf	postinc2,c
  3436   00211A  0E00               	movlw	0
  3437   00211C  6EDD               	movwf	postdec2,c
  3438                           
  3439                           ;FSM.c: 320:                         est->flag=0;
  3440   00211E  EE20 F01C          	lfsr	2,28
  3441   002122  500A               	movf	lectura@est^0,w,c
  3442   002124  26D9               	addwf	fsr2l,f,c
  3443   002126  500B               	movf	(lectura@est+1)^0,w,c
  3444   002128  22DA               	addwfc	fsr2h,f,c
  3445   00212A  0E00               	movlw	0
  3446   00212C  6EDF               	movwf	indf2,c
  3447                           
  3448                           ;FSM.c: 321:                         est->instruccion[3]=1;
  3449   00212E  EE20 F022          	lfsr	2,34
  3450   002132  500A               	movf	lectura@est^0,w,c
  3451   002134  26D9               	addwf	fsr2l,f,c
  3452   002136  500B               	movf	(lectura@est+1)^0,w,c
  3453   002138  22DA               	addwfc	fsr2h,f,c
  3454   00213A  0E01               	movlw	1
  3455   00213C  6EDF               	movwf	indf2,c
  3456   00213E                     
  3457                           ;FSM.c: 322:                         est->estados=8;
  3458   00213E  0060  F02B  FFD9   	movff	lectura@est,fsr2l
  3459   002144  0060  F02F  FFDA   	movff	lectura@est+1,fsr2h
  3460   00214A  0E08               	movlw	8
  3461   00214C  6EDE               	movwf	postinc2,c
  3462   00214E  0E00               	movlw	0
  3463   002150  6EDD               	movwf	postdec2,c
  3464                           
  3465                           ;FSM.c: 323:                     }
  3466   002152  EF56  F011         	goto	l1055
  3467   002156                     l4422:
  3468                           
  3469                           ;FSM.c: 328:                         est->estados=1;
  3470   002156  0060  F02B  FFD9   	movff	lectura@est,fsr2l
  3471   00215C  0060  F02F  FFDA   	movff	lectura@est+1,fsr2h
  3472   002162  0E01               	movlw	1
  3473   002164  6EDE               	movwf	postinc2,c
  3474   002166  0E00               	movlw	0
  3475   002168  6EDD               	movwf	postdec2,c
  3476   00216A                     
  3477                           ;FSM.c: 329:                         est->lectura_data=0;
  3478   00216A  EE20 F01A          	lfsr	2,26
  3479   00216E  500A               	movf	lectura@est^0,w,c
  3480   002170  26D9               	addwf	fsr2l,f,c
  3481   002172  500B               	movf	(lectura@est+1)^0,w,c
  3482   002174  22DA               	addwfc	fsr2h,f,c
  3483   002176  0E00               	movlw	0
  3484   002178  6EDE               	movwf	postinc2,c
  3485   00217A  0E00               	movlw	0
  3486   00217C  6EDD               	movwf	postdec2,c
  3487   00217E                     
  3488                           ;FSM.c: 330:                         est->contador=0;
  3489   00217E  EE20 F01E          	lfsr	2,30
  3490   002182  500A               	movf	lectura@est^0,w,c
  3491   002184  26D9               	addwf	fsr2l,f,c
  3492   002186  500B               	movf	(lectura@est+1)^0,w,c
  3493   002188  22DA               	addwfc	fsr2h,f,c
  3494   00218A  0E00               	movlw	0
  3495   00218C  6EDF               	movwf	indf2,c
  3496   00218E                     
  3497                           ;FSM.c: 331:                         est->lectura_data=0;
  3498   00218E  EE20 F01A          	lfsr	2,26
  3499   002192  500A               	movf	lectura@est^0,w,c
  3500   002194  26D9               	addwf	fsr2l,f,c
  3501   002196  500B               	movf	(lectura@est+1)^0,w,c
  3502   002198  22DA               	addwfc	fsr2h,f,c
  3503   00219A  0E00               	movlw	0
  3504   00219C  6EDE               	movwf	postinc2,c
  3505   00219E  0E00               	movlw	0
  3506   0021A0  6EDD               	movwf	postdec2,c
  3507   0021A2                     
  3508                           ;FSM.c: 332:                         est->flag=0;
  3509   0021A2  EE20 F01C          	lfsr	2,28
  3510   0021A6  500A               	movf	lectura@est^0,w,c
  3511   0021A8  26D9               	addwf	fsr2l,f,c
  3512   0021AA  500B               	movf	(lectura@est+1)^0,w,c
  3513   0021AC  22DA               	addwfc	fsr2h,f,c
  3514   0021AE  0E00               	movlw	0
  3515   0021B0  6EDF               	movwf	indf2,c
  3516   0021B2  EF56  F011         	goto	l1055
  3517   0021B6                     l4432:
  3518                           
  3519                           ;FSM.c: 340:                 est->estados=1;
  3520   0021B6  0060  F02B  FFD9   	movff	lectura@est,fsr2l
  3521   0021BC  0060  F02F  FFDA   	movff	lectura@est+1,fsr2h
  3522   0021C2  0E01               	movlw	1
  3523   0021C4  6EDE               	movwf	postinc2,c
  3524   0021C6  0E00               	movlw	0
  3525   0021C8  6EDD               	movwf	postdec2,c
  3526   0021CA                     
  3527                           ;FSM.c: 341:                 est->lectura_add=0;
  3528   0021CA  EE20 F018          	lfsr	2,24
  3529   0021CE  500A               	movf	lectura@est^0,w,c
  3530   0021D0  26D9               	addwf	fsr2l,f,c
  3531   0021D2  500B               	movf	(lectura@est+1)^0,w,c
  3532   0021D4  22DA               	addwfc	fsr2h,f,c
  3533   0021D6  0E00               	movlw	0
  3534   0021D8  6EDE               	movwf	postinc2,c
  3535   0021DA  0E00               	movlw	0
  3536   0021DC  6EDD               	movwf	postdec2,c
  3537   0021DE                     
  3538                           ;FSM.c: 342:                 est->lectura_data=0;
  3539   0021DE  EE20 F01A          	lfsr	2,26
  3540   0021E2  500A               	movf	lectura@est^0,w,c
  3541   0021E4  26D9               	addwf	fsr2l,f,c
  3542   0021E6  500B               	movf	(lectura@est+1)^0,w,c
  3543   0021E8  22DA               	addwfc	fsr2h,f,c
  3544   0021EA  0E00               	movlw	0
  3545   0021EC  6EDE               	movwf	postinc2,c
  3546   0021EE  0E00               	movlw	0
  3547   0021F0  6EDD               	movwf	postdec2,c
  3548   0021F2                     
  3549                           ;FSM.c: 343:                 est->contador=0;
  3550   0021F2  EE20 F01E          	lfsr	2,30
  3551   0021F6  500A               	movf	lectura@est^0,w,c
  3552   0021F8  26D9               	addwf	fsr2l,f,c
  3553   0021FA  500B               	movf	(lectura@est+1)^0,w,c
  3554   0021FC  22DA               	addwfc	fsr2h,f,c
  3555   0021FE  0E00               	movlw	0
  3556   002200  6EDF               	movwf	indf2,c
  3557   002202                     
  3558                           ;FSM.c: 344:                 est->flag=0;
  3559   002202  EE20 F01C          	lfsr	2,28
  3560   002206  500A               	movf	lectura@est^0,w,c
  3561   002208  26D9               	addwf	fsr2l,f,c
  3562   00220A  500B               	movf	(lectura@est+1)^0,w,c
  3563   00220C  22DA               	addwfc	fsr2h,f,c
  3564   00220E  0E00               	movlw	0
  3565   002210  6EDF               	movwf	indf2,c
  3566   002212  EF56  F011         	goto	l1055
  3567   002216                     l4442:
  3568                           
  3569                           ;FSM.c: 349:             if(lectura==35){
  3570   002216  0E23               	movlw	35
  3571   002218  1811               	xorwf	lectura@lectura^0,w,c
  3572   00221A  A4D8               	btfss	status,2,c
  3573   00221C  EF12  F011         	goto	u2721
  3574   002220  EF14  F011         	goto	u2720
  3575   002224                     u2721:
  3576   002224  EF56  F011         	goto	l1055
  3577   002228                     u2720:
  3578   002228                     
  3579                           ;FSM.c: 355:                 est->estados=1;
  3580   002228  0060  F02B  FFD9   	movff	lectura@est,fsr2l
  3581   00222E  0060  F02F  FFDA   	movff	lectura@est+1,fsr2h
  3582   002234  0E01               	movlw	1
  3583   002236  6EDE               	movwf	postinc2,c
  3584   002238  0E00               	movlw	0
  3585   00223A  6EDD               	movwf	postdec2,c
  3586   00223C  EF56  F011         	goto	l1055
  3587   002240                     l4448:
  3588   002240  0060  F02B  FFD9   	movff	lectura@est,fsr2l
  3589   002246  0060  F02F  FFDA   	movff	lectura@est+1,fsr2h
  3590   00224C  006F FF78  F00C    	movff	postinc2,??_lectura
  3591   002252  006F FF74  F00D    	movff	postdec2,??_lectura+1
  3592                           
  3593                           ; Switch on 2 bytes has been partitioned into a top level switch of size 1, and 1 sub-sw
      +                          itches
  3594                           ; Switch size 1, requested type "simple"
  3595                           ; Number of cases is 1, Range of values is 0 to 0
  3596                           ; switch strategies available:
  3597                           ; Name         Instructions Cycles
  3598                           ; simple_byte            4     3 (average)
  3599                           ;	Chosen strategy is simple_byte
  3600   002258  500D               	movf	(??_lectura+1)^0,w,c
  3601   00225A  0A00               	xorlw	0	; case 0
  3602   00225C  B4D8               	btfsc	status,2,c
  3603   00225E  EF33  F011         	goto	l4988
  3604   002262  EF56  F011         	goto	l1055
  3605   002266                     l4988:
  3606                           
  3607                           ; Switch size 1, requested type "simple"
  3608                           ; Number of cases is 8, Range of values is 1 to 8
  3609                           ; switch strategies available:
  3610                           ; Name         Instructions Cycles
  3611                           ; simple_byte           25    13 (average)
  3612                           ;	Chosen strategy is simple_byte
  3613   002266  500C               	movf	??_lectura^0,w,c
  3614   002268  0A01               	xorlw	1	; case 1
  3615   00226A  B4D8               	btfsc	status,2,c
  3616   00226C  EF6C  F008         	goto	l4184
  3617   002270  0A03               	xorlw	3	; case 2
  3618   002272  B4D8               	btfsc	status,2,c
  3619   002274  EFA4  F008         	goto	l4194
  3620   002278  0A01               	xorlw	1	; case 3
  3621   00227A  B4D8               	btfsc	status,2,c
  3622   00227C  EFF6  F008         	goto	l4208
  3623   002280  0A07               	xorlw	7	; case 4
  3624   002282  B4D8               	btfsc	status,2,c
  3625   002284  EF6C  F009         	goto	l4222
  3626   002288  0A01               	xorlw	1	; case 5
  3627   00228A  B4D8               	btfsc	status,2,c
  3628   00228C  EF2C  F00A         	goto	l4236
  3629   002290  0A03               	xorlw	3	; case 6
  3630   002292  B4D8               	btfsc	status,2,c
  3631   002294  EFC9  F00B         	goto	l4284
  3632   002298  0A01               	xorlw	1	; case 7
  3633   00229A  B4D8               	btfsc	status,2,c
  3634   00229C  EF70  F00D         	goto	l4332
  3635   0022A0  0A0F               	xorlw	15	; case 8
  3636   0022A2  B4D8               	btfsc	status,2,c
  3637   0022A4  EF0B  F011         	goto	l4442
  3638   0022A8  EF56  F011         	goto	l1055
  3639   0022AC                     l1055:
  3640   0022AC  0012               	return		;funcret
  3641   0022AE                     __end_of_lectura:
  3642                           	callstack 0
  3643                           
  3644 ;; *************** function _inicie_cola *****************
  3645 ;; Defined at:
  3646 ;;		line 4 in file "cola.c"
  3647 ;; Parameters:    Size  Location     Type
  3648 ;;  c               2    0[COMRAM] PTR struct eCola
  3649 ;;		 -> main@cola(36), 
  3650 ;; Auto vars:     Size  Location     Type
  3651 ;;		None
  3652 ;; Return value:  Size  Location     Type
  3653 ;;                  1    wreg      void 
  3654 ;; Registers used:
  3655 ;;		wreg, fsr2l, fsr2h, status,2, status,0
  3656 ;; Tracked objects:
  3657 ;;		On entry : 0/0
  3658 ;;		On exit  : 0/0
  3659 ;;		Unchanged: 0/0
  3660 ;; Data sizes:     COMRAM   BANK0   BANK1   BANK2   BANK3   BANK4   BANK5   BANK6   BANK7   BANK8   BANK9  BANK10  BANK1
      +1  BANK12  BANK13  BANK14  BANK15
  3661 ;;      Params:         2       0       0       0       0       0       0       0       0       0       0       0       
      +0       0       0       0       0
  3662 ;;      Locals:         0       0       0       0       0       0       0       0       0       0       0       0       
      +0       0       0       0       0
  3663 ;;      Temps:          0       0       0       0       0       0       0       0       0       0       0       0       
      +0       0       0       0       0
  3664 ;;      Totals:         2       0       0       0       0       0       0       0       0       0       0       0       
      +0       0       0       0       0
  3665 ;;Total ram usage:        2 bytes
  3666 ;; Hardware stack levels used: 1
  3667 ;; This function calls:
  3668 ;;		Nothing
  3669 ;; This function is called by:
  3670 ;;		_main
  3671 ;; This function uses a non-reentrant model
  3672 ;;
  3673                           
  3674                           	psect	text3
  3675   0031D8                     __ptext3:
  3676                           	callstack 0
  3677   0031D8                     _inicie_cola:
  3678                           	callstack 30
  3679   0031D8                     
  3680                           ;cola.c: 4: void inicie_cola(eCola* c);cola.c: 5: {;cola.c: 6:     c->entrada=0;
  3681   0031D8  EE20 F01E          	lfsr	2,30
  3682   0031DC  5001               	movf	inicie_cola@c^0,w,c
  3683   0031DE  26D9               	addwf	fsr2l,f,c
  3684   0031E0  5002               	movf	(inicie_cola@c+1)^0,w,c
  3685   0031E2  22DA               	addwfc	fsr2h,f,c
  3686   0031E4  0E00               	movlw	0
  3687   0031E6  6EDE               	movwf	postinc2,c
  3688   0031E8  0E00               	movlw	0
  3689   0031EA  6EDD               	movwf	postdec2,c
  3690                           
  3691                           ;cola.c: 7:     c->salida=0;
  3692   0031EC  EE20 F020          	lfsr	2,32
  3693   0031F0  5001               	movf	inicie_cola@c^0,w,c
  3694   0031F2  26D9               	addwf	fsr2l,f,c
  3695   0031F4  5002               	movf	(inicie_cola@c+1)^0,w,c
  3696   0031F6  22DA               	addwfc	fsr2h,f,c
  3697   0031F8  0E00               	movlw	0
  3698   0031FA  6EDE               	movwf	postinc2,c
  3699   0031FC  0E00               	movlw	0
  3700   0031FE  6EDD               	movwf	postdec2,c
  3701                           
  3702                           ;cola.c: 8:     c->peso=0;
  3703   003200  EE20 F022          	lfsr	2,34
  3704   003204  5001               	movf	inicie_cola@c^0,w,c
  3705   003206  26D9               	addwf	fsr2l,f,c
  3706   003208  5002               	movf	(inicie_cola@c+1)^0,w,c
  3707   00320A  22DA               	addwfc	fsr2h,f,c
  3708   00320C  0E00               	movlw	0
  3709   00320E  6EDE               	movwf	postinc2,c
  3710   003210  0E00               	movlw	0
  3711   003212  6EDD               	movwf	postdec2,c
  3712   003214  0012               	return		;funcret
  3713   003216                     __end_of_inicie_cola:
  3714                           	callstack 0
  3715                           
  3716 ;; *************** function _i2c_writeNBytes *****************
  3717 ;; Defined at:
  3718 ;;		line 71 in file "mcc_generated_files/drivers/i2c_simple_master.c"
  3719 ;; Parameters:    Size  Location     Type
  3720 ;;  address         1    wreg     unsigned char 
  3721 ;;  data            2   21[COMRAM] PTR void 
  3722 ;;		 -> main@datosEnvio(18), I2CSIMPLE_example@receiveData(15), I2CSIMPLE_example@sendData(17), 
  3723 ;;  len             2   23[COMRAM] unsigned int 
  3724 ;; Auto vars:     Size  Location     Type
  3725 ;;  address         1   25[COMRAM] unsigned char 
  3726 ;; Return value:  Size  Location     Type
  3727 ;;                  1    wreg      void 
  3728 ;; Registers used:
  3729 ;;		wreg, fsr2l, fsr2h, status,2, status,0, pcl, pclath, pclatu, tosl, tblptrl, tblptrh, tblptru, prodl, prodh, cstack
  3730 ;; Tracked objects:
  3731 ;;		On entry : 0/0
  3732 ;;		On exit  : 0/0
  3733 ;;		Unchanged: 0/0
  3734 ;; Data sizes:     COMRAM   BANK0   BANK1   BANK2   BANK3   BANK4   BANK5   BANK6   BANK7   BANK8   BANK9  BANK10  BANK1
      +1  BANK12  BANK13  BANK14  BANK15
  3735 ;;      Params:         4       0       0       0       0       0       0       0       0       0       0       0       
      +0       0       0       0       0
  3736 ;;      Locals:         1       0       0       0       0       0       0       0       0       0       0       0       
      +0       0       0       0       0
  3737 ;;      Temps:          0       0       0       0       0       0       0       0       0       0       0       0       
      +0       0       0       0       0
  3738 ;;      Totals:         5       0       0       0       0       0       0       0       0       0       0       0       
      +0       0       0       0       0
  3739 ;;Total ram usage:        5 bytes
  3740 ;; Hardware stack levels used: 1
  3741 ;; Hardware stack levels required when called: 11
  3742 ;; This function calls:
  3743 ;;		_I2C1_Close
  3744 ;;		_I2C1_MasterWrite
  3745 ;;		_I2C1_Open
  3746 ;;		_I2C1_SetAddressNackCallback
  3747 ;;		_I2C1_SetBuffer
  3748 ;; This function is called by:
  3749 ;;		_main
  3750 ;;		_I2CSIMPLE_example
  3751 ;; This function uses a non-reentrant model
  3752 ;;
  3753                           
  3754                           	psect	text4
  3755   002F7A                     __ptext4:
  3756                           	callstack 0
  3757   002F7A                     _i2c_writeNBytes:
  3758                           	callstack 19
  3759                           
  3760                           ;incstack = 0
  3761                           ;i2c_writeNBytes@address stored from wreg
  3762   002F7A  6E1A               	movwf	i2c_writeNBytes@address^0,c
  3763   002F7C                     l4056:
  3764   002F7C  501A               	movf	i2c_writeNBytes@address^0,w,c
  3765   002F7E  ECEB  F015         	call	_I2C1_Open
  3766   002F82  0900               	iorlw	0
  3767   002F84  B4D8               	btfsc	status,2,c
  3768   002F86  EFC7  F017         	goto	u2011
  3769   002F8A  EFC9  F017         	goto	u2010
  3770   002F8E                     u2011:
  3771   002F8E  EFBE  F017         	goto	l4056
  3772   002F92                     u2010:
  3773   002F92                     
  3774                           ;mcc_generated_files/drivers/i2c_simple_master.c: 74:     I2C1_SetBuffer(data,len);
  3775   002F92  C016  F001         	movff	i2c_writeNBytes@data,I2C1_SetBuffer@buffer
  3776   002F96  C017  F002         	movff	i2c_writeNBytes@data+1,I2C1_SetBuffer@buffer+1
  3777   002F9A  C018  F003         	movff	i2c_writeNBytes@len,I2C1_SetBuffer@bufferSize
  3778   002F9E  C019  F004         	movff	i2c_writeNBytes@len+1,I2C1_SetBuffer@bufferSize+1
  3779   002FA2  EC2E  F01A         	call	_I2C1_SetBuffer	;wreg free
  3780   002FA6                     
  3781                           ;mcc_generated_files/drivers/i2c_simple_master.c: 75:     I2C1_SetAddressNackCallback(((
      +                          void*)0),((void*)0));
  3782   002FA6  0E00               	movlw	0
  3783   002FA8  6E06               	movwf	I2C1_SetAddressNackCallback@cb^0,c
  3784   002FAA  0E00               	movlw	0
  3785   002FAC  6E07               	movwf	(I2C1_SetAddressNackCallback@cb+1)^0,c
  3786   002FAE  0E00               	movlw	0
  3787   002FB0  6E08               	movwf	I2C1_SetAddressNackCallback@ptr^0,c
  3788   002FB2  0E00               	movlw	0
  3789   002FB4  6E09               	movwf	(I2C1_SetAddressNackCallback@ptr+1)^0,c
  3790   002FB6  EC9B  F01A         	call	_I2C1_SetAddressNackCallback	;wreg free
  3791   002FBA                     
  3792                           ;mcc_generated_files/drivers/i2c_simple_master.c: 76:     I2C1_MasterWrite();
  3793   002FBA  EC73  F01B         	call	_I2C1_MasterWrite	;wreg free
  3794   002FBE                     l4064:
  3795   002FBE  EC04  F01A         	call	_I2C1_Close	;wreg free
  3796   002FC2  06E8               	decf	wreg,f,c
  3797   002FC4  B4D8               	btfsc	status,2,c
  3798   002FC6  EFE7  F017         	goto	u2021
  3799   002FCA  EFE9  F017         	goto	u2020
  3800   002FCE                     u2021:
  3801   002FCE  EFDF  F017         	goto	l4064
  3802   002FD2                     u2020:
  3803   002FD2  0012               	return		;funcret
  3804   002FD4                     __end_of_i2c_writeNBytes:
  3805                           	callstack 0
  3806                           
  3807 ;; *************** function _I2C1_SetAddressNackCallback *****************
  3808 ;; Defined at:
  3809 ;;		line 313 in file "mcc_generated_files/i2c1_master.c"
  3810 ;; Parameters:    Size  Location     Type
  3811 ;;  cb              2    5[COMRAM] PTR FTN(PTR void ,)enum 
  3812 ;;		 -> Absolute function(1), 
  3813 ;;  ptr             2    7[COMRAM] PTR void 
  3814 ;;		 -> NULL(0), 
  3815 ;; Auto vars:     Size  Location     Type
  3816 ;;		None
  3817 ;; Return value:  Size  Location     Type
  3818 ;;                  1    wreg      void 
  3819 ;; Registers used:
  3820 ;;		wreg, fsr2l, fsr2h, status,2, status,0, prodl, prodh, cstack
  3821 ;; Tracked objects:
  3822 ;;		On entry : 0/0
  3823 ;;		On exit  : 0/0
  3824 ;;		Unchanged: 0/0
  3825 ;; Data sizes:     COMRAM   BANK0   BANK1   BANK2   BANK3   BANK4   BANK5   BANK6   BANK7   BANK8   BANK9  BANK10  BANK1
      +1  BANK12  BANK13  BANK14  BANK15
  3826 ;;      Params:         4       0       0       0       0       0       0       0       0       0       0       0       
      +0       0       0       0       0
  3827 ;;      Locals:         0       0       0       0       0       0       0       0       0       0       0       0       
      +0       0       0       0       0
  3828 ;;      Temps:          0       0       0       0       0       0       0       0       0       0       0       0       
      +0       0       0       0       0
  3829 ;;      Totals:         4       0       0       0       0       0       0       0       0       0       0       0       
      +0       0       0       0       0
  3830 ;;Total ram usage:        4 bytes
  3831 ;; Hardware stack levels used: 1
  3832 ;; Hardware stack levels required when called: 1
  3833 ;; This function calls:
  3834 ;;		_I2C1_SetCallback
  3835 ;; This function is called by:
  3836 ;;		_i2c_writeNBytes
  3837 ;;		_i2c_write1ByteRegister
  3838 ;;		_i2c_read1ByteRegister
  3839 ;;		_i2c_read2ByteRegister
  3840 ;;		_i2c_write2ByteRegister
  3841 ;;		_i2c_readDataBlock
  3842 ;;		_I2C1_Read1ByteRegister
  3843 ;;		_I2C1_Read2ByteRegister
  3844 ;;		_I2C1_Write1ByteRegister
  3845 ;;		_I2C1_Write2ByteRegister
  3846 ;;		_I2C1_WriteNBytes
  3847 ;;		_I2C1_ReadDataBlock
  3848 ;; This function uses a non-reentrant model
  3849 ;;
  3850                           
  3851                           	psect	text5
  3852   003536                     __ptext5:
  3853                           	callstack 0
  3854   003536                     _I2C1_SetAddressNackCallback:
  3855                           	callstack 28
  3856   003536                     
  3857                           ;mcc_generated_files/i2c1_master.c: 313: void I2C1_SetAddressNackCallback(i2c1_callback_
      +                          t cb, void *ptr);mcc_generated_files/i2c1_master.c: 314: {;mcc_generated_files/i2c1_mast
      +                          er.c: 315:     I2C1_SetCallback(I2C1_ADDR_NACK, cb, ptr);
  3858   003536  C006  F001         	movff	I2C1_SetAddressNackCallback@cb,I2C1_SetCallback@cb
  3859   00353A  C007  F002         	movff	I2C1_SetAddressNackCallback@cb+1,I2C1_SetCallback@cb+1
  3860   00353E  C008  F003         	movff	I2C1_SetAddressNackCallback@ptr,I2C1_SetCallback@ptr
  3861   003542  C009  F004         	movff	I2C1_SetAddressNackCallback@ptr+1,I2C1_SetCallback@ptr+1
  3862   003546  0E02               	movlw	2
  3863   003548  EC33  F016         	call	_I2C1_SetCallback
  3864   00354C  0012               	return		;funcret
  3865   00354E                     __end_of_I2C1_SetAddressNackCallback:
  3866                           	callstack 0
  3867                           
  3868 ;; *************** function _I2C1_MasterWrite *****************
  3869 ;; Defined at:
  3870 ;;		line 281 in file "mcc_generated_files/i2c1_master.c"
  3871 ;; Parameters:    Size  Location     Type
  3872 ;;		None
  3873 ;; Auto vars:     Size  Location     Type
  3874 ;;		None
  3875 ;; Return value:  Size  Location     Type
  3876 ;;                  1    wreg      enum E355
  3877 ;; Registers used:
  3878 ;;		wreg, fsr2l, fsr2h, status,2, status,0, pcl, pclath, pclatu, tosl, tblptrl, tblptrh, tblptru, prodl, prodh, cstack
  3879 ;; Tracked objects:
  3880 ;;		On entry : 0/0
  3881 ;;		On exit  : 0/0
  3882 ;;		Unchanged: 0/0
  3883 ;; Data sizes:     COMRAM   BANK0   BANK1   BANK2   BANK3   BANK4   BANK5   BANK6   BANK7   BANK8   BANK9  BANK10  BANK1
      +1  BANK12  BANK13  BANK14  BANK15
  3884 ;;      Params:         0       0       0       0       0       0       0       0       0       0       0       0       
      +0       0       0       0       0
  3885 ;;      Locals:         0       0       0       0       0       0       0       0       0       0       0       0       
      +0       0       0       0       0
  3886 ;;      Temps:          0       0       0       0       0       0       0       0       0       0       0       0       
      +0       0       0       0       0
  3887 ;;      Totals:         0       0       0       0       0       0       0       0       0       0       0       0       
      +0       0       0       0       0
  3888 ;;Total ram usage:        0 bytes
  3889 ;; Hardware stack levels used: 1
  3890 ;; Hardware stack levels required when called: 10
  3891 ;; This function calls:
  3892 ;;		_I2C1_MasterOperation
  3893 ;; This function is called by:
  3894 ;;		_i2c_writeNBytes
  3895 ;;		_i2c_write1ByteRegister
  3896 ;;		_i2c_read1ByteRegister
  3897 ;;		_i2c_read2ByteRegister
  3898 ;;		_i2c_write2ByteRegister
  3899 ;;		_i2c_readDataBlock
  3900 ;;		_I2C1_Read1ByteRegister
  3901 ;;		_I2C1_Read2ByteRegister
  3902 ;;		_I2C1_Write1ByteRegister
  3903 ;;		_I2C1_Write2ByteRegister
  3904 ;;		_I2C1_WriteNBytes
  3905 ;;		_I2C1_ReadDataBlock
  3906 ;; This function uses a non-reentrant model
  3907 ;;
  3908                           
  3909                           	psect	text6
  3910   0036E6                     __ptext6:
  3911                           	callstack 0
  3912   0036E6                     _I2C1_MasterWrite:
  3913                           	callstack 19
  3914   0036E6                     
  3915                           ;mcc_generated_files/i2c1_master.c: 283:     return I2C1_MasterOperation(0);;	Return val
      +                          ue of _I2C1_MasterWrite is never used
  3916   0036E6  0E00               	movlw	0
  3917   0036E8  ECEA  F017         	call	_I2C1_MasterOperation
  3918   0036EC  0012               	return		;funcret
  3919   0036EE                     __end_of_I2C1_MasterWrite:
  3920                           	callstack 0
  3921                           
  3922 ;; *************** function _i2c_readNBytes *****************
  3923 ;; Defined at:
  3924 ;;		line 228 in file "mcc_generated_files/drivers/i2c_simple_master.c"
  3925 ;; Parameters:    Size  Location     Type
  3926 ;;  address         1    wreg     unsigned char 
  3927 ;;  data            2   21[COMRAM] PTR void 
  3928 ;;		 -> main@datosRecibidos(255), I2CSIMPLE_example@receiveData(15), 
  3929 ;;  len             2   23[COMRAM] unsigned int 
  3930 ;; Auto vars:     Size  Location     Type
  3931 ;;  address         1   25[COMRAM] unsigned char 
  3932 ;; Return value:  Size  Location     Type
  3933 ;;                  1    wreg      void 
  3934 ;; Registers used:
  3935 ;;		wreg, fsr2l, fsr2h, status,2, status,0, pcl, pclath, pclatu, tosl, tblptrl, tblptrh, tblptru, prodl, prodh, cstack
  3936 ;; Tracked objects:
  3937 ;;		On entry : 0/0
  3938 ;;		On exit  : 0/0
  3939 ;;		Unchanged: 0/0
  3940 ;; Data sizes:     COMRAM   BANK0   BANK1   BANK2   BANK3   BANK4   BANK5   BANK6   BANK7   BANK8   BANK9  BANK10  BANK1
      +1  BANK12  BANK13  BANK14  BANK15
  3941 ;;      Params:         4       0       0       0       0       0       0       0       0       0       0       0       
      +0       0       0       0       0
  3942 ;;      Locals:         1       0       0       0       0       0       0       0       0       0       0       0       
      +0       0       0       0       0
  3943 ;;      Temps:          0       0       0       0       0       0       0       0       0       0       0       0       
      +0       0       0       0       0
  3944 ;;      Totals:         5       0       0       0       0       0       0       0       0       0       0       0       
      +0       0       0       0       0
  3945 ;;Total ram usage:        5 bytes
  3946 ;; Hardware stack levels used: 1
  3947 ;; Hardware stack levels required when called: 11
  3948 ;; This function calls:
  3949 ;;		_I2C1_Close
  3950 ;;		_I2C1_MasterRead
  3951 ;;		_I2C1_Open
  3952 ;;		_I2C1_SetBuffer
  3953 ;; This function is called by:
  3954 ;;		_main
  3955 ;;		_I2CSIMPLE_example
  3956 ;; This function uses a non-reentrant model
  3957 ;;
  3958                           
  3959                           	psect	text7
  3960   003110                     __ptext7:
  3961                           	callstack 0
  3962   003110                     _i2c_readNBytes:
  3963                           	callstack 19
  3964                           
  3965                           ;incstack = 0
  3966                           ;i2c_readNBytes@address stored from wreg
  3967   003110  6E1A               	movwf	i2c_readNBytes@address^0,c
  3968   003112                     l4068:
  3969   003112  501A               	movf	i2c_readNBytes@address^0,w,c
  3970   003114  ECEB  F015         	call	_I2C1_Open
  3971   003118  0900               	iorlw	0
  3972   00311A  B4D8               	btfsc	status,2,c
  3973   00311C  EF92  F018         	goto	u2031
  3974   003120  EF94  F018         	goto	u2030
  3975   003124                     u2031:
  3976   003124  EF89  F018         	goto	l4068
  3977   003128                     u2030:
  3978   003128                     
  3979                           ;mcc_generated_files/drivers/i2c_simple_master.c: 231:     I2C1_SetBuffer(data,len);
  3980   003128  C016  F001         	movff	i2c_readNBytes@data,I2C1_SetBuffer@buffer
  3981   00312C  C017  F002         	movff	i2c_readNBytes@data+1,I2C1_SetBuffer@buffer+1
  3982   003130  C018  F003         	movff	i2c_readNBytes@len,I2C1_SetBuffer@bufferSize
  3983   003134  C019  F004         	movff	i2c_readNBytes@len+1,I2C1_SetBuffer@bufferSize+1
  3984   003138  EC2E  F01A         	call	_I2C1_SetBuffer	;wreg free
  3985   00313C                     
  3986                           ;mcc_generated_files/drivers/i2c_simple_master.c: 232:     I2C1_MasterRead();
  3987   00313C  EC77  F01B         	call	_I2C1_MasterRead	;wreg free
  3988   003140                     l4074:
  3989   003140  EC04  F01A         	call	_I2C1_Close	;wreg free
  3990   003144  06E8               	decf	wreg,f,c
  3991   003146  B4D8               	btfsc	status,2,c
  3992   003148  EFA8  F018         	goto	u2041
  3993   00314C  EFAA  F018         	goto	u2040
  3994   003150                     u2041:
  3995   003150  EFA0  F018         	goto	l4074
  3996   003154                     u2040:
  3997   003154  0012               	return		;funcret
  3998   003156                     __end_of_i2c_readNBytes:
  3999                           	callstack 0
  4000                           
  4001 ;; *************** function _I2C1_Open *****************
  4002 ;; Defined at:
  4003 ;;		line 204 in file "mcc_generated_files/i2c1_master.c"
  4004 ;; Parameters:    Size  Location     Type
  4005 ;;  address         1    wreg     unsigned char 
  4006 ;; Auto vars:     Size  Location     Type
  4007 ;;  address         1    0[COMRAM] unsigned char 
  4008 ;;  returnValue     1    1[COMRAM] enum E355
  4009 ;; Return value:  Size  Location     Type
  4010 ;;                  1    wreg      enum E355
  4011 ;; Registers used:
  4012 ;;		wreg, status,2, status,0, cstack
  4013 ;; Tracked objects:
  4014 ;;		On entry : 0/0
  4015 ;;		On exit  : 0/0
  4016 ;;		Unchanged: 0/0
  4017 ;; Data sizes:     COMRAM   BANK0   BANK1   BANK2   BANK3   BANK4   BANK5   BANK6   BANK7   BANK8   BANK9  BANK10  BANK1
      +1  BANK12  BANK13  BANK14  BANK15
  4018 ;;      Params:         0       0       0       0       0       0       0       0       0       0       0       0       
      +0       0       0       0       0
  4019 ;;      Locals:         2       0       0       0       0       0       0       0       0       0       0       0       
      +0       0       0       0       0
  4020 ;;      Temps:          0       0       0       0       0       0       0       0       0       0       0       0       
      +0       0       0       0       0
  4021 ;;      Totals:         2       0       0       0       0       0       0       0       0       0       0       0       
      +0       0       0       0       0
  4022 ;;Total ram usage:        2 bytes
  4023 ;; Hardware stack levels used: 1
  4024 ;; Hardware stack levels required when called: 1
  4025 ;; This function calls:
  4026 ;;		_I2C1_MasterClearIrq
  4027 ;;		_I2C1_MasterOpen
  4028 ;; This function is called by:
  4029 ;;		_i2c_writeNBytes
  4030 ;;		_i2c_readNBytes
  4031 ;;		_i2c_write1ByteRegister
  4032 ;;		_i2c_read1ByteRegister
  4033 ;;		_i2c_read2ByteRegister
  4034 ;;		_i2c_write2ByteRegister
  4035 ;;		_i2c_readDataBlock
  4036 ;;		_I2C1_Read1ByteRegister
  4037 ;;		_I2C1_Read2ByteRegister
  4038 ;;		_I2C1_Write1ByteRegister
  4039 ;;		_I2C1_Write2ByteRegister
  4040 ;;		_I2C1_WriteNBytes
  4041 ;;		_I2C1_ReadNBytes
  4042 ;;		_I2C1_ReadDataBlock
  4043 ;; This function uses a non-reentrant model
  4044 ;;
  4045                           
  4046                           	psect	text8
  4047   002BD6                     __ptext8:
  4048                           	callstack 0
  4049   002BD6                     _I2C1_Open:
  4050                           	callstack 28
  4051                           
  4052                           ;incstack = 0
  4053                           ;I2C1_Open@address stored from wreg
  4054   002BD6  6E01               	movwf	I2C1_Open@address^0,c
  4055   002BD8                     
  4056                           ;mcc_generated_files/i2c1_master.c: 204: i2c1_error_t I2C1_Open(i2c1_address_t address);
      +                          mcc_generated_files/i2c1_master.c: 205: {;mcc_generated_files/i2c1_master.c: 206:     i2
      +                          c1_error_t returnValue = I2C1_BUSY;
  4057   002BD8  0E01               	movlw	1
  4058   002BDA  6E02               	movwf	I2C1_Open@returnValue^0,c
  4059   002BDC                     
  4060                           ;mcc_generated_files/i2c1_master.c: 208:     if(!I2C1_Status.inUse)
  4061   002BDC  0100               	movlb	0	; () banked
  4062   002BDE  B783               	btfsc	(_I2C1_Status+35)& (0+255),3,b
  4063   002BE0  EFF4  F015         	goto	u1971
  4064   002BE4  EFF6  F015         	goto	u1970
  4065   002BE8                     u1971:
  4066   002BE8  EF31  F016         	goto	l3952
  4067   002BEC                     u1970:
  4068   002BEC                     
  4069                           ; BSR set to: 0
  4070                           ;mcc_generated_files/i2c1_master.c: 209:     {;mcc_generated_files/i2c1_master.c: 210:  
      +                                 I2C1_Status.address = address;
  4071   002BEC  C001  F07C         	movff	I2C1_Open@address,_I2C1_Status+28
  4072   002BF0                     
  4073                           ; BSR set to: 0
  4074                           ;mcc_generated_files/i2c1_master.c: 211:         I2C1_Status.busy = 0;
  4075   002BF0  9583               	bcf	(_I2C1_Status+35)& (0+255),2,b
  4076   002BF2                     
  4077                           ; BSR set to: 0
  4078                           ;mcc_generated_files/i2c1_master.c: 212:         I2C1_Status.inUse = 1;
  4079   002BF2  8783               	bsf	(_I2C1_Status+35)& (0+255),3,b
  4080   002BF4                     
  4081                           ; BSR set to: 0
  4082                           ;mcc_generated_files/i2c1_master.c: 213:         I2C1_Status.addressNackCheck = 0;
  4083   002BF4  0EFC               	movlw	-4
  4084   002BF6  1783               	andwf	(_I2C1_Status+35)& (0+255),f,b
  4085   002BF8                     
  4086                           ; BSR set to: 0
  4087                           ;mcc_generated_files/i2c1_master.c: 214:         I2C1_Status.state = I2C1_RESET;
  4088   002BF8  0E0F               	movlw	15
  4089   002BFA  6F81               	movwf	(_I2C1_Status+33)& (0+255),b
  4090   002BFC                     
  4091                           ; BSR set to: 0
  4092                           ;mcc_generated_files/i2c1_master.c: 215:         I2C1_Status.time_out_value = 500;
  4093   002BFC  0E01               	movlw	1
  4094   002BFE  6F7B               	movwf	(_I2C1_Status+27)& (0+255),b
  4095   002C00  0EF4               	movlw	244
  4096   002C02  6F7A               	movwf	(_I2C1_Status+26)& (0+255),b
  4097   002C04                     
  4098                           ; BSR set to: 0
  4099                           ;mcc_generated_files/i2c1_master.c: 216:         I2C1_Status.bufferFree = 1;
  4100   002C04  8983               	bsf	(_I2C1_Status+35)& (0+255),4,b
  4101   002C06                     
  4102                           ; BSR set to: 0
  4103                           ;mcc_generated_files/i2c1_master.c: 219:         I2C1_Status.callbackTable[I2C1_DATA_COM
      +                          PLETE]=I2C1_CallbackReturnStop;
  4104   002C06  0E5E               	movlw	low _I2C1_CallbackReturnStop
  4105   002C08  6F60               	movwf	_I2C1_Status& (0+255),b
  4106   002C0A  0E37               	movlw	high _I2C1_CallbackReturnStop
  4107   002C0C  6F61               	movwf	(_I2C1_Status+1)& (0+255),b
  4108   002C0E                     
  4109                           ; BSR set to: 0
  4110                           ;mcc_generated_files/i2c1_master.c: 220:         I2C1_Status.callbackPayload[I2C1_DATA_C
      +                          OMPLETE] = ((void*)0);
  4111   002C0E  0E00               	movlw	0
  4112   002C10  6F6C               	movwf	(_I2C1_Status+12)& (0+255),b
  4113   002C12  0E00               	movlw	0
  4114   002C14  6F6D               	movwf	(_I2C1_Status+13)& (0+255),b
  4115   002C16                     
  4116                           ; BSR set to: 0
  4117                           ;mcc_generated_files/i2c1_master.c: 221:         I2C1_Status.callbackTable[I2C1_WRITE_CO
      +                          LLISION]=I2C1_CallbackReturnStop;
  4118   002C16  0E5E               	movlw	low _I2C1_CallbackReturnStop
  4119   002C18  6F62               	movwf	(_I2C1_Status+2)& (0+255),b
  4120   002C1A  0E37               	movlw	high _I2C1_CallbackReturnStop
  4121   002C1C  6F63               	movwf	(_I2C1_Status+3)& (0+255),b
  4122   002C1E                     
  4123                           ; BSR set to: 0
  4124                           ;mcc_generated_files/i2c1_master.c: 222:         I2C1_Status.callbackPayload[I2C1_WRITE_
      +                          COLLISION] = ((void*)0);
  4125   002C1E  0E00               	movlw	0
  4126   002C20  6F6E               	movwf	(_I2C1_Status+14)& (0+255),b
  4127   002C22  0E00               	movlw	0
  4128   002C24  6F6F               	movwf	(_I2C1_Status+15)& (0+255),b
  4129   002C26                     
  4130                           ; BSR set to: 0
  4131                           ;mcc_generated_files/i2c1_master.c: 223:         I2C1_Status.callbackTable[I2C1_ADDR_NAC
      +                          K]=I2C1_CallbackReturnStop;
  4132   002C26  0E5E               	movlw	low _I2C1_CallbackReturnStop
  4133   002C28  6F64               	movwf	(_I2C1_Status+4)& (0+255),b
  4134   002C2A  0E37               	movlw	high _I2C1_CallbackReturnStop
  4135   002C2C  6F65               	movwf	(_I2C1_Status+5)& (0+255),b
  4136   002C2E                     
  4137                           ; BSR set to: 0
  4138                           ;mcc_generated_files/i2c1_master.c: 224:         I2C1_Status.callbackPayload[I2C1_ADDR_N
      +                          ACK] = ((void*)0);
  4139   002C2E  0E00               	movlw	0
  4140   002C30  6F70               	movwf	(_I2C1_Status+16)& (0+255),b
  4141   002C32  0E00               	movlw	0
  4142   002C34  6F71               	movwf	(_I2C1_Status+17)& (0+255),b
  4143   002C36                     
  4144                           ; BSR set to: 0
  4145                           ;mcc_generated_files/i2c1_master.c: 225:         I2C1_Status.callbackTable[I2C1_DATA_NAC
      +                          K]=I2C1_CallbackReturnStop;
  4146   002C36  0E5E               	movlw	low _I2C1_CallbackReturnStop
  4147   002C38  6F66               	movwf	(_I2C1_Status+6)& (0+255),b
  4148   002C3A  0E37               	movlw	high _I2C1_CallbackReturnStop
  4149   002C3C  6F67               	movwf	(_I2C1_Status+7)& (0+255),b
  4150   002C3E                     
  4151                           ; BSR set to: 0
  4152                           ;mcc_generated_files/i2c1_master.c: 226:         I2C1_Status.callbackPayload[I2C1_DATA_N
      +                          ACK] = ((void*)0);
  4153   002C3E  0E00               	movlw	0
  4154   002C40  6F72               	movwf	(_I2C1_Status+18)& (0+255),b
  4155   002C42  0E00               	movlw	0
  4156   002C44  6F73               	movwf	(_I2C1_Status+19)& (0+255),b
  4157   002C46                     
  4158                           ; BSR set to: 0
  4159                           ;mcc_generated_files/i2c1_master.c: 227:         I2C1_Status.callbackTable[I2C1_TIMEOUT]
      +                          =I2C1_CallbackReturnReset;
  4160   002C46  0E5A               	movlw	low _I2C1_CallbackReturnReset
  4161   002C48  6F68               	movwf	(_I2C1_Status+8)& (0+255),b
  4162   002C4A  0E37               	movlw	high _I2C1_CallbackReturnReset
  4163   002C4C  6F69               	movwf	(_I2C1_Status+9)& (0+255),b
  4164   002C4E                     
  4165                           ; BSR set to: 0
  4166                           ;mcc_generated_files/i2c1_master.c: 228:         I2C1_Status.callbackPayload[I2C1_TIMEOU
      +                          T] = ((void*)0);
  4167   002C4E  0E00               	movlw	0
  4168   002C50  6F74               	movwf	(_I2C1_Status+20)& (0+255),b
  4169   002C52  0E00               	movlw	0
  4170   002C54  6F75               	movwf	(_I2C1_Status+21)& (0+255),b
  4171   002C56                     
  4172                           ; BSR set to: 0
  4173                           ;mcc_generated_files/i2c1_master.c: 230:         I2C1_MasterClearIrq();
  4174   002C56  EC87  F01B         	call	_I2C1_MasterClearIrq	;wreg free
  4175   002C5A                     
  4176                           ;mcc_generated_files/i2c1_master.c: 231:         I2C1_MasterOpen();
  4177   002C5A  EC26  F019         	call	_I2C1_MasterOpen	;wreg free
  4178   002C5E                     
  4179                           ;mcc_generated_files/i2c1_master.c: 232:         returnValue = I2C1_NOERR;
  4180   002C5E  0E00               	movlw	0
  4181   002C60  6E02               	movwf	I2C1_Open@returnValue^0,c
  4182   002C62                     l3952:
  4183                           
  4184                           ;mcc_generated_files/i2c1_master.c: 234:     return returnValue;
  4185   002C62  5002               	movf	I2C1_Open@returnValue^0,w,c
  4186   002C64  0012               	return		;funcret
  4187   002C66                     __end_of_I2C1_Open:
  4188                           	callstack 0
  4189                           
  4190 ;; *************** function _I2C1_MasterOpen *****************
  4191 ;; Defined at:
  4192 ;;		line 632 in file "mcc_generated_files/i2c1_master.c"
  4193 ;; Parameters:    Size  Location     Type
  4194 ;;		None
  4195 ;; Auto vars:     Size  Location     Type
  4196 ;;		None
  4197 ;; Return value:  Size  Location     Type
  4198 ;;                  1    wreg      _Bool 
  4199 ;; Registers used:
  4200 ;;		wreg, status,2
  4201 ;; Tracked objects:
  4202 ;;		On entry : 0/0
  4203 ;;		On exit  : 0/0
  4204 ;;		Unchanged: 0/0
  4205 ;; Data sizes:     COMRAM   BANK0   BANK1   BANK2   BANK3   BANK4   BANK5   BANK6   BANK7   BANK8   BANK9  BANK10  BANK1
      +1  BANK12  BANK13  BANK14  BANK15
  4206 ;;      Params:         0       0       0       0       0       0       0       0       0       0       0       0       
      +0       0       0       0       0
  4207 ;;      Locals:         0       0       0       0       0       0       0       0       0       0       0       0       
      +0       0       0       0       0
  4208 ;;      Temps:          0       0       0       0       0       0       0       0       0       0       0       0       
      +0       0       0       0       0
  4209 ;;      Totals:         0       0       0       0       0       0       0       0       0       0       0       0       
      +0       0       0       0       0
  4210 ;;Total ram usage:        0 bytes
  4211 ;; Hardware stack levels used: 1
  4212 ;; This function calls:
  4213 ;;		Nothing
  4214 ;; This function is called by:
  4215 ;;		_I2C1_Open
  4216 ;; This function uses a non-reentrant model
  4217 ;;
  4218                           
  4219                           	psect	text9
  4220   00324C                     __ptext9:
  4221                           	callstack 0
  4222   00324C                     _I2C1_MasterOpen:
  4223                           	callstack 28
  4224   00324C                     
  4225                           ;mcc_generated_files/i2c1_master.c: 634:     if(!I2C1CON0bits.EN)
  4226   00324C  013D               	movlb	61	; () banked
  4227   00324E  BF73               	btfsc	115,7,b	;volatile
  4228   003250  EF2C  F019         	goto	u1941
  4229   003254  EF2E  F019         	goto	u1940
  4230   003258                     u1941:
  4231   003258  EF3C  F019         	goto	l666
  4232   00325C                     u1940:
  4233   00325C                     
  4234                           ; BSR set to: 61
  4235                           ;mcc_generated_files/i2c1_master.c: 635:     {;mcc_generated_files/i2c1_master.c: 637:  
      +                                 I2C1PIR = 0x00;
  4236   00325C  0E00               	movlw	0
  4237   00325E  6F79               	movwf	121,b	;volatile
  4238                           
  4239                           ;mcc_generated_files/i2c1_master.c: 639:         I2C1PIE = 0x00;
  4240   003260  0E00               	movlw	0
  4241   003262  6F7A               	movwf	122,b	;volatile
  4242                           
  4243                           ;mcc_generated_files/i2c1_master.c: 641:         I2C1ERR = 0x00;
  4244   003264  0E00               	movlw	0
  4245   003266  6F76               	movwf	118,b	;volatile
  4246   003268                     
  4247                           ; BSR set to: 61
  4248                           ;mcc_generated_files/i2c1_master.c: 643:         I2C1CNT = 0xFF;
  4249   003268  696C               	setf	108,b	;volatile
  4250                           
  4251                           ;mcc_generated_files/i2c1_master.c: 645:         RB1I2C = 0x51;
  4252   00326A  0E51               	movlw	81
  4253   00326C  013A               	movlb	58	; () banked
  4254   00326E  6F5A               	movwf	90,b	;volatile
  4255                           
  4256                           ;mcc_generated_files/i2c1_master.c: 647:         RB2I2C = 0x51;
  4257   003270  0E51               	movlw	81
  4258   003272  6F5B               	movwf	91,b	;volatile
  4259   003274                     
  4260                           ; BSR set to: 58
  4261                           ;mcc_generated_files/i2c1_master.c: 649:         I2C1CON0bits.EN = 1;
  4262   003274  013D               	movlb	61	; () banked
  4263   003276  8F73               	bsf	115,7,b	;volatile
  4264   003278                     l666:
  4265                           
  4266                           ; BSR set to: 61
  4267   003278  0012               	return		;funcret
  4268   00327A                     __end_of_I2C1_MasterOpen:
  4269                           	callstack 0
  4270                           
  4271 ;; *************** function _I2C1_MasterRead *****************
  4272 ;; Defined at:
  4273 ;;		line 276 in file "mcc_generated_files/i2c1_master.c"
  4274 ;; Parameters:    Size  Location     Type
  4275 ;;		None
  4276 ;; Auto vars:     Size  Location     Type
  4277 ;;		None
  4278 ;; Return value:  Size  Location     Type
  4279 ;;                  1    wreg      enum E355
  4280 ;; Registers used:
  4281 ;;		wreg, fsr2l, fsr2h, status,2, status,0, pcl, pclath, pclatu, tosl, tblptrl, tblptrh, tblptru, prodl, prodh, cstack
  4282 ;; Tracked objects:
  4283 ;;		On entry : 0/0
  4284 ;;		On exit  : 0/0
  4285 ;;		Unchanged: 0/0
  4286 ;; Data sizes:     COMRAM   BANK0   BANK1   BANK2   BANK3   BANK4   BANK5   BANK6   BANK7   BANK8   BANK9  BANK10  BANK1
      +1  BANK12  BANK13  BANK14  BANK15
  4287 ;;      Params:         0       0       0       0       0       0       0       0       0       0       0       0       
      +0       0       0       0       0
  4288 ;;      Locals:         0       0       0       0       0       0       0       0       0       0       0       0       
      +0       0       0       0       0
  4289 ;;      Temps:          0       0       0       0       0       0       0       0       0       0       0       0       
      +0       0       0       0       0
  4290 ;;      Totals:         0       0       0       0       0       0       0       0       0       0       0       0       
      +0       0       0       0       0
  4291 ;;Total ram usage:        0 bytes
  4292 ;; Hardware stack levels used: 1
  4293 ;; Hardware stack levels required when called: 10
  4294 ;; This function calls:
  4295 ;;		_I2C1_MasterOperation
  4296 ;; This function is called by:
  4297 ;;		_i2c_readNBytes
  4298 ;;		_I2C1_ReadNBytes
  4299 ;; This function uses a non-reentrant model
  4300 ;;
  4301                           
  4302                           	psect	text10
  4303   0036EE                     __ptext10:
  4304                           	callstack 0
  4305   0036EE                     _I2C1_MasterRead:
  4306                           	callstack 19
  4307   0036EE                     
  4308                           ;mcc_generated_files/i2c1_master.c: 278:     return I2C1_MasterOperation(1);;	Return val
      +                          ue of _I2C1_MasterRead is never used
  4309   0036EE  0E01               	movlw	1
  4310   0036F0  ECEA  F017         	call	_I2C1_MasterOperation
  4311   0036F4  0012               	return		;funcret
  4312   0036F6                     __end_of_I2C1_MasterRead:
  4313                           	callstack 0
  4314                           
  4315 ;; *************** function _I2C1_MasterOperation *****************
  4316 ;; Defined at:
  4317 ;;		line 252 in file "mcc_generated_files/i2c1_master.c"
  4318 ;; Parameters:    Size  Location     Type
  4319 ;;  read            1    wreg     _Bool 
  4320 ;; Auto vars:     Size  Location     Type
  4321 ;;  read            1   19[COMRAM] _Bool 
  4322 ;;  returnValue     1   20[COMRAM] enum E355
  4323 ;; Return value:  Size  Location     Type
  4324 ;;                  1    wreg      enum E355
  4325 ;; Registers used:
  4326 ;;		wreg, fsr2l, fsr2h, status,2, status,0, pcl, pclath, pclatu, tosl, tblptrl, tblptrh, tblptru, prodl, prodh, cstack
  4327 ;; Tracked objects:
  4328 ;;		On entry : 0/0
  4329 ;;		On exit  : 0/0
  4330 ;;		Unchanged: 0/0
  4331 ;; Data sizes:     COMRAM   BANK0   BANK1   BANK2   BANK3   BANK4   BANK5   BANK6   BANK7   BANK8   BANK9  BANK10  BANK1
      +1  BANK12  BANK13  BANK14  BANK15
  4332 ;;      Params:         0       0       0       0       0       0       0       0       0       0       0       0       
      +0       0       0       0       0
  4333 ;;      Locals:         2       0       0       0       0       0       0       0       0       0       0       0       
      +0       0       0       0       0
  4334 ;;      Temps:          0       0       0       0       0       0       0       0       0       0       0       0       
      +0       0       0       0       0
  4335 ;;      Totals:         2       0       0       0       0       0       0       0       0       0       0       0       
      +0       0       0       0       0
  4336 ;;Total ram usage:        2 bytes
  4337 ;; Hardware stack levels used: 1
  4338 ;; Hardware stack levels required when called: 9
  4339 ;; This function calls:
  4340 ;;		_I2C1_DO_SEND_ADR_READ
  4341 ;;		_I2C1_DO_SEND_ADR_WRITE
  4342 ;;		_I2C1_MasterSetCounter
  4343 ;;		_I2C1_Poller
  4344 ;; This function is called by:
  4345 ;;		_I2C1_MasterRead
  4346 ;;		_I2C1_MasterWrite
  4347 ;; This function uses a non-reentrant model
  4348 ;;
  4349                           
  4350                           	psect	text11
  4351   002FD4                     __ptext11:
  4352                           	callstack 0
  4353   002FD4                     _I2C1_MasterOperation:
  4354                           	callstack 19
  4355                           
  4356                           ;incstack = 0
  4357                           ;I2C1_MasterOperation@read stored from wreg
  4358   002FD4  6E14               	movwf	I2C1_MasterOperation@read^0,c
  4359   002FD6                     
  4360                           ;mcc_generated_files/i2c1_master.c: 252: i2c1_error_t I2C1_MasterOperation(_Bool read);m
      +                          cc_generated_files/i2c1_master.c: 253: {;mcc_generated_files/i2c1_master.c: 254:     i2c
      +                          1_error_t returnValue = I2C1_BUSY;
  4361   002FD6  0E01               	movlw	1
  4362   002FD8  6E15               	movwf	I2C1_MasterOperation@returnValue^0,c
  4363   002FDA                     
  4364                           ;mcc_generated_files/i2c1_master.c: 255:     if(!I2C1_Status.busy)
  4365   002FDA  0100               	movlb	0	; () banked
  4366   002FDC  B583               	btfsc	(_I2C1_Status+35)& (0+255),2,b
  4367   002FDE  EFF3  F017         	goto	u1951
  4368   002FE2  EFF5  F017         	goto	u1950
  4369   002FE6                     u1951:
  4370   002FE6  EF11  F018         	goto	l3904
  4371   002FEA                     u1950:
  4372   002FEA                     
  4373                           ; BSR set to: 0
  4374                           ;mcc_generated_files/i2c1_master.c: 256:     {;mcc_generated_files/i2c1_master.c: 257:  
      +                                 I2C1_Status.busy = 1;
  4375   002FEA  8583               	bsf	(_I2C1_Status+35)& (0+255),2,b
  4376   002FEC                     
  4377                           ; BSR set to: 0
  4378                           ;mcc_generated_files/i2c1_master.c: 258:         returnValue = I2C1_NOERR;
  4379   002FEC  0E00               	movlw	0
  4380   002FEE  6E15               	movwf	I2C1_MasterOperation@returnValue^0,c
  4381   002FF0                     
  4382                           ; BSR set to: 0
  4383                           ;mcc_generated_files/i2c1_master.c: 259:         I2C1_MasterSetCounter((uint8_t) I2C1_St
      +                          atus.data_length);
  4384   002FF0  517F               	movf	(_I2C1_Status+31)& (0+255),w,b
  4385   002FF2  EC5A  F01B         	call	_I2C1_MasterSetCounter
  4386   002FF6                     
  4387                           ;mcc_generated_files/i2c1_master.c: 261:         if(read)
  4388   002FF6  5014               	movf	I2C1_MasterOperation@read^0,w,c
  4389   002FF8  B4D8               	btfsc	status,2,c
  4390   002FFA  EF01  F018         	goto	u1961
  4391   002FFE  EF03  F018         	goto	u1960
  4392   003002                     u1961:
  4393   003002  EF0A  F018         	goto	l3898
  4394   003006                     u1960:
  4395   003006                     
  4396                           ;mcc_generated_files/i2c1_master.c: 262:         {;mcc_generated_files/i2c1_master.c: 26
      +                          3:             I2C1_Status.state = I2C1_RX;
  4397   003006  0E04               	movlw	4
  4398   003008  0100               	movlb	0	; () banked
  4399   00300A  6F81               	movwf	(_I2C1_Status+33)& (0+255),b
  4400   00300C                     
  4401                           ; BSR set to: 0
  4402                           ;mcc_generated_files/i2c1_master.c: 264:             I2C1_DO_SEND_ADR_READ();
  4403   00300C  EC3D  F019         	call	_I2C1_DO_SEND_ADR_READ	;wreg free
  4404                           
  4405                           ;mcc_generated_files/i2c1_master.c: 265:         }
  4406   003010  EF0F  F018         	goto	l3902
  4407   003014                     l3898:
  4408                           
  4409                           ;mcc_generated_files/i2c1_master.c: 267:         {;mcc_generated_files/i2c1_master.c: 26
      +                          8:             I2C1_Status.state = I2C1_TX;
  4410   003014  0E03               	movlw	3
  4411   003016  0100               	movlb	0	; () banked
  4412   003018  6F81               	movwf	(_I2C1_Status+33)& (0+255),b
  4413   00301A                     
  4414                           ; BSR set to: 0
  4415                           ;mcc_generated_files/i2c1_master.c: 269:             I2C1_DO_SEND_ADR_WRITE();
  4416   00301A  ECBF  F01A         	call	_I2C1_DO_SEND_ADR_WRITE	;wreg free
  4417   00301E                     l3902:
  4418                           
  4419                           ;mcc_generated_files/i2c1_master.c: 271:         I2C1_Poller();
  4420   00301E  EC63  F01A         	call	_I2C1_Poller	;wreg free
  4421   003022                     l3904:
  4422                           
  4423                           ;mcc_generated_files/i2c1_master.c: 273:     return returnValue;
  4424   003022  5015               	movf	I2C1_MasterOperation@returnValue^0,w,c
  4425   003024  0012               	return		;funcret
  4426   003026                     __end_of_I2C1_MasterOperation:
  4427                           	callstack 0
  4428                           
  4429 ;; *************** function _I2C1_Poller *****************
  4430 ;; Defined at:
  4431 ;;		line 342 in file "mcc_generated_files/i2c1_master.c"
  4432 ;; Parameters:    Size  Location     Type
  4433 ;;		None
  4434 ;; Auto vars:     Size  Location     Type
  4435 ;;		None
  4436 ;; Return value:  Size  Location     Type
  4437 ;;                  1    wreg      void 
  4438 ;; Registers used:
  4439 ;;		wreg, fsr2l, fsr2h, status,2, status,0, pcl, pclath, pclatu, tosl, tblptrl, tblptrh, tblptru, prodl, prodh, cstack
  4440 ;; Tracked objects:
  4441 ;;		On entry : 0/0
  4442 ;;		On exit  : 0/0
  4443 ;;		Unchanged: 0/0
  4444 ;; Data sizes:     COMRAM   BANK0   BANK1   BANK2   BANK3   BANK4   BANK5   BANK6   BANK7   BANK8   BANK9  BANK10  BANK1
      +1  BANK12  BANK13  BANK14  BANK15
  4445 ;;      Params:         0       0       0       0       0       0       0       0       0       0       0       0       
      +0       0       0       0       0
  4446 ;;      Locals:         0       0       0       0       0       0       0       0       0       0       0       0       
      +0       0       0       0       0
  4447 ;;      Temps:          0       0       0       0       0       0       0       0       0       0       0       0       
      +0       0       0       0       0
  4448 ;;      Totals:         0       0       0       0       0       0       0       0       0       0       0       0       
      +0       0       0       0       0
  4449 ;;Total ram usage:        0 bytes
  4450 ;; Hardware stack levels used: 1
  4451 ;; Hardware stack levels required when called: 8
  4452 ;; This function calls:
  4453 ;;		_I2C1_MasterFsm
  4454 ;;		_I2C1_MasterWaitForEvent
  4455 ;; This function is called by:
  4456 ;;		_I2C1_MasterOperation
  4457 ;; This function uses a non-reentrant model
  4458 ;;
  4459                           
  4460                           	psect	text12
  4461   0034C6                     __ptext12:
  4462                           	callstack 0
  4463   0034C6                     _I2C1_Poller:
  4464                           	callstack 19
  4465   0034C6                     
  4466                           ;mcc_generated_files/i2c1_master.c: 344:     while(I2C1_Status.busy)
  4467   0034C6  EF69  F01A         	goto	l3856
  4468   0034CA                     l3852:
  4469                           
  4470                           ; BSR set to: 0
  4471                           ;mcc_generated_files/i2c1_master.c: 345:     {;mcc_generated_files/i2c1_master.c: 346:  
      +                                 I2C1_MasterWaitForEvent();
  4472   0034CA  EC8F  F017         	call	_I2C1_MasterWaitForEvent	;wreg free
  4473   0034CE                     
  4474                           ;mcc_generated_files/i2c1_master.c: 347:         I2C1_MasterFsm();
  4475   0034CE  ECB2  F016         	call	_I2C1_MasterFsm	;wreg free
  4476   0034D2                     l3856:
  4477                           
  4478                           ;mcc_generated_files/i2c1_master.c: 344:     while(I2C1_Status.busy)
  4479   0034D2  0100               	movlb	0	; () banked
  4480   0034D4  B583               	btfsc	(_I2C1_Status+35)& (0+255),2,b
  4481   0034D6  EF6F  F01A         	goto	u1931
  4482   0034DA  EF71  F01A         	goto	u1930
  4483   0034DE                     u1931:
  4484   0034DE  EF65  F01A         	goto	l3852
  4485   0034E2                     u1930:
  4486   0034E2                     
  4487                           ; BSR set to: 0
  4488   0034E2  0012               	return		;funcret
  4489   0034E4                     __end_of_I2C1_Poller:
  4490                           	callstack 0
  4491                           
  4492 ;; *************** function _I2C1_MasterWaitForEvent *****************
  4493 ;; Defined at:
  4494 ;;		line 813 in file "mcc_generated_files/i2c1_master.c"
  4495 ;; Parameters:    Size  Location     Type
  4496 ;;		None
  4497 ;; Auto vars:     Size  Location     Type
  4498 ;;		None
  4499 ;; Return value:  Size  Location     Type
  4500 ;;                  1    wreg      void 
  4501 ;; Registers used:
  4502 ;;		None
  4503 ;; Tracked objects:
  4504 ;;		On entry : 0/0
  4505 ;;		On exit  : 0/0
  4506 ;;		Unchanged: 0/0
  4507 ;; Data sizes:     COMRAM   BANK0   BANK1   BANK2   BANK3   BANK4   BANK5   BANK6   BANK7   BANK8   BANK9  BANK10  BANK1
      +1  BANK12  BANK13  BANK14  BANK15
  4508 ;;      Params:         0       0       0       0       0       0       0       0       0       0       0       0       
      +0       0       0       0       0
  4509 ;;      Locals:         0       0       0       0       0       0       0       0       0       0       0       0       
      +0       0       0       0       0
  4510 ;;      Temps:          0       0       0       0       0       0       0       0       0       0       0       0       
      +0       0       0       0       0
  4511 ;;      Totals:         0       0       0       0       0       0       0       0       0       0       0       0       
      +0       0       0       0       0
  4512 ;;Total ram usage:        0 bytes
  4513 ;; Hardware stack levels used: 1
  4514 ;; This function calls:
  4515 ;;		Nothing
  4516 ;; This function is called by:
  4517 ;;		_I2C1_Poller
  4518 ;; This function uses a non-reentrant model
  4519 ;;
  4520                           
  4521                           	psect	text13
  4522   002F1E                     __ptext13:
  4523                           	callstack 0
  4524   002F1E                     _I2C1_MasterWaitForEvent:
  4525                           	callstack 26
  4526   002F1E                     l746:
  4527                           
  4528                           ;mcc_generated_files/i2c1_master.c: 816:     {;mcc_generated_files/i2c1_master.c: 817:  
      +                                 if(PIR3bits.I2C1TXIF)
  4529   002F1E  0139               	movlb	57	; () banked
  4530   002F20  A1A3               	btfss	163,0,b	;volatile
  4531   002F22  EF95  F017         	goto	u1851
  4532   002F26  EF97  F017         	goto	u1850
  4533   002F2A                     u1851:
  4534   002F2A  EF99  F017         	goto	l747
  4535   002F2E                     u1850:
  4536   002F2E  EFBC  F017         	goto	l754
  4537   002F32                     l747:
  4538                           
  4539                           ; BSR set to: 57
  4540                           ;mcc_generated_files/i2c1_master.c: 821:         if(PIR2bits.I2C1RXIF)
  4541   002F32  AFA2               	btfss	162,7,b	;volatile
  4542   002F34  EF9E  F017         	goto	u1861
  4543   002F38  EFA0  F017         	goto	u1860
  4544   002F3C                     u1861:
  4545   002F3C  EFA2  F017         	goto	l749
  4546   002F40                     u1860:
  4547   002F40  EFBC  F017         	goto	l754
  4548   002F44                     l749:
  4549                           
  4550                           ; BSR set to: 57
  4551                           ;mcc_generated_files/i2c1_master.c: 825:         if(I2C1PIRbits.PCIF)
  4552   002F44  013D               	movlb	61	; () banked
  4553   002F46  A579               	btfss	121,2,b	;volatile
  4554   002F48  EFA8  F017         	goto	u1871
  4555   002F4C  EFAA  F017         	goto	u1870
  4556   002F50                     u1871:
  4557   002F50  EFAC  F017         	goto	l750
  4558   002F54                     u1870:
  4559   002F54  EFBC  F017         	goto	l754
  4560   002F58                     l750:
  4561                           
  4562                           ; BSR set to: 61
  4563                           ;mcc_generated_files/i2c1_master.c: 829:         if(I2C1PIRbits.CNTIF)
  4564   002F58  AF79               	btfss	121,7,b	;volatile
  4565   002F5A  EFB1  F017         	goto	u1881
  4566   002F5E  EFB3  F017         	goto	u1880
  4567   002F62                     u1881:
  4568   002F62  EFB5  F017         	goto	l751
  4569   002F66                     u1880:
  4570   002F66  EFBC  F017         	goto	l754
  4571   002F6A                     l751:
  4572                           
  4573                           ; BSR set to: 61
  4574                           ;mcc_generated_files/i2c1_master.c: 833:         if(I2C1ERRbits.NACKIF)
  4575   002F6A  A976               	btfss	118,4,b	;volatile
  4576   002F6C  EFBA  F017         	goto	u1891
  4577   002F70  EFBC  F017         	goto	u1890
  4578   002F74                     u1891:
  4579   002F74  EF8F  F017         	goto	l746
  4580   002F78                     u1890:
  4581   002F78                     l754:
  4582   002F78  0012               	return		;funcret
  4583   002F7A                     __end_of_I2C1_MasterWaitForEvent:
  4584                           	callstack 0
  4585                           
  4586 ;; *************** function _I2C1_MasterFsm *****************
  4587 ;; Defined at:
  4588 ;;		line 351 in file "mcc_generated_files/i2c1_master.c"
  4589 ;; Parameters:    Size  Location     Type
  4590 ;;		None
  4591 ;; Auto vars:     Size  Location     Type
  4592 ;;		None
  4593 ;; Return value:  Size  Location     Type
  4594 ;;                  1    wreg      void 
  4595 ;; Registers used:
  4596 ;;		wreg, fsr2l, fsr2h, status,2, status,0, pcl, pclath, pclatu, tosl, tblptrl, tblptrh, tblptru, prodl, prodh, cstack
  4597 ;; Tracked objects:
  4598 ;;		On entry : 0/0
  4599 ;;		On exit  : 0/0
  4600 ;;		Unchanged: 0/0
  4601 ;; Data sizes:     COMRAM   BANK0   BANK1   BANK2   BANK3   BANK4   BANK5   BANK6   BANK7   BANK8   BANK9  BANK10  BANK1
      +1  BANK12  BANK13  BANK14  BANK15
  4602 ;;      Params:         0       0       0       0       0       0       0       0       0       0       0       0       
      +0       0       0       0       0
  4603 ;;      Locals:         0       0       0       0       0       0       0       0       0       0       0       0       
      +0       0       0       0       0
  4604 ;;      Temps:          2       0       0       0       0       0       0       0       0       0       0       0       
      +0       0       0       0       0
  4605 ;;      Totals:         2       0       0       0       0       0       0       0       0       0       0       0       
      +0       0       0       0       0
  4606 ;;Total ram usage:        2 bytes
  4607 ;; Hardware stack levels used: 1
  4608 ;; Hardware stack levels required when called: 7
  4609 ;; This function calls:
  4610 ;;		_I2C1_ClearInterruptFlags
  4611 ;;		_I2C1_DO_ADDRESS_NACK
  4612 ;;		_I2C1_DO_BUS_COLLISION
  4613 ;;		_I2C1_DO_BUS_ERROR
  4614 ;;		_I2C1_DO_IDLE
  4615 ;;		_I2C1_DO_RESET
  4616 ;;		_I2C1_DO_RX
  4617 ;;		_I2C1_DO_RX_ACK
  4618 ;;		_I2C1_DO_RX_EMPTY
  4619 ;;		_I2C1_DO_RX_NACK_RESTART
  4620 ;;		_I2C1_DO_RX_NACK_STOP
  4621 ;;		_I2C1_DO_SEND_ADR_READ
  4622 ;;		_I2C1_DO_SEND_ADR_WRITE
  4623 ;;		_I2C1_DO_SEND_RESTART
  4624 ;;		_I2C1_DO_SEND_RESTART_READ
  4625 ;;		_I2C1_DO_SEND_RESTART_WRITE
  4626 ;;		_I2C1_DO_SEND_STOP
  4627 ;;		_I2C1_DO_TX
  4628 ;;		_I2C1_DO_TX_ACK
  4629 ;;		_I2C1_DO_TX_EMPTY
  4630 ;;		_I2C1_MasterIsNack
  4631 ;; This function is called by:
  4632 ;;		_I2C1_Poller
  4633 ;; This function uses a non-reentrant model
  4634 ;;
  4635                           
  4636                           	psect	text14
  4637   002D64                     __ptext14:
  4638                           	callstack 0
  4639   002D64                     _I2C1_MasterFsm:
  4640                           	callstack 19
  4641   002D64                     
  4642                           ;mcc_generated_files/i2c1_master.c: 353:     I2C1_ClearInterruptFlags();
  4643   002D64  EC13  F018         	call	_I2C1_ClearInterruptFlags	;wreg free
  4644   002D68                     
  4645                           ;mcc_generated_files/i2c1_master.c: 355:     if(I2C1_Status.addressNackCheck && I2C1_Mas
      +                          terIsNack())
  4646   002D68  0100               	movlb	0	; () banked
  4647   002D6A  5183               	movf	(_I2C1_Status+35)& (0+255),w,b
  4648   002D6C  0B03               	andlw	3
  4649   002D6E  0900               	iorlw	0
  4650   002D70  B4D8               	btfsc	status,2,c
  4651   002D72  EFBD  F016         	goto	u1901
  4652   002D76  EFBF  F016         	goto	u1900
  4653   002D7A                     u1901:
  4654   002D7A  EFCC  F016         	goto	l3848
  4655   002D7E                     u1900:
  4656   002D7E                     
  4657                           ; BSR set to: 0
  4658   002D7E  ECD5  F01A         	call	_I2C1_MasterIsNack	;wreg free
  4659   002D82  0900               	iorlw	0
  4660   002D84  B4D8               	btfsc	status,2,c
  4661   002D86  EFC7  F016         	goto	u1911
  4662   002D8A  EFC9  F016         	goto	u1910
  4663   002D8E                     u1911:
  4664   002D8E  EFCC  F016         	goto	l3848
  4665   002D92                     u1910:
  4666   002D92                     
  4667                           ;mcc_generated_files/i2c1_master.c: 356:     {;mcc_generated_files/i2c1_master.c: 357:  
      +                                 I2C1_Status.state = I2C1_ADDRESS_NACK;
  4668   002D92  0E10               	movlw	16
  4669   002D94  0100               	movlb	0	; () banked
  4670   002D96  6F81               	movwf	(_I2C1_Status+33)& (0+255),b
  4671   002D98                     l3848:
  4672                           
  4673                           ;mcc_generated_files/i2c1_master.c: 359:     I2C1_Status.state = i2c1_fsmStateTable[I2C1
      +                          _Status.state]();
  4674   002D98  0100               	movlb	0	; () banked
  4675   002D9A  5181               	movf	(_I2C1_Status+33)& (0+255),w,b
  4676   002D9C  0D02               	mullw	2
  4677   002D9E  0E01               	movlw	low _i2c1_fsmStateTable
  4678   002DA0  24F3               	addwf	243,w,c
  4679   002DA2  6EF6               	movwf	tblptrl,c
  4680   002DA4  0E10               	movlw	high _i2c1_fsmStateTable
  4681   002DA6  20F4               	addwfc	244,w,c
  4682   002DA8  6EF7               	movwf	tblptrh,c
  4683   002DAA                     	if	1	;There are 3 active tblptr bytes
  4684   002DAA  6AF8               	clrf	tblptru,c
  4685   002DAC  0E00               	movlw	low (__mediumconst shr (0+16))
  4686   002DAE  22F8               	addwfc	tblptru,f,c
  4687   002DB0                     	endif
  4688   002DB0  0009               	tblrd		*+
  4689   002DB2  006F FFD4  F012    	movff	tablat,??_I2C1_MasterFsm
  4690   002DB8  0009               	tblrd		*+
  4691   002DBA  006F FFD4  F013    	movff	tablat,??_I2C1_MasterFsm+1
  4692   002DC0  D802               	call	u1928
  4693   002DC2  EFEC  F016         	goto	u1929
  4694   002DC6                     u1928:
  4695   002DC6  0005               	push	
  4696   002DC8  6EFA               	movwf	pclath,c
  4697   002DCA  5012               	movf	??_I2C1_MasterFsm^0,w,c
  4698   002DCC  6EFD               	movwf	tosl,c
  4699   002DCE  5013               	movf	(??_I2C1_MasterFsm+1)^0,w,c
  4700   002DD0  6EFE               	movwf	tosh,c
  4701   002DD2  6AFF               	clrf	tosu,c
  4702   002DD4  50FA               	movf	pclath,w,c
  4703   002DD6  0012               	return		;indir
  4704   002DD8                     u1929:
  4705   002DD8  0100               	movlb	0	; () banked
  4706   002DDA  6F81               	movwf	(_I2C1_Status+33)& (0+255),b
  4707   002DDC                     
  4708                           ; BSR set to: 0
  4709   002DDC  0012               	return		;funcret
  4710   002DDE                     __end_of_I2C1_MasterFsm:
  4711                           	callstack 0
  4712                           
  4713 ;; *************** function _I2C1_DO_BUS_ERROR *****************
  4714 ;; Defined at:
  4715 ;;		line 595 in file "mcc_generated_files/i2c1_master.c"
  4716 ;; Parameters:    Size  Location     Type
  4717 ;;		None
  4718 ;; Auto vars:     Size  Location     Type
  4719 ;;		None
  4720 ;; Return value:  Size  Location     Type
  4721 ;;                  1    wreg      enum E16234
  4722 ;; Registers used:
  4723 ;;		wreg, status,2, cstack
  4724 ;; Tracked objects:
  4725 ;;		On entry : 0/0
  4726 ;;		On exit  : 0/0
  4727 ;;		Unchanged: 0/0
  4728 ;; Data sizes:     COMRAM   BANK0   BANK1   BANK2   BANK3   BANK4   BANK5   BANK6   BANK7   BANK8   BANK9  BANK10  BANK1
      +1  BANK12  BANK13  BANK14  BANK15
  4729 ;;      Params:         0       0       0       0       0       0       0       0       0       0       0       0       
      +0       0       0       0       0
  4730 ;;      Locals:         0       0       0       0       0       0       0       0       0       0       0       0       
      +0       0       0       0       0
  4731 ;;      Temps:          0       0       0       0       0       0       0       0       0       0       0       0       
      +0       0       0       0       0
  4732 ;;      Totals:         0       0       0       0       0       0       0       0       0       0       0       0       
      +0       0       0       0       0
  4733 ;;Total ram usage:        0 bytes
  4734 ;; Hardware stack levels used: 1
  4735 ;; Hardware stack levels required when called: 1
  4736 ;; This function calls:
  4737 ;;		_I2C1_MasterResetBus
  4738 ;; This function is called by:
  4739 ;;		_I2C1_MasterFsm
  4740 ;; This function uses a non-reentrant model
  4741 ;;
  4742                           
  4743                           	psect	text15
  4744   003656                     __ptext15:
  4745                           	callstack 0
  4746   003656                     _I2C1_DO_BUS_ERROR:
  4747                           	callstack 24
  4748   003656                     
  4749                           ;mcc_generated_files/i2c1_master.c: 597:     I2C1_MasterResetBus();
  4750   003656  EC5F  F01B         	call	_I2C1_MasterResetBus	;wreg free
  4751   00365A                     
  4752                           ;mcc_generated_files/i2c1_master.c: 598:     I2C1_Status.busy = 0;
  4753   00365A  0100               	movlb	0	; () banked
  4754   00365C  9583               	bcf	(_I2C1_Status+35)& (0+255),2,b
  4755   00365E                     
  4756                           ; BSR set to: 0
  4757                           ;mcc_generated_files/i2c1_master.c: 599:     I2C1_Status.error = I2C1_FAIL;
  4758   00365E  0E02               	movlw	2
  4759   003660  6F82               	movwf	(_I2C1_Status+34)& (0+255),b
  4760   003662                     
  4761                           ; BSR set to: 0
  4762                           ;mcc_generated_files/i2c1_master.c: 600:     return I2C1_RESET;
  4763   003662  0E0F               	movlw	15
  4764   003664                     
  4765                           ; BSR set to: 0
  4766   003664  0012               	return		;funcret
  4767   003666                     __end_of_I2C1_DO_BUS_ERROR:
  4768                           	callstack 0
  4769                           
  4770 ;; *************** function _I2C1_DO_BUS_COLLISION *****************
  4771 ;; Defined at:
  4772 ;;		line 579 in file "mcc_generated_files/i2c1_master.c"
  4773 ;; Parameters:    Size  Location     Type
  4774 ;;		None
  4775 ;; Auto vars:     Size  Location     Type
  4776 ;;		None
  4777 ;; Return value:  Size  Location     Type
  4778 ;;                  1    wreg      enum E16234
  4779 ;; Registers used:
  4780 ;;		wreg, fsr2l, fsr2h, status,2, status,0, pcl, pclath, pclatu, tosl, prodl, prodh, cstack
  4781 ;; Tracked objects:
  4782 ;;		On entry : 0/0
  4783 ;;		On exit  : 0/0
  4784 ;;		Unchanged: 0/0
  4785 ;; Data sizes:     COMRAM   BANK0   BANK1   BANK2   BANK3   BANK4   BANK5   BANK6   BANK7   BANK8   BANK9  BANK10  BANK1
      +1  BANK12  BANK13  BANK14  BANK15
  4786 ;;      Params:         0       0       0       0       0       0       0       0       0       0       0       0       
      +0       0       0       0       0
  4787 ;;      Locals:         0       0       0       0       0       0       0       0       0       0       0       0       
      +0       0       0       0       0
  4788 ;;      Temps:          2       0       0       0       0       0       0       0       0       0       0       0       
      +0       0       0       0       0
  4789 ;;      Totals:         2       0       0       0       0       0       0       0       0       0       0       0       
      +0       0       0       0       0
  4790 ;;Total ram usage:        2 bytes
  4791 ;; Hardware stack levels used: 1
  4792 ;; Hardware stack levels required when called: 6
  4793 ;; This function calls:
  4794 ;;		Absolute function
  4795 ;;		_I2C1_CallbackReturnReset
  4796 ;;		_I2C1_CallbackReturnStop
  4797 ;;		_I2C1_DO_RESET
  4798 ;;		_I2C1_DO_SEND_RESTART_READ
  4799 ;;		_I2C1_DO_SEND_RESTART_WRITE
  4800 ;;		_I2C1_MasterClearIrq
  4801 ;;		_rd1RegCompleteHandler
  4802 ;;		_rd1RegCompleteHandler@i2c1_master_example$F145
  4803 ;;		_rd2RegCompleteHandler
  4804 ;;		_rd2RegCompleteHandler@i2c1_master_example$F156
  4805 ;;		_rdBlkRegCompleteHandler
  4806 ;;		_rdBlkRegCompleteHandler@i2c1_master_example$F179
  4807 ;;		_wr1RegCompleteHandler
  4808 ;;		_wr1RegCompleteHandler@i2c1_master_example$F162
  4809 ;;		_wr2RegCompleteHandler
  4810 ;;		_wr2RegCompleteHandler@i2c1_master_example$F168
  4811 ;; This function is called by:
  4812 ;;		_I2C1_MasterFsm
  4813 ;; This function uses a non-reentrant model
  4814 ;;
  4815                           
  4816                           	psect	text16
  4817   002DDE                     __ptext16:
  4818                           	callstack 0
  4819   002DDE                     _I2C1_DO_BUS_COLLISION:
  4820                           	callstack 19
  4821   002DDE                     
  4822                           ;mcc_generated_files/i2c1_master.c: 582:     I2C1_MasterClearIrq();
  4823   002DDE  EC87  F01B         	call	_I2C1_MasterClearIrq	;wreg free
  4824   002DE2                     
  4825                           ;mcc_generated_files/i2c1_master.c: 584:     I2C1_Status.error = I2C1_FAIL;
  4826   002DE2  0E02               	movlw	2
  4827   002DE4  0100               	movlb	0	; () banked
  4828   002DE6  6F82               	movwf	(_I2C1_Status+34)& (0+255),b
  4829                           
  4830                           ;mcc_generated_files/i2c1_master.c: 585:     switch (I2C1_Status.callbackTable[I2C1_WRIT
      +                          E_COLLISION](I2C1_Status.callbackPayload[I2C1_WRITE_COLLISION])) {
  4831   002DE8  EF02  F017         	goto	l3814
  4832   002DEC                     l3800:
  4833                           
  4834                           ;mcc_generated_files/i2c1_master.c: 587:         return I2C1_DO_SEND_RESTART_READ();
  4835   002DEC  EC42  F01B         	call	_I2C1_DO_SEND_RESTART_READ	;wreg free
  4836   002DF0  EF26  F017         	goto	l641
  4837   002DF4                     l3804:
  4838                           
  4839                           ;mcc_generated_files/i2c1_master.c: 589:         return I2C1_DO_SEND_RESTART_WRITE();
  4840   002DF4  ECAB  F01B         	call	_I2C1_DO_SEND_RESTART_WRITE	;wreg free
  4841   002DF8  EF26  F017         	goto	l641
  4842   002DFC                     l3808:
  4843                           
  4844                           ;mcc_generated_files/i2c1_master.c: 591:         return I2C1_DO_RESET();
  4845   002DFC  EC33  F01B         	call	_I2C1_DO_RESET	;wreg free
  4846   002E00  EF26  F017         	goto	l641
  4847   002E04                     l3814:
  4848                           
  4849                           ; BSR set to: 0
  4850   002E04  C06E  F00A         	movff	_I2C1_Status+14,I2C1_CallbackReturnReset@funPtr
  4851   002E08  C06F  F00B         	movff	_I2C1_Status+15,I2C1_CallbackReturnReset@funPtr+1
  4852   002E0C  D802               	call	u1848
  4853   002E0E  EF12  F017         	goto	u1849
  4854   002E12                     u1848:
  4855   002E12  0005               	push	
  4856   002E14  6EFA               	movwf	pclath,c
  4857   002E16  5162               	movf	(_I2C1_Status+2)& (0+255),w,b
  4858   002E18  6EFD               	movwf	tosl,c
  4859   002E1A  5163               	movf	(_I2C1_Status+3)& (0+255),w,b
  4860   002E1C  6EFE               	movwf	tosh,c
  4861   002E1E  6AFF               	clrf	tosu,c
  4862   002E20  50FA               	movf	pclath,w,c
  4863   002E22  0012               	return		;indir
  4864   002E24                     u1849:
  4865   002E24  6E0C               	movwf	??_I2C1_DO_BUS_COLLISION^0,c
  4866   002E26  6A0D               	clrf	(??_I2C1_DO_BUS_COLLISION+1)^0,c
  4867                           
  4868                           ; Switch on 2 bytes has been partitioned into a top level switch of size 1, and 1 sub-sw
      +                          itches
  4869                           ; Switch size 1, requested type "simple"
  4870                           ; Number of cases is 1, Range of values is 0 to 0
  4871                           ; switch strategies available:
  4872                           ; Name         Instructions Cycles
  4873                           ; simple_byte            4     3 (average)
  4874                           ;	Chosen strategy is simple_byte
  4875   002E28  500D               	movf	(??_I2C1_DO_BUS_COLLISION+1)^0,w,c
  4876   002E2A  0A00               	xorlw	0	; case 0
  4877   002E2C  B4D8               	btfsc	status,2,c
  4878   002E2E  EF1B  F017         	goto	l4990
  4879   002E32  EFFE  F016         	goto	l3808
  4880   002E36                     l4990:
  4881                           
  4882                           ; Switch size 1, requested type "simple"
  4883                           ; Number of cases is 2, Range of values is 2 to 3
  4884                           ; switch strategies available:
  4885                           ; Name         Instructions Cycles
  4886                           ; simple_byte            7     4 (average)
  4887                           ;	Chosen strategy is simple_byte
  4888   002E36  500C               	movf	??_I2C1_DO_BUS_COLLISION^0,w,c
  4889   002E38  0A02               	xorlw	2	; case 2
  4890   002E3A  B4D8               	btfsc	status,2,c
  4891   002E3C  EFF6  F016         	goto	l3800
  4892   002E40  0A01               	xorlw	1	; case 3
  4893   002E42  B4D8               	btfsc	status,2,c
  4894   002E44  EFFA  F016         	goto	l3804
  4895   002E48  EFFE  F016         	goto	l3808
  4896   002E4C                     l641:
  4897   002E4C  0012               	return		;funcret
  4898   002E4E                     __end_of_I2C1_DO_BUS_COLLISION:
  4899                           	callstack 0
  4900                           
  4901 ;; *************** function _I2C1_DO_ADDRESS_NACK *****************
  4902 ;; Defined at:
  4903 ;;		line 564 in file "mcc_generated_files/i2c1_master.c"
  4904 ;; Parameters:    Size  Location     Type
  4905 ;;		None
  4906 ;; Auto vars:     Size  Location     Type
  4907 ;;		None
  4908 ;; Return value:  Size  Location     Type
  4909 ;;                  1    wreg      enum E16234
  4910 ;; Registers used:
  4911 ;;		wreg, fsr2l, fsr2h, status,2, status,0, pcl, pclath, pclatu, tosl, prodl, prodh, cstack
  4912 ;; Tracked objects:
  4913 ;;		On entry : 0/0
  4914 ;;		On exit  : 0/0
  4915 ;;		Unchanged: 0/0
  4916 ;; Data sizes:     COMRAM   BANK0   BANK1   BANK2   BANK3   BANK4   BANK5   BANK6   BANK7   BANK8   BANK9  BANK10  BANK1
      +1  BANK12  BANK13  BANK14  BANK15
  4917 ;;      Params:         0       0       0       0       0       0       0       0       0       0       0       0       
      +0       0       0       0       0
  4918 ;;      Locals:         0       0       0       0       0       0       0       0       0       0       0       0       
      +0       0       0       0       0
  4919 ;;      Temps:          2       0       0       0       0       0       0       0       0       0       0       0       
      +0       0       0       0       0
  4920 ;;      Totals:         2       0       0       0       0       0       0       0       0       0       0       0       
      +0       0       0       0       0
  4921 ;;Total ram usage:        2 bytes
  4922 ;; Hardware stack levels used: 1
  4923 ;; Hardware stack levels required when called: 3
  4924 ;; This function calls:
  4925 ;;		Absolute function
  4926 ;;		_I2C1_CallbackReturnReset
  4927 ;;		_I2C1_CallbackReturnStop
  4928 ;;		_I2C1_DO_SEND_RESTART
  4929 ;;		_rd1RegCompleteHandler
  4930 ;;		_rd1RegCompleteHandler@i2c1_master_example$F145
  4931 ;;		_rd2RegCompleteHandler
  4932 ;;		_rd2RegCompleteHandler@i2c1_master_example$F156
  4933 ;;		_rdBlkRegCompleteHandler
  4934 ;;		_rdBlkRegCompleteHandler@i2c1_master_example$F179
  4935 ;;		_wr1RegCompleteHandler
  4936 ;;		_wr1RegCompleteHandler@i2c1_master_example$F162
  4937 ;;		_wr2RegCompleteHandler
  4938 ;;		_wr2RegCompleteHandler@i2c1_master_example$F168
  4939 ;; This function is called by:
  4940 ;;		_I2C1_MasterFsm
  4941 ;; This function uses a non-reentrant model
  4942 ;;
  4943                           
  4944                           	psect	text17
  4945   002E4E                     __ptext17:
  4946                           	callstack 0
  4947   002E4E                     _I2C1_DO_ADDRESS_NACK:
  4948                           	callstack 22
  4949   002E4E                     
  4950                           ;mcc_generated_files/i2c1_master.c: 566:     I2C1_Status.addressNackCheck = 0;
  4951   002E4E  0EFC               	movlw	-4
  4952   002E50  0100               	movlb	0	; () banked
  4953   002E52  1783               	andwf	(_I2C1_Status+35)& (0+255),f,b
  4954                           
  4955                           ;mcc_generated_files/i2c1_master.c: 567:     I2C1_Status.error = I2C1_FAIL;
  4956   002E54  0E02               	movlw	2
  4957   002E56  6F82               	movwf	(_I2C1_Status+34)& (0+255),b
  4958   002E58                     
  4959                           ; BSR set to: 0
  4960                           ;mcc_generated_files/i2c1_master.c: 568:     I2C1_Status.busy = 0;
  4961   002E58  9583               	bcf	(_I2C1_Status+35)& (0+255),2,b
  4962                           
  4963                           ;mcc_generated_files/i2c1_master.c: 569:     switch(I2C1_Status.callbackTable[I2C1_ADDR_
      +                          NACK](I2C1_Status.callbackPayload[I2C1_ADDR_NACK]))
  4964   002E5A  EF36  F017         	goto	l3790
  4965   002E5E                     l3780:
  4966                           
  4967                           ;mcc_generated_files/i2c1_master.c: 573:             return I2C1_DO_SEND_RESTART();
  4968   002E5E  ECA9  F01B         	call	_I2C1_DO_SEND_RESTART	;wreg free
  4969   002E62  EF5A  F017         	goto	l634
  4970   002E66                     l3784:
  4971                           
  4972                           ;mcc_generated_files/i2c1_master.c: 575:             return I2C1_RESET;
  4973   002E66  0E0F               	movlw	15
  4974   002E68  EF5A  F017         	goto	l634
  4975   002E6C                     l3790:
  4976                           
  4977                           ; BSR set to: 0
  4978   002E6C  C070  F00A         	movff	_I2C1_Status+16,I2C1_CallbackReturnReset@funPtr
  4979   002E70  C071  F00B         	movff	_I2C1_Status+17,I2C1_CallbackReturnReset@funPtr+1
  4980   002E74  D802               	call	u1838
  4981   002E76  EF46  F017         	goto	u1839
  4982   002E7A                     u1838:
  4983   002E7A  0005               	push	
  4984   002E7C  6EFA               	movwf	pclath,c
  4985   002E7E  5164               	movf	(_I2C1_Status+4)& (0+255),w,b
  4986   002E80  6EFD               	movwf	tosl,c
  4987   002E82  5165               	movf	(_I2C1_Status+5)& (0+255),w,b
  4988   002E84  6EFE               	movwf	tosh,c
  4989   002E86  6AFF               	clrf	tosu,c
  4990   002E88  50FA               	movf	pclath,w,c
  4991   002E8A  0012               	return		;indir
  4992   002E8C                     u1839:
  4993   002E8C  6E0C               	movwf	??_I2C1_DO_ADDRESS_NACK^0,c
  4994   002E8E  6A0D               	clrf	(??_I2C1_DO_ADDRESS_NACK+1)^0,c
  4995                           
  4996                           ; Switch on 2 bytes has been partitioned into a top level switch of size 1, and 1 sub-sw
      +                          itches
  4997                           ; Switch size 1, requested type "simple"
  4998                           ; Number of cases is 1, Range of values is 0 to 0
  4999                           ; switch strategies available:
  5000                           ; Name         Instructions Cycles
  5001                           ; simple_byte            4     3 (average)
  5002                           ;	Chosen strategy is simple_byte
  5003   002E90  500D               	movf	(??_I2C1_DO_ADDRESS_NACK+1)^0,w,c
  5004   002E92  0A00               	xorlw	0	; case 0
  5005   002E94  B4D8               	btfsc	status,2,c
  5006   002E96  EF4F  F017         	goto	l4992
  5007   002E9A  EF33  F017         	goto	l3784
  5008   002E9E                     l4992:
  5009                           
  5010                           ; Switch size 1, requested type "simple"
  5011                           ; Number of cases is 2, Range of values is 2 to 3
  5012                           ; switch strategies available:
  5013                           ; Name         Instructions Cycles
  5014                           ; simple_byte            7     4 (average)
  5015                           ;	Chosen strategy is simple_byte
  5016   002E9E  500C               	movf	??_I2C1_DO_ADDRESS_NACK^0,w,c
  5017   002EA0  0A02               	xorlw	2	; case 2
  5018   002EA2  B4D8               	btfsc	status,2,c
  5019   002EA4  EF2F  F017         	goto	l3780
  5020   002EA8  0A01               	xorlw	1	; case 3
  5021   002EAA  B4D8               	btfsc	status,2,c
  5022   002EAC  EF2F  F017         	goto	l3780
  5023   002EB0  EF33  F017         	goto	l3784
  5024   002EB4                     l634:
  5025   002EB4  0012               	return		;funcret
  5026   002EB6                     __end_of_I2C1_DO_ADDRESS_NACK:
  5027                           	callstack 0
  5028                           
  5029 ;; *************** function _I2C1_DO_RESET *****************
  5030 ;; Defined at:
  5031 ;;		line 557 in file "mcc_generated_files/i2c1_master.c"
  5032 ;; Parameters:    Size  Location     Type
  5033 ;;		None
  5034 ;; Auto vars:     Size  Location     Type
  5035 ;;		None
  5036 ;; Return value:  Size  Location     Type
  5037 ;;                  1    wreg      enum E16234
  5038 ;; Registers used:
  5039 ;;		wreg, status,2, cstack
  5040 ;; Tracked objects:
  5041 ;;		On entry : 0/0
  5042 ;;		On exit  : 0/0
  5043 ;;		Unchanged: 0/0
  5044 ;; Data sizes:     COMRAM   BANK0   BANK1   BANK2   BANK3   BANK4   BANK5   BANK6   BANK7   BANK8   BANK9  BANK10  BANK1
      +1  BANK12  BANK13  BANK14  BANK15
  5045 ;;      Params:         0       0       0       0       0       0       0       0       0       0       0       0       
      +0       0       0       0       0
  5046 ;;      Locals:         0       0       0       0       0       0       0       0       0       0       0       0       
      +0       0       0       0       0
  5047 ;;      Temps:          0       0       0       0       0       0       0       0       0       0       0       0       
      +0       0       0       0       0
  5048 ;;      Totals:         0       0       0       0       0       0       0       0       0       0       0       0       
      +0       0       0       0       0
  5049 ;;Total ram usage:        0 bytes
  5050 ;; Hardware stack levels used: 1
  5051 ;; Hardware stack levels required when called: 1
  5052 ;; This function calls:
  5053 ;;		_I2C1_MasterResetBus
  5054 ;; This function is called by:
  5055 ;;		_I2C1_DO_BUS_COLLISION
  5056 ;;		_I2C1_MasterFsm
  5057 ;; This function uses a non-reentrant model
  5058 ;;
  5059                           
  5060                           	psect	text18
  5061   003666                     __ptext18:
  5062                           	callstack 0
  5063   003666                     _I2C1_DO_RESET:
  5064                           	callstack 24
  5065   003666                     
  5066                           ;mcc_generated_files/i2c1_master.c: 559:     I2C1_MasterResetBus();
  5067   003666  EC5F  F01B         	call	_I2C1_MasterResetBus	;wreg free
  5068   00366A                     
  5069                           ;mcc_generated_files/i2c1_master.c: 560:     I2C1_Status.busy = 0;
  5070   00366A  0100               	movlb	0	; () banked
  5071   00366C  9583               	bcf	(_I2C1_Status+35)& (0+255),2,b
  5072   00366E                     
  5073                           ; BSR set to: 0
  5074                           ;mcc_generated_files/i2c1_master.c: 561:     I2C1_Status.error = I2C1_NOERR;
  5075   00366E  0E00               	movlw	0
  5076   003670  6F82               	movwf	(_I2C1_Status+34)& (0+255),b
  5077   003672                     
  5078                           ; BSR set to: 0
  5079                           ;mcc_generated_files/i2c1_master.c: 562:     return I2C1_RESET;
  5080   003672  0E0F               	movlw	15
  5081   003674                     
  5082                           ; BSR set to: 0
  5083   003674  0012               	return		;funcret
  5084   003676                     __end_of_I2C1_DO_RESET:
  5085                           	callstack 0
  5086                           
  5087 ;; *************** function _I2C1_DO_RX_NACK_RESTART *****************
  5088 ;; Defined at:
  5089 ;;		line 551 in file "mcc_generated_files/i2c1_master.c"
  5090 ;; Parameters:    Size  Location     Type
  5091 ;;		None
  5092 ;; Auto vars:     Size  Location     Type
  5093 ;;		None
  5094 ;; Return value:  Size  Location     Type
  5095 ;;                  1    wreg      enum E16234
  5096 ;; Registers used:
  5097 ;;		wreg, cstack
  5098 ;; Tracked objects:
  5099 ;;		On entry : 0/0
  5100 ;;		On exit  : 0/0
  5101 ;;		Unchanged: 0/0
  5102 ;; Data sizes:     COMRAM   BANK0   BANK1   BANK2   BANK3   BANK4   BANK5   BANK6   BANK7   BANK8   BANK9  BANK10  BANK1
      +1  BANK12  BANK13  BANK14  BANK15
  5103 ;;      Params:         0       0       0       0       0       0       0       0       0       0       0       0       
      +0       0       0       0       0
  5104 ;;      Locals:         0       0       0       0       0       0       0       0       0       0       0       0       
      +0       0       0       0       0
  5105 ;;      Temps:          0       0       0       0       0       0       0       0       0       0       0       0       
      +0       0       0       0       0
  5106 ;;      Totals:         0       0       0       0       0       0       0       0       0       0       0       0       
      +0       0       0       0       0
  5107 ;;Total ram usage:        0 bytes
  5108 ;; Hardware stack levels used: 1
  5109 ;; Hardware stack levels required when called: 1
  5110 ;; This function calls:
  5111 ;;		_I2C1_MasterSendNack
  5112 ;; This function is called by:
  5113 ;;		_I2C1_MasterFsm
  5114 ;; This function uses a non-reentrant model
  5115 ;;
  5116                           
  5117                           	psect	text19
  5118   0036F6                     __ptext19:
  5119                           	callstack 0
  5120   0036F6                     _I2C1_DO_RX_NACK_RESTART:
  5121                           	callstack 24
  5122   0036F6                     
  5123                           ;mcc_generated_files/i2c1_master.c: 553:     I2C1_MasterSendNack();
  5124   0036F6  EC91  F01B         	call	_I2C1_MasterSendNack	;wreg free
  5125   0036FA                     
  5126                           ;mcc_generated_files/i2c1_master.c: 554:     return I2C1_SEND_RESTART;
  5127   0036FA  0E09               	movlw	9
  5128   0036FC  0012               	return		;funcret
  5129   0036FE                     __end_of_I2C1_DO_RX_NACK_RESTART:
  5130                           	callstack 0
  5131                           
  5132 ;; *************** function _I2C1_DO_RX_NACK_STOP *****************
  5133 ;; Defined at:
  5134 ;;		line 544 in file "mcc_generated_files/i2c1_master.c"
  5135 ;; Parameters:    Size  Location     Type
  5136 ;;		None
  5137 ;; Auto vars:     Size  Location     Type
  5138 ;;		None
  5139 ;; Return value:  Size  Location     Type
  5140 ;;                  1    wreg      enum E16234
  5141 ;; Registers used:
  5142 ;;		wreg, status,2, cstack
  5143 ;; Tracked objects:
  5144 ;;		On entry : 0/0
  5145 ;;		On exit  : 0/0
  5146 ;;		Unchanged: 0/0
  5147 ;; Data sizes:     COMRAM   BANK0   BANK1   BANK2   BANK3   BANK4   BANK5   BANK6   BANK7   BANK8   BANK9  BANK10  BANK1
      +1  BANK12  BANK13  BANK14  BANK15
  5148 ;;      Params:         0       0       0       0       0       0       0       0       0       0       0       0       
      +0       0       0       0       0
  5149 ;;      Locals:         0       0       0       0       0       0       0       0       0       0       0       0       
      +0       0       0       0       0
  5150 ;;      Temps:          0       0       0       0       0       0       0       0       0       0       0       0       
      +0       0       0       0       0
  5151 ;;      Totals:         0       0       0       0       0       0       0       0       0       0       0       0       
      +0       0       0       0       0
  5152 ;;Total ram usage:        0 bytes
  5153 ;; Hardware stack levels used: 1
  5154 ;; Hardware stack levels required when called: 1
  5155 ;; This function calls:
  5156 ;;		_I2C1_DO_IDLE
  5157 ;;		_I2C1_MasterSendNack
  5158 ;;		_I2C1_MasterStop
  5159 ;; This function is called by:
  5160 ;;		_I2C1_MasterFsm
  5161 ;; This function uses a non-reentrant model
  5162 ;;
  5163                           
  5164                           	psect	text20
  5165   003676                     __ptext20:
  5166                           	callstack 0
  5167   003676                     _I2C1_DO_RX_NACK_STOP:
  5168                           	callstack 24
  5169   003676                     
  5170                           ;mcc_generated_files/i2c1_master.c: 546:     I2C1_MasterSendNack();
  5171   003676  EC91  F01B         	call	_I2C1_MasterSendNack	;wreg free
  5172                           
  5173                           ;mcc_generated_files/i2c1_master.c: 547:     I2C1_MasterStop();
  5174   00367A  EC8E  F01B         	call	_I2C1_MasterStop	;wreg free
  5175   00367E                     
  5176                           ;mcc_generated_files/i2c1_master.c: 548:     return I2C1_DO_IDLE();
  5177   00367E  EC49  F01B         	call	_I2C1_DO_IDLE	;wreg free
  5178   003682  0012               	return		;funcret
  5179   003684                     __end_of_I2C1_DO_RX_NACK_STOP:
  5180                           	callstack 0
  5181                           
  5182 ;; *************** function _I2C1_DO_RX_ACK *****************
  5183 ;; Defined at:
  5184 ;;		line 532 in file "mcc_generated_files/i2c1_master.c"
  5185 ;; Parameters:    Size  Location     Type
  5186 ;;		None
  5187 ;; Auto vars:     Size  Location     Type
  5188 ;;		None
  5189 ;; Return value:  Size  Location     Type
  5190 ;;                  1    wreg      enum E16234
  5191 ;; Registers used:
  5192 ;;		wreg, cstack
  5193 ;; Tracked objects:
  5194 ;;		On entry : 0/0
  5195 ;;		On exit  : 0/0
  5196 ;;		Unchanged: 0/0
  5197 ;; Data sizes:     COMRAM   BANK0   BANK1   BANK2   BANK3   BANK4   BANK5   BANK6   BANK7   BANK8   BANK9  BANK10  BANK1
      +1  BANK12  BANK13  BANK14  BANK15
  5198 ;;      Params:         0       0       0       0       0       0       0       0       0       0       0       0       
      +0       0       0       0       0
  5199 ;;      Locals:         0       0       0       0       0       0       0       0       0       0       0       0       
      +0       0       0       0       0
  5200 ;;      Temps:          0       0       0       0       0       0       0       0       0       0       0       0       
      +0       0       0       0       0
  5201 ;;      Totals:         0       0       0       0       0       0       0       0       0       0       0       0       
      +0       0       0       0       0
  5202 ;;Total ram usage:        0 bytes
  5203 ;; Hardware stack levels used: 1
  5204 ;; Hardware stack levels required when called: 1
  5205 ;; This function calls:
  5206 ;;		_I2C1_MasterSendAck
  5207 ;; This function is called by:
  5208 ;;		_I2C1_MasterFsm
  5209 ;; This function uses a non-reentrant model
  5210 ;;
  5211                           
  5212                           	psect	text21
  5213   0036FE                     __ptext21:
  5214                           	callstack 0
  5215   0036FE                     _I2C1_DO_RX_ACK:
  5216                           	callstack 24
  5217   0036FE                     
  5218                           ;mcc_generated_files/i2c1_master.c: 534:     I2C1_MasterSendAck();
  5219   0036FE  EC94  F01B         	call	_I2C1_MasterSendAck	;wreg free
  5220   003702                     
  5221                           ;mcc_generated_files/i2c1_master.c: 535:     return I2C1_RX;
  5222   003702  0E04               	movlw	4
  5223   003704  0012               	return		;funcret
  5224   003706                     __end_of_I2C1_DO_RX_ACK:
  5225                           	callstack 0
  5226                           
  5227 ;; *************** function _I2C1_DO_SEND_STOP *****************
  5228 ;; Defined at:
  5229 ;;		line 521 in file "mcc_generated_files/i2c1_master.c"
  5230 ;; Parameters:    Size  Location     Type
  5231 ;;		None
  5232 ;; Auto vars:     Size  Location     Type
  5233 ;;		None
  5234 ;; Return value:  Size  Location     Type
  5235 ;;                  1    wreg      enum E16234
  5236 ;; Registers used:
  5237 ;;		wreg, status,2, cstack
  5238 ;; Tracked objects:
  5239 ;;		On entry : 0/0
  5240 ;;		On exit  : 0/0
  5241 ;;		Unchanged: 0/0
  5242 ;; Data sizes:     COMRAM   BANK0   BANK1   BANK2   BANK3   BANK4   BANK5   BANK6   BANK7   BANK8   BANK9  BANK10  BANK1
      +1  BANK12  BANK13  BANK14  BANK15
  5243 ;;      Params:         0       0       0       0       0       0       0       0       0       0       0       0       
      +0       0       0       0       0
  5244 ;;      Locals:         0       0       0       0       0       0       0       0       0       0       0       0       
      +0       0       0       0       0
  5245 ;;      Temps:          0       0       0       0       0       0       0       0       0       0       0       0       
      +0       0       0       0       0
  5246 ;;      Totals:         0       0       0       0       0       0       0       0       0       0       0       0       
      +0       0       0       0       0
  5247 ;;Total ram usage:        0 bytes
  5248 ;; Hardware stack levels used: 1
  5249 ;; Hardware stack levels required when called: 1
  5250 ;; This function calls:
  5251 ;;		_I2C1_MasterGetCounter
  5252 ;;		_I2C1_MasterSendTxData
  5253 ;;		_I2C1_MasterSetCounter
  5254 ;;		_I2C1_MasterStop
  5255 ;; This function is called by:
  5256 ;;		_I2C1_MasterFsm
  5257 ;; This function uses a non-reentrant model
  5258 ;;
  5259                           
  5260                           	psect	text22
  5261   003434                     __ptext22:
  5262                           	callstack 0
  5263   003434                     _I2C1_DO_SEND_STOP:
  5264                           	callstack 24
  5265   003434                     
  5266                           ;mcc_generated_files/i2c1_master.c: 523:     I2C1_MasterStop();
  5267   003434  EC8E  F01B         	call	_I2C1_MasterStop	;wreg free
  5268   003438                     
  5269                           ;mcc_generated_files/i2c1_master.c: 524:     if(I2C1_MasterGetCounter())
  5270   003438  EC8B  F01B         	call	_I2C1_MasterGetCounter	;wreg free
  5271   00343C  0900               	iorlw	0
  5272   00343E  B4D8               	btfsc	status,2,c
  5273   003440  EF24  F01A         	goto	u1821
  5274   003444  EF26  F01A         	goto	u1820
  5275   003448                     u1821:
  5276   003448  EF2C  F01A         	goto	l3748
  5277   00344C                     u1820:
  5278   00344C                     
  5279                           ;mcc_generated_files/i2c1_master.c: 525:     {;mcc_generated_files/i2c1_master.c: 526:  
      +                                 I2C1_MasterSetCounter(0);
  5280   00344C  0E00               	movlw	0
  5281   00344E  EC5A  F01B         	call	_I2C1_MasterSetCounter
  5282                           
  5283                           ;mcc_generated_files/i2c1_master.c: 527:         I2C1_MasterSendTxData(0);
  5284   003452  0E00               	movlw	0
  5285   003454  EC55  F01B         	call	_I2C1_MasterSendTxData
  5286   003458                     l3748:
  5287                           
  5288                           ;mcc_generated_files/i2c1_master.c: 529:     return I2C1_IDLE;
  5289   003458  0E00               	movlw	0
  5290   00345A  0012               	return		;funcret
  5291   00345C                     __end_of_I2C1_DO_SEND_STOP:
  5292                           	callstack 0
  5293                           
  5294 ;; *************** function _I2C1_DO_SEND_RESTART *****************
  5295 ;; Defined at:
  5296 ;;		line 516 in file "mcc_generated_files/i2c1_master.c"
  5297 ;; Parameters:    Size  Location     Type
  5298 ;;		None
  5299 ;; Auto vars:     Size  Location     Type
  5300 ;;		None
  5301 ;; Return value:  Size  Location     Type
  5302 ;;                  1    wreg      enum E16234
  5303 ;; Registers used:
  5304 ;;		wreg
  5305 ;; Tracked objects:
  5306 ;;		On entry : 0/0
  5307 ;;		On exit  : 0/0
  5308 ;;		Unchanged: 0/0
  5309 ;; Data sizes:     COMRAM   BANK0   BANK1   BANK2   BANK3   BANK4   BANK5   BANK6   BANK7   BANK8   BANK9  BANK10  BANK1
      +1  BANK12  BANK13  BANK14  BANK15
  5310 ;;      Params:         0       0       0       0       0       0       0       0       0       0       0       0       
      +0       0       0       0       0
  5311 ;;      Locals:         0       0       0       0       0       0       0       0       0       0       0       0       
      +0       0       0       0       0
  5312 ;;      Temps:          0       0       0       0       0       0       0       0       0       0       0       0       
      +0       0       0       0       0
  5313 ;;      Totals:         0       0       0       0       0       0       0       0       0       0       0       0       
      +0       0       0       0       0
  5314 ;;Total ram usage:        0 bytes
  5315 ;; Hardware stack levels used: 1
  5316 ;; This function calls:
  5317 ;;		Nothing
  5318 ;; This function is called by:
  5319 ;;		_I2C1_DO_ADDRESS_NACK
  5320 ;;		_I2C1_MasterFsm
  5321 ;; This function uses a non-reentrant model
  5322 ;;
  5323                           
  5324                           	psect	text23
  5325   003752                     __ptext23:
  5326                           	callstack 0
  5327   003752                     _I2C1_DO_SEND_RESTART:
  5328                           	callstack 25
  5329   003752                     
  5330                           ;mcc_generated_files/i2c1_master.c: 518:     return I2C1_SEND_ADR_READ;
  5331   003752  0E01               	movlw	1
  5332   003754  0012               	return		;funcret
  5333   003756                     __end_of_I2C1_DO_SEND_RESTART:
  5334                           	callstack 0
  5335                           
  5336 ;; *************** function _I2C1_DO_SEND_RESTART_WRITE *****************
  5337 ;; Defined at:
  5338 ;;		line 510 in file "mcc_generated_files/i2c1_master.c"
  5339 ;; Parameters:    Size  Location     Type
  5340 ;;		None
  5341 ;; Auto vars:     Size  Location     Type
  5342 ;;		None
  5343 ;; Return value:  Size  Location     Type
  5344 ;;                  1    wreg      enum E16234
  5345 ;; Registers used:
  5346 ;;		wreg
  5347 ;; Tracked objects:
  5348 ;;		On entry : 0/0
  5349 ;;		On exit  : 0/0
  5350 ;;		Unchanged: 0/0
  5351 ;; Data sizes:     COMRAM   BANK0   BANK1   BANK2   BANK3   BANK4   BANK5   BANK6   BANK7   BANK8   BANK9  BANK10  BANK1
      +1  BANK12  BANK13  BANK14  BANK15
  5352 ;;      Params:         0       0       0       0       0       0       0       0       0       0       0       0       
      +0       0       0       0       0
  5353 ;;      Locals:         0       0       0       0       0       0       0       0       0       0       0       0       
      +0       0       0       0       0
  5354 ;;      Temps:          0       0       0       0       0       0       0       0       0       0       0       0       
      +0       0       0       0       0
  5355 ;;      Totals:         0       0       0       0       0       0       0       0       0       0       0       0       
      +0       0       0       0       0
  5356 ;;Total ram usage:        0 bytes
  5357 ;; Hardware stack levels used: 1
  5358 ;; This function calls:
  5359 ;;		Nothing
  5360 ;; This function is called by:
  5361 ;;		_I2C1_DO_TX
  5362 ;;		_I2C1_DO_BUS_COLLISION
  5363 ;;		_I2C1_MasterFsm
  5364 ;; This function uses a non-reentrant model
  5365 ;;
  5366                           
  5367                           	psect	text24
  5368   003756                     __ptext24:
  5369                           	callstack 0
  5370   003756                     _I2C1_DO_SEND_RESTART_WRITE:
  5371                           	callstack 24
  5372   003756                     
  5373                           ;mcc_generated_files/i2c1_master.c: 512:     return I2C1_SEND_ADR_WRITE;
  5374   003756  0E02               	movlw	2
  5375   003758  0012               	return		;funcret
  5376   00375A                     __end_of_I2C1_DO_SEND_RESTART_WRITE:
  5377                           	callstack 0
  5378                           
  5379 ;; *************** function _I2C1_DO_SEND_RESTART_READ *****************
  5380 ;; Defined at:
  5381 ;;		line 504 in file "mcc_generated_files/i2c1_master.c"
  5382 ;; Parameters:    Size  Location     Type
  5383 ;;		None
  5384 ;; Auto vars:     Size  Location     Type
  5385 ;;		None
  5386 ;; Return value:  Size  Location     Type
  5387 ;;                  1    wreg      enum E16234
  5388 ;; Registers used:
  5389 ;;		wreg, fsr2l, fsr2h, status,2, status,0, pcl, pclath, pclatu, tosl, prodl, prodh, cstack
  5390 ;; Tracked objects:
  5391 ;;		On entry : 0/0
  5392 ;;		On exit  : 0/0
  5393 ;;		Unchanged: 0/0
  5394 ;; Data sizes:     COMRAM   BANK0   BANK1   BANK2   BANK3   BANK4   BANK5   BANK6   BANK7   BANK8   BANK9  BANK10  BANK1
      +1  BANK12  BANK13  BANK14  BANK15
  5395 ;;      Params:         0       0       0       0       0       0       0       0       0       0       0       0       
      +0       0       0       0       0
  5396 ;;      Locals:         0       0       0       0       0       0       0       0       0       0       0       0       
      +0       0       0       0       0
  5397 ;;      Temps:          0       0       0       0       0       0       0       0       0       0       0       0       
      +0       0       0       0       0
  5398 ;;      Totals:         0       0       0       0       0       0       0       0       0       0       0       0       
      +0       0       0       0       0
  5399 ;;Total ram usage:        0 bytes
  5400 ;; Hardware stack levels used: 1
  5401 ;; Hardware stack levels required when called: 5
  5402 ;; This function calls:
  5403 ;;		_I2C1_DO_SEND_ADR_READ
  5404 ;;		_I2C1_MasterSetCounter
  5405 ;; This function is called by:
  5406 ;;		_I2C1_DO_TX
  5407 ;;		_I2C1_DO_BUS_COLLISION
  5408 ;;		_I2C1_MasterFsm
  5409 ;; This function uses a non-reentrant model
  5410 ;;
  5411                           
  5412                           	psect	text25
  5413   003684                     __ptext25:
  5414                           	callstack 0
  5415   003684                     _I2C1_DO_SEND_RESTART_READ:
  5416                           	callstack 19
  5417   003684                     
  5418                           ;mcc_generated_files/i2c1_master.c: 506:     I2C1_MasterSetCounter((uint8_t) I2C1_Status
      +                          .data_length);
  5419   003684  0100               	movlb	0	; () banked
  5420   003686  517F               	movf	(_I2C1_Status+31)& (0+255),w,b
  5421   003688  EC5A  F01B         	call	_I2C1_MasterSetCounter
  5422   00368C                     
  5423                           ;mcc_generated_files/i2c1_master.c: 507:     return I2C1_DO_SEND_ADR_READ();
  5424   00368C  EC3D  F019         	call	_I2C1_DO_SEND_ADR_READ	;wreg free
  5425   003690  0012               	return		;funcret
  5426   003692                     __end_of_I2C1_DO_SEND_RESTART_READ:
  5427                           	callstack 0
  5428                           
  5429 ;; *************** function _I2C1_DO_RX_EMPTY *****************
  5430 ;; Defined at:
  5431 ;;		line 479 in file "mcc_generated_files/i2c1_master.c"
  5432 ;; Parameters:    Size  Location     Type
  5433 ;;		None
  5434 ;; Auto vars:     Size  Location     Type
  5435 ;;		None
  5436 ;; Return value:  Size  Location     Type
  5437 ;;                  1    wreg      enum E16234
  5438 ;; Registers used:
  5439 ;;		wreg, fsr2l, fsr2h, status,2, status,0, pcl, pclath, pclatu, tosl, prodl, prodh, cstack
  5440 ;; Tracked objects:
  5441 ;;		On entry : 0/0
  5442 ;;		On exit  : 0/0
  5443 ;;		Unchanged: 0/0
  5444 ;; Data sizes:     COMRAM   BANK0   BANK1   BANK2   BANK3   BANK4   BANK5   BANK6   BANK7   BANK8   BANK9  BANK10  BANK1
      +1  BANK12  BANK13  BANK14  BANK15
  5445 ;;      Params:         0       0       0       0       0       0       0       0       0       0       0       0       
      +0       0       0       0       0
  5446 ;;      Locals:         0       0       0       0       0       0       0       0       0       0       0       0       
      +0       0       0       0       0
  5447 ;;      Temps:          2       0       0       0       0       0       0       0       0       0       0       0       
      +0       0       0       0       0
  5448 ;;      Totals:         2       0       0       0       0       0       0       0       0       0       0       0       
      +0       0       0       0       0
  5449 ;;Total ram usage:        2 bytes
  5450 ;; Hardware stack levels used: 1
  5451 ;; Hardware stack levels required when called: 3
  5452 ;; This function calls:
  5453 ;;		Absolute function
  5454 ;;		_I2C1_CallbackReturnReset
  5455 ;;		_I2C1_CallbackReturnStop
  5456 ;;		_I2C1_MasterDisableRestart
  5457 ;;		_I2C1_MasterEnableRestart
  5458 ;;		_I2C1_MasterSetCounter
  5459 ;;		_rd1RegCompleteHandler
  5460 ;;		_rd1RegCompleteHandler@i2c1_master_example$F145
  5461 ;;		_rd2RegCompleteHandler
  5462 ;;		_rd2RegCompleteHandler@i2c1_master_example$F156
  5463 ;;		_rdBlkRegCompleteHandler
  5464 ;;		_rdBlkRegCompleteHandler@i2c1_master_example$F179
  5465 ;;		_wr1RegCompleteHandler
  5466 ;;		_wr1RegCompleteHandler@i2c1_master_example$F162
  5467 ;;		_wr2RegCompleteHandler
  5468 ;;		_wr2RegCompleteHandler@i2c1_master_example$F168
  5469 ;; This function is called by:
  5470 ;;		_I2C1_DO_SEND_ADR_READ
  5471 ;;		_I2C1_DO_RX
  5472 ;;		_I2C1_MasterFsm
  5473 ;; This function uses a non-reentrant model
  5474 ;;
  5475                           
  5476                           	psect	text26
  5477   0029FE                     __ptext26:
  5478                           	callstack 0
  5479   0029FE                     _I2C1_DO_RX_EMPTY:
  5480                           	callstack 19
  5481   0029FE                     
  5482                           ;mcc_generated_files/i2c1_master.c: 481:     I2C1_Status.bufferFree = 1;
  5483   0029FE  0100               	movlb	0	; () banked
  5484   002A00  8983               	bsf	(_I2C1_Status+35)& (0+255),4,b
  5485                           
  5486                           ;mcc_generated_files/i2c1_master.c: 482:     switch(I2C1_Status.callbackTable[I2C1_DATA_
      +                          COMPLETE](I2C1_Status.callbackPayload[I2C1_DATA_COMPLETE]))
  5487   002A02  EF23  F015         	goto	l3510
  5488   002A06                     l3482:
  5489                           
  5490                           ;mcc_generated_files/i2c1_master.c: 485:             I2C1_MasterEnableRestart();
  5491   002A06  EC9A  F01B         	call	_I2C1_MasterEnableRestart	;wreg free
  5492   002A0A                     
  5493                           ;mcc_generated_files/i2c1_master.c: 486:             return I2C1_SEND_RESTART_WRITE;
  5494   002A0A  0E08               	movlw	8
  5495   002A0C  EF4F  F015         	goto	l594
  5496   002A10                     l3488:
  5497                           
  5498                           ;mcc_generated_files/i2c1_master.c: 488:             I2C1_MasterEnableRestart();
  5499   002A10  EC9A  F01B         	call	_I2C1_MasterEnableRestart	;wreg free
  5500   002A14                     
  5501                           ;mcc_generated_files/i2c1_master.c: 489:             return I2C1_SEND_RESTART_READ;
  5502   002A14  0E07               	movlw	7
  5503   002A16  EF4F  F015         	goto	l594
  5504   002A1A                     l3494:
  5505                           
  5506                           ;mcc_generated_files/i2c1_master.c: 492:             I2C1_MasterSetCounter((uint8_t) (I2
      +                          C1_Status.data_length + 1));
  5507   002A1A  0100               	movlb	0	; () banked
  5508   002A1C  297F               	incf	(_I2C1_Status+31)& (0+255),w,b
  5509   002A1E  EC5A  F01B         	call	_I2C1_MasterSetCounter
  5510   002A22                     
  5511                           ;mcc_generated_files/i2c1_master.c: 493:             return I2C1_RX;
  5512   002A22  0E04               	movlw	4
  5513   002A24  EF4F  F015         	goto	l594
  5514   002A28                     l3500:
  5515                           
  5516                           ;mcc_generated_files/i2c1_master.c: 496:             if(I2C1_Status.state != I2C1_SEND_R
      +                          ESTART_READ)
  5517   002A28  0E07               	movlw	7
  5518   002A2A  0100               	movlb	0	; () banked
  5519   002A2C  1981               	xorwf	(_I2C1_Status+33)& (0+255),w,b
  5520   002A2E  B4D8               	btfsc	status,2,c
  5521   002A30  EF1C  F015         	goto	u1611
  5522   002A34  EF1E  F015         	goto	u1610
  5523   002A38                     u1611:
  5524   002A38  EF20  F015         	goto	l3504
  5525   002A3C                     u1610:
  5526   002A3C                     
  5527                           ; BSR set to: 0
  5528                           ;mcc_generated_files/i2c1_master.c: 497:             {;mcc_generated_files/i2c1_master.c
      +                          : 498:                 I2C1_MasterDisableRestart();
  5529   002A3C  EC9D  F01B         	call	_I2C1_MasterDisableRestart	;wreg free
  5530   002A40                     l3504:
  5531                           
  5532                           ;mcc_generated_files/i2c1_master.c: 500:             return I2C1_RESET;
  5533   002A40  0E0F               	movlw	15
  5534   002A42  EF4F  F015         	goto	l594
  5535   002A46                     l3510:
  5536                           
  5537                           ; BSR set to: 0
  5538   002A46  C06C  F00A         	movff	_I2C1_Status+12,I2C1_CallbackReturnReset@funPtr
  5539   002A4A  C06D  F00B         	movff	_I2C1_Status+13,I2C1_CallbackReturnReset@funPtr+1
  5540   002A4E  D802               	call	u1628
  5541   002A50  EF33  F015         	goto	u1629
  5542   002A54                     u1628:
  5543   002A54  0005               	push	
  5544   002A56  6EFA               	movwf	pclath,c
  5545   002A58  5160               	movf	_I2C1_Status& (0+255),w,b
  5546   002A5A  6EFD               	movwf	tosl,c
  5547   002A5C  5161               	movf	(_I2C1_Status+1)& (0+255),w,b
  5548   002A5E  6EFE               	movwf	tosh,c
  5549   002A60  6AFF               	clrf	tosu,c
  5550   002A62  50FA               	movf	pclath,w,c
  5551   002A64  0012               	return		;indir
  5552   002A66                     u1629:
  5553   002A66  6E0C               	movwf	??_I2C1_DO_RX_EMPTY^0,c
  5554   002A68  6A0D               	clrf	(??_I2C1_DO_RX_EMPTY+1)^0,c
  5555                           
  5556                           ; Switch on 2 bytes has been partitioned into a top level switch of size 1, and 1 sub-sw
      +                          itches
  5557                           ; Switch size 1, requested type "simple"
  5558                           ; Number of cases is 1, Range of values is 0 to 0
  5559                           ; switch strategies available:
  5560                           ; Name         Instructions Cycles
  5561                           ; simple_byte            4     3 (average)
  5562                           ;	Chosen strategy is simple_byte
  5563   002A6A  500D               	movf	(??_I2C1_DO_RX_EMPTY+1)^0,w,c
  5564   002A6C  0A00               	xorlw	0	; case 0
  5565   002A6E  B4D8               	btfsc	status,2,c
  5566   002A70  EF3C  F015         	goto	l4994
  5567   002A74  EF14  F015         	goto	l3500
  5568   002A78                     l4994:
  5569                           
  5570                           ; Switch size 1, requested type "simple"
  5571                           ; Number of cases is 4, Range of values is 1 to 4
  5572                           ; switch strategies available:
  5573                           ; Name         Instructions Cycles
  5574                           ; simple_byte           13     7 (average)
  5575                           ;	Chosen strategy is simple_byte
  5576   002A78  500C               	movf	??_I2C1_DO_RX_EMPTY^0,w,c
  5577   002A7A  0A01               	xorlw	1	; case 1
  5578   002A7C  B4D8               	btfsc	status,2,c
  5579   002A7E  EF14  F015         	goto	l3500
  5580   002A82  0A03               	xorlw	3	; case 2
  5581   002A84  B4D8               	btfsc	status,2,c
  5582   002A86  EF08  F015         	goto	l3488
  5583   002A8A  0A01               	xorlw	1	; case 3
  5584   002A8C  B4D8               	btfsc	status,2,c
  5585   002A8E  EF03  F015         	goto	l3482
  5586   002A92  0A07               	xorlw	7	; case 4
  5587   002A94  B4D8               	btfsc	status,2,c
  5588   002A96  EF0D  F015         	goto	l3494
  5589   002A9A  EF14  F015         	goto	l3500
  5590   002A9E                     l594:
  5591   002A9E  0012               	return		;funcret
  5592   002AA0                     __end_of_I2C1_DO_RX_EMPTY:
  5593                           	callstack 0
  5594                           
  5595 ;; *************** function _I2C1_DO_TX_EMPTY *****************
  5596 ;; Defined at:
  5597 ;;		line 460 in file "mcc_generated_files/i2c1_master.c"
  5598 ;; Parameters:    Size  Location     Type
  5599 ;;		None
  5600 ;; Auto vars:     Size  Location     Type
  5601 ;;		None
  5602 ;; Return value:  Size  Location     Type
  5603 ;;                  1    wreg      enum E16234
  5604 ;; Registers used:
  5605 ;;		wreg, fsr2l, fsr2h, status,2, status,0, pcl, pclath, pclatu, tosl, prodl, prodh, cstack
  5606 ;; Tracked objects:
  5607 ;;		On entry : 0/0
  5608 ;;		On exit  : 0/0
  5609 ;;		Unchanged: 0/0
  5610 ;; Data sizes:     COMRAM   BANK0   BANK1   BANK2   BANK3   BANK4   BANK5   BANK6   BANK7   BANK8   BANK9  BANK10  BANK1
      +1  BANK12  BANK13  BANK14  BANK15
  5611 ;;      Params:         0       0       0       0       0       0       0       0       0       0       0       0       
      +0       0       0       0       0
  5612 ;;      Locals:         0       0       0       0       0       0       0       0       0       0       0       0       
      +0       0       0       0       0
  5613 ;;      Temps:          2       0       0       0       0       0       0       0       0       0       0       0       
      +0       0       0       0       0
  5614 ;;      Totals:         2       0       0       0       0       0       0       0       0       0       0       0       
      +0       0       0       0       0
  5615 ;;Total ram usage:        2 bytes
  5616 ;; Hardware stack levels used: 1
  5617 ;; Hardware stack levels required when called: 3
  5618 ;; This function calls:
  5619 ;;		Absolute function
  5620 ;;		_I2C1_CallbackReturnReset
  5621 ;;		_I2C1_CallbackReturnStop
  5622 ;;		_I2C1_MasterDisableRestart
  5623 ;;		_I2C1_MasterEnableRestart
  5624 ;;		_I2C1_MasterSetCounter
  5625 ;;		_rd1RegCompleteHandler
  5626 ;;		_rd1RegCompleteHandler@i2c1_master_example$F145
  5627 ;;		_rd2RegCompleteHandler
  5628 ;;		_rd2RegCompleteHandler@i2c1_master_example$F156
  5629 ;;		_rdBlkRegCompleteHandler
  5630 ;;		_rdBlkRegCompleteHandler@i2c1_master_example$F179
  5631 ;;		_wr1RegCompleteHandler
  5632 ;;		_wr1RegCompleteHandler@i2c1_master_example$F162
  5633 ;;		_wr2RegCompleteHandler
  5634 ;;		_wr2RegCompleteHandler@i2c1_master_example$F168
  5635 ;; This function is called by:
  5636 ;;		_I2C1_DO_TX
  5637 ;;		_I2C1_MasterFsm
  5638 ;; This function uses a non-reentrant model
  5639 ;;
  5640                           
  5641                           	psect	text27
  5642   002CE8                     __ptext27:
  5643                           	callstack 0
  5644   002CE8                     _I2C1_DO_TX_EMPTY:
  5645                           	callstack 22
  5646   002CE8                     
  5647                           ;mcc_generated_files/i2c1_master.c: 462:     I2C1_Status.bufferFree = 1;
  5648   002CE8  0100               	movlb	0	; () banked
  5649   002CEA  8983               	bsf	(_I2C1_Status+35)& (0+255),4,b
  5650                           
  5651                           ;mcc_generated_files/i2c1_master.c: 463:     switch(I2C1_Status.callbackTable[I2C1_DATA_
      +                          COMPLETE](I2C1_Status.callbackPayload[I2C1_DATA_COMPLETE]))
  5652   002CEC  EF89  F016         	goto	l3600
  5653   002CF0                     l3580:
  5654                           
  5655                           ;mcc_generated_files/i2c1_master.c: 466:             I2C1_MasterEnableRestart();
  5656   002CF0  EC9A  F01B         	call	_I2C1_MasterEnableRestart	;wreg free
  5657   002CF4                     
  5658                           ;mcc_generated_files/i2c1_master.c: 467:             return I2C1_SEND_RESTART_READ;
  5659   002CF4  0E07               	movlw	7
  5660   002CF6  EFB1  F016         	goto	l585
  5661   002CFA                     l3586:
  5662                           
  5663                           ;mcc_generated_files/i2c1_master.c: 470:             I2C1_MasterSetCounter((uint8_t) I2C
      +                          1_Status.data_length + 1);
  5664   002CFA  0100               	movlb	0	; () banked
  5665   002CFC  297F               	incf	(_I2C1_Status+31)& (0+255),w,b
  5666   002CFE  EC5A  F01B         	call	_I2C1_MasterSetCounter
  5667   002D02                     
  5668                           ;mcc_generated_files/i2c1_master.c: 471:             return I2C1_TX;
  5669   002D02  0E03               	movlw	3
  5670   002D04  EFB1  F016         	goto	l585
  5671   002D08                     l3592:
  5672                           
  5673                           ;mcc_generated_files/i2c1_master.c: 474:             I2C1_MasterDisableRestart();
  5674   002D08  EC9D  F01B         	call	_I2C1_MasterDisableRestart	;wreg free
  5675   002D0C                     
  5676                           ;mcc_generated_files/i2c1_master.c: 475:             return I2C1_SEND_STOP;
  5677   002D0C  0E0A               	movlw	10
  5678   002D0E  EFB1  F016         	goto	l585
  5679   002D12                     l3600:
  5680                           
  5681                           ; BSR set to: 0
  5682   002D12  C06C  F00A         	movff	_I2C1_Status+12,I2C1_CallbackReturnReset@funPtr
  5683   002D16  C06D  F00B         	movff	_I2C1_Status+13,I2C1_CallbackReturnReset@funPtr+1
  5684   002D1A  D802               	call	u1698
  5685   002D1C  EF99  F016         	goto	u1699
  5686   002D20                     u1698:
  5687   002D20  0005               	push	
  5688   002D22  6EFA               	movwf	pclath,c
  5689   002D24  5160               	movf	_I2C1_Status& (0+255),w,b
  5690   002D26  6EFD               	movwf	tosl,c
  5691   002D28  5161               	movf	(_I2C1_Status+1)& (0+255),w,b
  5692   002D2A  6EFE               	movwf	tosh,c
  5693   002D2C  6AFF               	clrf	tosu,c
  5694   002D2E  50FA               	movf	pclath,w,c
  5695   002D30  0012               	return		;indir
  5696   002D32                     u1699:
  5697   002D32  6E0C               	movwf	??_I2C1_DO_TX_EMPTY^0,c
  5698   002D34  6A0D               	clrf	(??_I2C1_DO_TX_EMPTY+1)^0,c
  5699                           
  5700                           ; Switch on 2 bytes has been partitioned into a top level switch of size 1, and 1 sub-sw
      +                          itches
  5701                           ; Switch size 1, requested type "simple"
  5702                           ; Number of cases is 1, Range of values is 0 to 0
  5703                           ; switch strategies available:
  5704                           ; Name         Instructions Cycles
  5705                           ; simple_byte            4     3 (average)
  5706                           ;	Chosen strategy is simple_byte
  5707   002D36  500D               	movf	(??_I2C1_DO_TX_EMPTY+1)^0,w,c
  5708   002D38  0A00               	xorlw	0	; case 0
  5709   002D3A  B4D8               	btfsc	status,2,c
  5710   002D3C  EFA2  F016         	goto	l4996
  5711   002D40  EF84  F016         	goto	l3592
  5712   002D44                     l4996:
  5713                           
  5714                           ; Switch size 1, requested type "simple"
  5715                           ; Number of cases is 3, Range of values is 1 to 4
  5716                           ; switch strategies available:
  5717                           ; Name         Instructions Cycles
  5718                           ; simple_byte           10     6 (average)
  5719                           ;	Chosen strategy is simple_byte
  5720   002D44  500C               	movf	??_I2C1_DO_TX_EMPTY^0,w,c
  5721   002D46  0A01               	xorlw	1	; case 1
  5722   002D48  B4D8               	btfsc	status,2,c
  5723   002D4A  EF84  F016         	goto	l3592
  5724   002D4E  0A03               	xorlw	3	; case 2
  5725   002D50  B4D8               	btfsc	status,2,c
  5726   002D52  EF78  F016         	goto	l3580
  5727   002D56  0A06               	xorlw	6	; case 4
  5728   002D58  B4D8               	btfsc	status,2,c
  5729   002D5A  EF7D  F016         	goto	l3586
  5730   002D5E  EF84  F016         	goto	l3592
  5731   002D62                     l585:
  5732   002D62  0012               	return		;funcret
  5733   002D64                     __end_of_I2C1_DO_TX_EMPTY:
  5734                           	callstack 0
  5735                           
  5736 ;; *************** function _I2C1_DO_RX *****************
  5737 ;; Defined at:
  5738 ;;		line 436 in file "mcc_generated_files/i2c1_master.c"
  5739 ;; Parameters:    Size  Location     Type
  5740 ;;		None
  5741 ;; Auto vars:     Size  Location     Type
  5742 ;;  retFsmState     1   15[COMRAM] enum E16234
  5743 ;; Return value:  Size  Location     Type
  5744 ;;                  1    wreg      enum E16234
  5745 ;; Registers used:
  5746 ;;		wreg, fsr2l, fsr2h, status,2, status,0, pcl, pclath, pclatu, tosl, prodl, prodh, cstack
  5747 ;; Tracked objects:
  5748 ;;		On entry : 0/0
  5749 ;;		On exit  : 0/0
  5750 ;;		Unchanged: 0/0
  5751 ;; Data sizes:     COMRAM   BANK0   BANK1   BANK2   BANK3   BANK4   BANK5   BANK6   BANK7   BANK8   BANK9  BANK10  BANK1
      +1  BANK12  BANK13  BANK14  BANK15
  5752 ;;      Params:         0       0       0       0       0       0       0       0       0       0       0       0       
      +0       0       0       0       0
  5753 ;;      Locals:         1       0       0       0       0       0       0       0       0       0       0       0       
      +0       0       0       0       0
  5754 ;;      Temps:          2       0       0       0       0       0       0       0       0       0       0       0       
      +0       0       0       0       0
  5755 ;;      Totals:         3       0       0       0       0       0       0       0       0       0       0       0       
      +0       0       0       0       0
  5756 ;;Total ram usage:        3 bytes
  5757 ;; Hardware stack levels used: 1
  5758 ;; Hardware stack levels required when called: 4
  5759 ;; This function calls:
  5760 ;;		_I2C1_DO_RX_EMPTY
  5761 ;;		_I2C1_MasterGetRxData
  5762 ;;		_I2C1_MasterIsRxBufFull
  5763 ;; This function is called by:
  5764 ;;		_I2C1_MasterFsm
  5765 ;; This function uses a non-reentrant model
  5766 ;;
  5767                           
  5768                           	psect	text28
  5769   002AA0                     __ptext28:
  5770                           	callstack 0
  5771   002AA0                     _I2C1_DO_RX:
  5772                           	callstack 21
  5773   002AA0                     
  5774                           ;mcc_generated_files/i2c1_master.c: 438:     if(!I2C1_MasterIsRxBufFull())
  5775   002AA0  ECE0  F01A         	call	_I2C1_MasterIsRxBufFull	;wreg free
  5776   002AA4  0900               	iorlw	0
  5777   002AA6  A4D8               	btfss	status,2,c
  5778   002AA8  EF58  F015         	goto	u1791
  5779   002AAC  EF5A  F015         	goto	u1790
  5780   002AB0                     u1791:
  5781   002AB0  EF5D  F015         	goto	l3718
  5782   002AB4                     u1790:
  5783   002AB4                     l3714:
  5784                           
  5785                           ;mcc_generated_files/i2c1_master.c: 439:     {;mcc_generated_files/i2c1_master.c: 440:  
      +                                 return I2C1_RX;
  5786   002AB4  0E04               	movlw	4
  5787   002AB6  EF9E  F015         	goto	l577
  5788   002ABA                     l3718:
  5789                           
  5790                           ;mcc_generated_files/i2c1_master.c: 442:     if(I2C1_Status.addressNackCheck)
  5791   002ABA  0100               	movlb	0	; () banked
  5792   002ABC  5183               	movf	(_I2C1_Status+35)& (0+255),w,b
  5793   002ABE  0B03               	andlw	3
  5794   002AC0  0900               	iorlw	0
  5795   002AC2  B4D8               	btfsc	status,2,c
  5796   002AC4  EF66  F015         	goto	u1801
  5797   002AC8  EF68  F015         	goto	u1800
  5798   002ACC                     u1801:
  5799   002ACC  EF74  F015         	goto	l578
  5800   002AD0                     u1800:
  5801   002AD0                     
  5802                           ; BSR set to: 0
  5803                           ;mcc_generated_files/i2c1_master.c: 443:     {;mcc_generated_files/i2c1_master.c: 444:  
      +                                 I2C1_Status.addressNackCheck--;
  5804   002AD0  0E01               	movlw	1
  5805   002AD2  6E0E               	movwf	??_I2C1_DO_RX^0,c
  5806   002AD4  5183               	movf	(_I2C1_Status+35)& (0+255),w,b
  5807   002AD6  0B03               	andlw	3
  5808   002AD8  6E0F               	movwf	(??_I2C1_DO_RX+1)^0,c
  5809   002ADA  500E               	movf	??_I2C1_DO_RX^0,w,c
  5810   002ADC  5E0F               	subwf	(??_I2C1_DO_RX+1)^0,f,c
  5811   002ADE  5183               	movf	(_I2C1_Status+35)& (0+255),w,b
  5812   002AE0  180F               	xorwf	(??_I2C1_DO_RX+1)^0,w,c
  5813   002AE2  0BFC               	andlw	-4
  5814   002AE4  180F               	xorwf	(??_I2C1_DO_RX+1)^0,w,c
  5815   002AE6  6F83               	movwf	(_I2C1_Status+35)& (0+255),b
  5816   002AE8                     l578:
  5817                           
  5818                           ; BSR set to: 0
  5819                           ;mcc_generated_files/i2c1_master.c: 447:     if(--I2C1_Status.data_length)
  5820   002AE8  077F               	decf	(_I2C1_Status+31)& (0+255),f,b
  5821   002AEA  A0D8               	btfss	status,0,c
  5822   002AEC  0780               	decf	(_I2C1_Status+32)& (0+255),f,b
  5823   002AEE  517F               	movf	(_I2C1_Status+31)& (0+255),w,b
  5824   002AF0  1180               	iorwf	(_I2C1_Status+32)& (0+255),w,b
  5825   002AF2  B4D8               	btfsc	status,2,c
  5826   002AF4  EF7E  F015         	goto	u1811
  5827   002AF8  EF80  F015         	goto	u1810
  5828   002AFC                     u1811:
  5829   002AFC  EF8E  F015         	goto	l3732
  5830   002B00                     u1810:
  5831   002B00                     
  5832                           ; BSR set to: 0
  5833                           ;mcc_generated_files/i2c1_master.c: 448:     {;mcc_generated_files/i2c1_master.c: 449:  
      +                                 *I2C1_Status.data_ptr++ = I2C1_MasterGetRxData();
  5834   002B00  EC97  F01B         	call	_I2C1_MasterGetRxData	;wreg free
  5835   002B04  0060  F1F7  FFD9   	movff	_I2C1_Status+29,fsr2l
  5836   002B0A  0060  F1FB  FFDA   	movff	_I2C1_Status+30,fsr2h
  5837   002B10  6EDF               	movwf	indf2,c
  5838   002B12  0100               	movlb	0	; () banked
  5839   002B14  4B7D               	infsnz	(_I2C1_Status+29)& (0+255),f,b
  5840   002B16  2B7E               	incf	(_I2C1_Status+30)& (0+255),f,b
  5841   002B18  EF5A  F015         	goto	l3714
  5842   002B1C                     l3732:
  5843                           
  5844                           ; BSR set to: 0
  5845                           ;mcc_generated_files/i2c1_master.c: 453:     {;mcc_generated_files/i2c1_master.c: 454:  
      +                                 i2c1_fsm_states_t retFsmState = I2C1_DO_RX_EMPTY();
  5846   002B1C  ECFF  F014         	call	_I2C1_DO_RX_EMPTY	;wreg free
  5847   002B20  6E10               	movwf	I2C1_DO_RX@retFsmState^0,c
  5848   002B22                     
  5849                           ;mcc_generated_files/i2c1_master.c: 455:         *I2C1_Status.data_ptr++ = I2C1_MasterGe
      +                          tRxData();
  5850   002B22  EC97  F01B         	call	_I2C1_MasterGetRxData	;wreg free
  5851   002B26  0060  F1F7  FFD9   	movff	_I2C1_Status+29,fsr2l
  5852   002B2C  0060  F1FB  FFDA   	movff	_I2C1_Status+30,fsr2h
  5853   002B32  6EDF               	movwf	indf2,c
  5854   002B34  0100               	movlb	0	; () banked
  5855   002B36  4B7D               	infsnz	(_I2C1_Status+29)& (0+255),f,b
  5856   002B38  2B7E               	incf	(_I2C1_Status+30)& (0+255),f,b
  5857   002B3A                     
  5858                           ; BSR set to: 0
  5859                           ;mcc_generated_files/i2c1_master.c: 456:         return retFsmState;
  5860   002B3A  5010               	movf	I2C1_DO_RX@retFsmState^0,w,c
  5861   002B3C                     l577:
  5862   002B3C  0012               	return		;funcret
  5863   002B3E                     __end_of_I2C1_DO_RX:
  5864                           	callstack 0
  5865                           
  5866 ;; *************** function _I2C1_DO_TX *****************
  5867 ;; Defined at:
  5868 ;;		line 403 in file "mcc_generated_files/i2c1_master.c"
  5869 ;; Parameters:    Size  Location     Type
  5870 ;;		None
  5871 ;; Auto vars:     Size  Location     Type
  5872 ;;  retFsmState     1   16[COMRAM] enum E16234
  5873 ;;  dataTx          1   15[COMRAM] unsigned char 
  5874 ;; Return value:  Size  Location     Type
  5875 ;;                  1    wreg      enum E16234
  5876 ;; Registers used:
  5877 ;;		wreg, fsr2l, fsr2h, status,2, status,0, pcl, pclath, pclatu, tosl, prodl, prodh, cstack
  5878 ;; Tracked objects:
  5879 ;;		On entry : 0/0
  5880 ;;		On exit  : 0/0
  5881 ;;		Unchanged: 0/0
  5882 ;; Data sizes:     COMRAM   BANK0   BANK1   BANK2   BANK3   BANK4   BANK5   BANK6   BANK7   BANK8   BANK9  BANK10  BANK1
      +1  BANK12  BANK13  BANK14  BANK15
  5883 ;;      Params:         0       0       0       0       0       0       0       0       0       0       0       0       
      +0       0       0       0       0
  5884 ;;      Locals:         4       0       0       0       0       0       0       0       0       0       0       0       
      +0       0       0       0       0
  5885 ;;      Temps:          2       0       0       0       0       0       0       0       0       0       0       0       
      +0       0       0       0       0
  5886 ;;      Totals:         6       0       0       0       0       0       0       0       0       0       0       0       
      +0       0       0       0       0
  5887 ;;Total ram usage:        6 bytes
  5888 ;; Hardware stack levels used: 1
  5889 ;; Hardware stack levels required when called: 6
  5890 ;; This function calls:
  5891 ;;		Absolute function
  5892 ;;		_I2C1_CallbackReturnReset
  5893 ;;		_I2C1_CallbackReturnStop
  5894 ;;		_I2C1_DO_SEND_RESTART_READ
  5895 ;;		_I2C1_DO_SEND_RESTART_WRITE
  5896 ;;		_I2C1_DO_TX_EMPTY
  5897 ;;		_I2C1_MasterIsNack
  5898 ;;		_I2C1_MasterIsTxBufEmpty
  5899 ;;		_I2C1_MasterSendTxData
  5900 ;;		_rd1RegCompleteHandler
  5901 ;;		_rd1RegCompleteHandler@i2c1_master_example$F145
  5902 ;;		_rd2RegCompleteHandler
  5903 ;;		_rd2RegCompleteHandler@i2c1_master_example$F156
  5904 ;;		_rdBlkRegCompleteHandler
  5905 ;;		_rdBlkRegCompleteHandler@i2c1_master_example$F179
  5906 ;;		_wr1RegCompleteHandler
  5907 ;;		_wr1RegCompleteHandler@i2c1_master_example$F162
  5908 ;;		_wr2RegCompleteHandler
  5909 ;;		_wr2RegCompleteHandler@i2c1_master_example$F168
  5910 ;; This function is called by:
  5911 ;;		_I2C1_MasterFsm
  5912 ;; This function uses a non-reentrant model
  5913 ;;
  5914                           
  5915                           	psect	text29
  5916   0025C8                     __ptext29:
  5917                           	callstack 0
  5918   0025C8                     _I2C1_DO_TX:
  5919                           	callstack 19
  5920   0025C8                     
  5921                           ;mcc_generated_files/i2c1_master.c: 405:     if(I2C1_MasterIsNack())
  5922   0025C8  ECD5  F01A         	call	_I2C1_MasterIsNack	;wreg free
  5923   0025CC  0900               	iorlw	0
  5924   0025CE  B4D8               	btfsc	status,2,c
  5925   0025D0  EFEC  F012         	goto	u1741
  5926   0025D4  EFEE  F012         	goto	u1740
  5927   0025D8                     u1741:
  5928   0025D8  EF28  F013         	goto	l3678
  5929   0025DC                     u1740:
  5930   0025DC  EFFB  F012         	goto	l3676
  5931   0025E0                     l3662:
  5932                           
  5933                           ;mcc_generated_files/i2c1_master.c: 410:                 return I2C1_DO_SEND_RESTART_REA
      +                          D();
  5934   0025E0  EC42  F01B         	call	_I2C1_DO_SEND_RESTART_READ	;wreg free
  5935   0025E4  EF74  F013         	goto	l560
  5936   0025E8                     l3666:
  5937                           
  5938                           ;mcc_generated_files/i2c1_master.c: 412:                   return I2C1_DO_SEND_RESTART_W
      +                          RITE();
  5939   0025E8  ECAB  F01B         	call	_I2C1_DO_SEND_RESTART_WRITE	;wreg free
  5940   0025EC  EF74  F013         	goto	l560
  5941   0025F0                     l3670:
  5942                           
  5943                           ;mcc_generated_files/i2c1_master.c: 416:                 return I2C1_IDLE;
  5944   0025F0  0E00               	movlw	0
  5945   0025F2  EF74  F013         	goto	l560
  5946   0025F6                     l3676:
  5947   0025F6  C072  F00A         	movff	_I2C1_Status+18,I2C1_CallbackReturnReset@funPtr
  5948   0025FA  C073  F00B         	movff	_I2C1_Status+19,I2C1_CallbackReturnReset@funPtr+1
  5949   0025FE  D802               	call	u1758
  5950   002600  EF0C  F013         	goto	u1759
  5951   002604                     u1758:
  5952   002604  0005               	push	
  5953   002606  6EFA               	movwf	pclath,c
  5954   002608  0100               	movlb	0	; () banked
  5955   00260A  5166               	movf	(_I2C1_Status+6)& (0+255),w,b
  5956   00260C  6EFD               	movwf	tosl,c
  5957   00260E  5167               	movf	(_I2C1_Status+7)& (0+255),w,b
  5958   002610  6EFE               	movwf	tosh,c
  5959   002612  6AFF               	clrf	tosu,c
  5960   002614  50FA               	movf	pclath,w,c
  5961   002616  0012               	return		;indir
  5962   002618                     u1759:
  5963   002618  6E0C               	movwf	??_I2C1_DO_TX^0,c
  5964   00261A  6A0D               	clrf	(??_I2C1_DO_TX+1)^0,c
  5965                           
  5966                           ; Switch on 2 bytes has been partitioned into a top level switch of size 1, and 1 sub-sw
      +                          itches
  5967                           ; Switch size 1, requested type "simple"
  5968                           ; Number of cases is 1, Range of values is 0 to 0
  5969                           ; switch strategies available:
  5970                           ; Name         Instructions Cycles
  5971                           ; simple_byte            4     3 (average)
  5972                           ;	Chosen strategy is simple_byte
  5973   00261C  500D               	movf	(??_I2C1_DO_TX+1)^0,w,c
  5974   00261E  0A00               	xorlw	0	; case 0
  5975   002620  B4D8               	btfsc	status,2,c
  5976   002622  EF15  F013         	goto	l4998
  5977   002626  EFF8  F012         	goto	l3670
  5978   00262A                     l4998:
  5979                           
  5980                           ; Switch size 1, requested type "simple"
  5981                           ; Number of cases is 4, Range of values is 1 to 4
  5982                           ; switch strategies available:
  5983                           ; Name         Instructions Cycles
  5984                           ; simple_byte           13     7 (average)
  5985                           ;	Chosen strategy is simple_byte
  5986   00262A  500C               	movf	??_I2C1_DO_TX^0,w,c
  5987   00262C  0A01               	xorlw	1	; case 1
  5988   00262E  B4D8               	btfsc	status,2,c
  5989   002630  EFF8  F012         	goto	l3670
  5990   002634  0A03               	xorlw	3	; case 2
  5991   002636  B4D8               	btfsc	status,2,c
  5992   002638  EFF0  F012         	goto	l3662
  5993   00263C  0A01               	xorlw	1	; case 3
  5994   00263E  B4D8               	btfsc	status,2,c
  5995   002640  EFF4  F012         	goto	l3666
  5996   002644  0A07               	xorlw	7	; case 4
  5997   002646  B4D8               	btfsc	status,2,c
  5998   002648  EFF8  F012         	goto	l3670
  5999   00264C  EFF8  F012         	goto	l3670
  6000   002650                     l3678:
  6001   002650  ECCA  F01A         	call	_I2C1_MasterIsTxBufEmpty	;wreg free
  6002   002654  0900               	iorlw	0
  6003   002656  B4D8               	btfsc	status,2,c
  6004   002658  EF30  F013         	goto	u1761
  6005   00265C  EF32  F013         	goto	u1760
  6006   002660                     u1761:
  6007   002660  EF73  F013         	goto	l3704
  6008   002664                     u1760:
  6009   002664                     
  6010                           ;mcc_generated_files/i2c1_master.c: 420:     {;mcc_generated_files/i2c1_master.c: 421:  
      +                                 if(I2C1_Status.addressNackCheck)
  6011   002664  0100               	movlb	0	; () banked
  6012   002666  5183               	movf	(_I2C1_Status+35)& (0+255),w,b
  6013   002668  0B03               	andlw	3
  6014   00266A  0900               	iorlw	0
  6015   00266C  B4D8               	btfsc	status,2,c
  6016   00266E  EF3B  F013         	goto	u1771
  6017   002672  EF3D  F013         	goto	u1770
  6018   002676                     u1771:
  6019   002676  EF49  F013         	goto	l3684
  6020   00267A                     u1770:
  6021   00267A                     
  6022                           ; BSR set to: 0
  6023                           ;mcc_generated_files/i2c1_master.c: 422:         {;mcc_generated_files/i2c1_master.c: 42
      +                          3:             I2C1_Status.addressNackCheck--;
  6024   00267A  0E01               	movlw	1
  6025   00267C  6E0C               	movwf	??_I2C1_DO_TX^0,c
  6026   00267E  5183               	movf	(_I2C1_Status+35)& (0+255),w,b
  6027   002680  0B03               	andlw	3
  6028   002682  6E0D               	movwf	(??_I2C1_DO_TX+1)^0,c
  6029   002684  500C               	movf	??_I2C1_DO_TX^0,w,c
  6030   002686  5E0D               	subwf	(??_I2C1_DO_TX+1)^0,f,c
  6031   002688  5183               	movf	(_I2C1_Status+35)& (0+255),w,b
  6032   00268A  180D               	xorwf	(??_I2C1_DO_TX+1)^0,w,c
  6033   00268C  0BFC               	andlw	-4
  6034   00268E  180D               	xorwf	(??_I2C1_DO_TX+1)^0,w,c
  6035   002690  6F83               	movwf	(_I2C1_Status+35)& (0+255),b
  6036   002692                     l3684:
  6037                           
  6038                           ; BSR set to: 0
  6039                           ;mcc_generated_files/i2c1_master.c: 425:         uint8_t dataTx = *I2C1_Status.data_ptr+
      +                          +;
  6040   002692  0060  F1F7  FFD9   	movff	_I2C1_Status+29,fsr2l
  6041   002698  0060  F1FB  FFDA   	movff	_I2C1_Status+30,fsr2h
  6042   00269E  50DF               	movf	indf2,w,c
  6043   0026A0  6E10               	movwf	I2C1_DO_TX@dataTx^0,c
  6044   0026A2                     
  6045                           ; BSR set to: 0
  6046   0026A2  4B7D               	infsnz	(_I2C1_Status+29)& (0+255),f,b
  6047   0026A4  2B7E               	incf	(_I2C1_Status+30)& (0+255),f,b
  6048   0026A6                     
  6049                           ; BSR set to: 0
  6050                           ;mcc_generated_files/i2c1_master.c: 426:         i2c1_fsm_states_t retFsmState = (--I2C1
      +                          _Status.data_length)?I2C1_TX:I2C1_DO_TX_EMPTY();
  6051   0026A6  077F               	decf	(_I2C1_Status+31)& (0+255),f,b
  6052   0026A8  A0D8               	btfss	status,0,c
  6053   0026AA  0780               	decf	(_I2C1_Status+32)& (0+255),f,b
  6054   0026AC  517F               	movf	(_I2C1_Status+31)& (0+255),w,b
  6055   0026AE  1180               	iorwf	(_I2C1_Status+32)& (0+255),w,b
  6056   0026B0  A4D8               	btfss	status,2,c
  6057   0026B2  EF5D  F013         	goto	u1781
  6058   0026B6  EF5F  F013         	goto	u1780
  6059   0026BA                     u1781:
  6060   0026BA  EF67  F013         	goto	l3692
  6061   0026BE                     u1780:
  6062   0026BE                     
  6063                           ; BSR set to: 0
  6064   0026BE  EC74  F016         	call	_I2C1_DO_TX_EMPTY	;wreg free
  6065   0026C2  6E0C               	movwf	??_I2C1_DO_TX^0,c
  6066   0026C4  500C               	movf	??_I2C1_DO_TX^0,w,c
  6067   0026C6  6E0E               	movwf	_I2C1_DO_TX$1176^0,c
  6068   0026C8  6A0F               	clrf	(_I2C1_DO_TX$1176+1)^0,c
  6069   0026CA  EF6B  F013         	goto	l3694
  6070   0026CE                     l3692:
  6071                           
  6072                           ; BSR set to: 0
  6073   0026CE  0E00               	movlw	0
  6074   0026D0  6E0F               	movwf	(_I2C1_DO_TX$1176+1)^0,c
  6075   0026D2  0E03               	movlw	3
  6076   0026D4  6E0E               	movwf	_I2C1_DO_TX$1176^0,c
  6077   0026D6                     l3694:
  6078   0026D6  C00E  F011         	movff	_I2C1_DO_TX$1176,I2C1_DO_TX@retFsmState
  6079   0026DA                     
  6080                           ;mcc_generated_files/i2c1_master.c: 427:         I2C1_MasterSendTxData(dataTx);
  6081   0026DA  5010               	movf	I2C1_DO_TX@dataTx^0,w,c
  6082   0026DC  EC55  F01B         	call	_I2C1_MasterSendTxData
  6083   0026E0                     
  6084                           ;mcc_generated_files/i2c1_master.c: 428:         return retFsmState;
  6085   0026E0  5011               	movf	I2C1_DO_TX@retFsmState^0,w,c
  6086   0026E2  EF74  F013         	goto	l560
  6087   0026E6                     l3704:
  6088                           
  6089                           ;mcc_generated_files/i2c1_master.c: 431:     {;mcc_generated_files/i2c1_master.c: 432:  
      +                                 return I2C1_TX;
  6090   0026E6  0E03               	movlw	3
  6091   0026E8                     l560:
  6092   0026E8  0012               	return		;funcret
  6093   0026EA                     __end_of_I2C1_DO_TX:
  6094                           	callstack 0
  6095                           
  6096 ;; *************** function _I2C1_DO_SEND_ADR_WRITE *****************
  6097 ;; Defined at:
  6098 ;;		line 396 in file "mcc_generated_files/i2c1_master.c"
  6099 ;; Parameters:    Size  Location     Type
  6100 ;;		None
  6101 ;; Auto vars:     Size  Location     Type
  6102 ;;		None
  6103 ;; Return value:  Size  Location     Type
  6104 ;;                  1    wreg      enum E16234
  6105 ;; Registers used:
  6106 ;;		wreg, status,2, status,0, cstack
  6107 ;; Tracked objects:
  6108 ;;		On entry : 0/0
  6109 ;;		On exit  : 0/0
  6110 ;;		Unchanged: 0/0
  6111 ;; Data sizes:     COMRAM   BANK0   BANK1   BANK2   BANK3   BANK4   BANK5   BANK6   BANK7   BANK8   BANK9  BANK10  BANK1
      +1  BANK12  BANK13  BANK14  BANK15
  6112 ;;      Params:         0       0       0       0       0       0       0       0       0       0       0       0       
      +0       0       0       0       0
  6113 ;;      Locals:         0       0       0       0       0       0       0       0       0       0       0       0       
      +0       0       0       0       0
  6114 ;;      Temps:          0       0       0       0       0       0       0       0       0       0       0       0       
      +0       0       0       0       0
  6115 ;;      Totals:         0       0       0       0       0       0       0       0       0       0       0       0       
      +0       0       0       0       0
  6116 ;;Total ram usage:        0 bytes
  6117 ;; Hardware stack levels used: 1
  6118 ;; Hardware stack levels required when called: 1
  6119 ;; This function calls:
  6120 ;;		_I2C1_MasterSendTxData
  6121 ;; This function is called by:
  6122 ;;		_I2C1_MasterOperation
  6123 ;;		_I2C1_MasterFsm
  6124 ;; This function uses a non-reentrant model
  6125 ;;
  6126                           
  6127                           	psect	text30
  6128   00357E                     __ptext30:
  6129                           	callstack 0
  6130   00357E                     _I2C1_DO_SEND_ADR_WRITE:
  6131                           	callstack 24
  6132   00357E                     
  6133                           ;mcc_generated_files/i2c1_master.c: 398:     I2C1_Status.addressNackCheck = 2;
  6134   00357E  0100               	movlb	0	; () banked
  6135   003580  5183               	movf	(_I2C1_Status+35)& (0+255),w,b
  6136   003582  0BFC               	andlw	-4
  6137   003584  0902               	iorlw	2
  6138   003586  6F83               	movwf	(_I2C1_Status+35)& (0+255),b
  6139   003588                     
  6140                           ; BSR set to: 0
  6141                           ;mcc_generated_files/i2c1_master.c: 399:     I2C1_MasterSendTxData((uint8_t) (I2C1_Statu
      +                          s.address << 1));
  6142   003588  517C               	movf	(_I2C1_Status+28)& (0+255),w,b
  6143   00358A  257C               	addwf	(_I2C1_Status+28)& (0+255),w,b
  6144   00358C  EC55  F01B         	call	_I2C1_MasterSendTxData
  6145   003590                     
  6146                           ;mcc_generated_files/i2c1_master.c: 400:     return I2C1_TX;
  6147   003590  0E03               	movlw	3
  6148   003592  0012               	return		;funcret
  6149   003594                     __end_of_I2C1_DO_SEND_ADR_WRITE:
  6150                           	callstack 0
  6151                           
  6152 ;; *************** function _I2C1_DO_SEND_ADR_READ *****************
  6153 ;; Defined at:
  6154 ;;		line 385 in file "mcc_generated_files/i2c1_master.c"
  6155 ;; Parameters:    Size  Location     Type
  6156 ;;		None
  6157 ;; Auto vars:     Size  Location     Type
  6158 ;;		None
  6159 ;; Return value:  Size  Location     Type
  6160 ;;                  1    wreg      enum E16234
  6161 ;; Registers used:
  6162 ;;		wreg, fsr2l, fsr2h, status,2, status,0, pcl, pclath, pclatu, tosl, prodl, prodh, cstack
  6163 ;; Tracked objects:
  6164 ;;		On entry : 0/0
  6165 ;;		On exit  : 0/0
  6166 ;;		Unchanged: 0/0
  6167 ;; Data sizes:     COMRAM   BANK0   BANK1   BANK2   BANK3   BANK4   BANK5   BANK6   BANK7   BANK8   BANK9  BANK10  BANK1
      +1  BANK12  BANK13  BANK14  BANK15
  6168 ;;      Params:         0       0       0       0       0       0       0       0       0       0       0       0       
      +0       0       0       0       0
  6169 ;;      Locals:         0       0       0       0       0       0       0       0       0       0       0       0       
      +0       0       0       0       0
  6170 ;;      Temps:          0       0       0       0       0       0       0       0       0       0       0       0       
      +0       0       0       0       0
  6171 ;;      Totals:         0       0       0       0       0       0       0       0       0       0       0       0       
      +0       0       0       0       0
  6172 ;;Total ram usage:        0 bytes
  6173 ;; Hardware stack levels used: 1
  6174 ;; Hardware stack levels required when called: 4
  6175 ;; This function calls:
  6176 ;;		_I2C1_DO_RX_EMPTY
  6177 ;;		_I2C1_MasterSendTxData
  6178 ;; This function is called by:
  6179 ;;		_I2C1_MasterOperation
  6180 ;;		_I2C1_DO_SEND_RESTART_READ
  6181 ;;		_I2C1_MasterFsm
  6182 ;; This function uses a non-reentrant model
  6183 ;;
  6184                           
  6185                           	psect	text31
  6186   00327A                     __ptext31:
  6187                           	callstack 0
  6188   00327A                     _I2C1_DO_SEND_ADR_READ:
  6189                           	callstack 19
  6190   00327A                     
  6191                           ;mcc_generated_files/i2c1_master.c: 387:     I2C1_Status.addressNackCheck = 2;
  6192   00327A  0100               	movlb	0	; () banked
  6193   00327C  5183               	movf	(_I2C1_Status+35)& (0+255),w,b
  6194   00327E  0BFC               	andlw	-4
  6195   003280  0902               	iorlw	2
  6196   003282  6F83               	movwf	(_I2C1_Status+35)& (0+255),b
  6197   003284                     
  6198                           ; BSR set to: 0
  6199                           ;mcc_generated_files/i2c1_master.c: 388:     if(I2C1_Status.data_length == 1)
  6200   003284  057F               	decf	(_I2C1_Status+31)& (0+255),w,b
  6201   003286  1180               	iorwf	(_I2C1_Status+32)& (0+255),w,b
  6202   003288  A4D8               	btfss	status,2,c
  6203   00328A  EF49  F019         	goto	u1631
  6204   00328E  EF4B  F019         	goto	u1630
  6205   003292                     u1631:
  6206   003292  EF4D  F019         	goto	l3524
  6207   003296                     u1630:
  6208   003296                     
  6209                           ; BSR set to: 0
  6210                           ;mcc_generated_files/i2c1_master.c: 389:     {;mcc_generated_files/i2c1_master.c: 390:  
      +                                 I2C1_DO_RX_EMPTY();
  6211   003296  ECFF  F014         	call	_I2C1_DO_RX_EMPTY	;wreg free
  6212   00329A                     l3524:
  6213                           
  6214                           ;mcc_generated_files/i2c1_master.c: 392:     I2C1_MasterSendTxData((uint8_t) (I2C1_Statu
      +                          s.address << 1 | 1));
  6215   00329A  80D8               	bsf	status,0,c
  6216   00329C  0100               	movlb	0	; () banked
  6217   00329E  357C               	rlcf	(_I2C1_Status+28)& (0+255),w,b
  6218   0032A0  EC55  F01B         	call	_I2C1_MasterSendTxData
  6219   0032A4                     
  6220                           ;mcc_generated_files/i2c1_master.c: 393:     return I2C1_RX;
  6221   0032A4  0E04               	movlw	4
  6222   0032A6  0012               	return		;funcret
  6223   0032A8                     __end_of_I2C1_DO_SEND_ADR_READ:
  6224                           	callstack 0
  6225                           
  6226 ;; *************** function _I2C1_DO_IDLE *****************
  6227 ;; Defined at:
  6228 ;;		line 378 in file "mcc_generated_files/i2c1_master.c"
  6229 ;; Parameters:    Size  Location     Type
  6230 ;;		None
  6231 ;; Auto vars:     Size  Location     Type
  6232 ;;		None
  6233 ;; Return value:  Size  Location     Type
  6234 ;;                  1    wreg      enum E16234
  6235 ;; Registers used:
  6236 ;;		wreg, status,2
  6237 ;; Tracked objects:
  6238 ;;		On entry : 0/0
  6239 ;;		On exit  : 0/0
  6240 ;;		Unchanged: 0/0
  6241 ;; Data sizes:     COMRAM   BANK0   BANK1   BANK2   BANK3   BANK4   BANK5   BANK6   BANK7   BANK8   BANK9  BANK10  BANK1
      +1  BANK12  BANK13  BANK14  BANK15
  6242 ;;      Params:         0       0       0       0       0       0       0       0       0       0       0       0       
      +0       0       0       0       0
  6243 ;;      Locals:         0       0       0       0       0       0       0       0       0       0       0       0       
      +0       0       0       0       0
  6244 ;;      Temps:          0       0       0       0       0       0       0       0       0       0       0       0       
      +0       0       0       0       0
  6245 ;;      Totals:         0       0       0       0       0       0       0       0       0       0       0       0       
      +0       0       0       0       0
  6246 ;;Total ram usage:        0 bytes
  6247 ;; Hardware stack levels used: 1
  6248 ;; This function calls:
  6249 ;;		Nothing
  6250 ;; This function is called by:
  6251 ;;		_I2C1_DO_RX_NACK_STOP
  6252 ;;		_I2C1_MasterFsm
  6253 ;; This function uses a non-reentrant model
  6254 ;;
  6255                           
  6256                           	psect	text32
  6257   003692                     __ptext32:
  6258                           	callstack 0
  6259   003692                     _I2C1_DO_IDLE:
  6260                           	callstack 24
  6261   003692                     
  6262                           ;mcc_generated_files/i2c1_master.c: 380:     I2C1_Status.busy = 0;
  6263   003692  0100               	movlb	0	; () banked
  6264   003694  9583               	bcf	(_I2C1_Status+35)& (0+255),2,b
  6265   003696                     
  6266                           ; BSR set to: 0
  6267                           ;mcc_generated_files/i2c1_master.c: 381:     I2C1_Status.error = I2C1_NOERR;
  6268   003696  0E00               	movlw	0
  6269   003698  6F82               	movwf	(_I2C1_Status+34)& (0+255),b
  6270   00369A                     
  6271                           ; BSR set to: 0
  6272                           ;mcc_generated_files/i2c1_master.c: 382:     return I2C1_RESET;
  6273   00369A  0E0F               	movlw	15
  6274   00369C                     
  6275                           ; BSR set to: 0
  6276   00369C  0012               	return		;funcret
  6277   00369E                     __end_of_I2C1_DO_IDLE:
  6278                           	callstack 0
  6279                           
  6280 ;; *************** function _I2C1_DO_TX_ACK *****************
  6281 ;; Defined at:
  6282 ;;		line 538 in file "mcc_generated_files/i2c1_master.c"
  6283 ;; Parameters:    Size  Location     Type
  6284 ;;		None
  6285 ;; Auto vars:     Size  Location     Type
  6286 ;;		None
  6287 ;; Return value:  Size  Location     Type
  6288 ;;                  1    wreg      enum E16234
  6289 ;; Registers used:
  6290 ;;		wreg, cstack
  6291 ;; Tracked objects:
  6292 ;;		On entry : 0/0
  6293 ;;		On exit  : 0/0
  6294 ;;		Unchanged: 0/0
  6295 ;; Data sizes:     COMRAM   BANK0   BANK1   BANK2   BANK3   BANK4   BANK5   BANK6   BANK7   BANK8   BANK9  BANK10  BANK1
      +1  BANK12  BANK13  BANK14  BANK15
  6296 ;;      Params:         0       0       0       0       0       0       0       0       0       0       0       0       
      +0       0       0       0       0
  6297 ;;      Locals:         0       0       0       0       0       0       0       0       0       0       0       0       
      +0       0       0       0       0
  6298 ;;      Temps:          0       0       0       0       0       0       0       0       0       0       0       0       
      +0       0       0       0       0
  6299 ;;      Totals:         0       0       0       0       0       0       0       0       0       0       0       0       
      +0       0       0       0       0
  6300 ;;Total ram usage:        0 bytes
  6301 ;; Hardware stack levels used: 1
  6302 ;; Hardware stack levels required when called: 1
  6303 ;; This function calls:
  6304 ;;		_I2C1_MasterSendAck
  6305 ;; This function is called by:
  6306 ;;		_I2C1_MasterFsm
  6307 ;; This function uses a non-reentrant model
  6308 ;;
  6309                           
  6310                           	psect	text33
  6311   003706                     __ptext33:
  6312                           	callstack 0
  6313   003706                     _I2C1_DO_TX_ACK:
  6314                           	callstack 24
  6315   003706                     
  6316                           ;mcc_generated_files/i2c1_master.c: 540:     I2C1_MasterSendAck();
  6317   003706  EC94  F01B         	call	_I2C1_MasterSendAck	;wreg free
  6318   00370A                     
  6319                           ;mcc_generated_files/i2c1_master.c: 541:     return I2C1_TX;
  6320   00370A  0E03               	movlw	3
  6321   00370C  0012               	return		;funcret
  6322   00370E                     __end_of_I2C1_DO_TX_ACK:
  6323                           	callstack 0
  6324                           
  6325 ;; *************** function _I2C1_MasterIsTxBufEmpty *****************
  6326 ;; Defined at:
  6327 ;;		line 740 in file "mcc_generated_files/i2c1_master.c"
  6328 ;; Parameters:    Size  Location     Type
  6329 ;;		None
  6330 ;; Auto vars:     Size  Location     Type
  6331 ;;		None
  6332 ;; Return value:  Size  Location     Type
  6333 ;;                  1    wreg      _Bool 
  6334 ;; Registers used:
  6335 ;;		wreg
  6336 ;; Tracked objects:
  6337 ;;		On entry : 0/0
  6338 ;;		On exit  : 0/0
  6339 ;;		Unchanged: 0/0
  6340 ;; Data sizes:     COMRAM   BANK0   BANK1   BANK2   BANK3   BANK4   BANK5   BANK6   BANK7   BANK8   BANK9  BANK10  BANK1
      +1  BANK12  BANK13  BANK14  BANK15
  6341 ;;      Params:         0       0       0       0       0       0       0       0       0       0       0       0       
      +0       0       0       0       0
  6342 ;;      Locals:         0       0       0       0       0       0       0       0       0       0       0       0       
      +0       0       0       0       0
  6343 ;;      Temps:          0       0       0       0       0       0       0       0       0       0       0       0       
      +0       0       0       0       0
  6344 ;;      Totals:         0       0       0       0       0       0       0       0       0       0       0       0       
      +0       0       0       0       0
  6345 ;;Total ram usage:        0 bytes
  6346 ;; Hardware stack levels used: 1
  6347 ;; This function calls:
  6348 ;;		Nothing
  6349 ;; This function is called by:
  6350 ;;		_I2C1_DO_TX
  6351 ;; This function uses a non-reentrant model
  6352 ;;
  6353                           
  6354                           	psect	text34
  6355   003594                     __ptext34:
  6356                           	callstack 0
  6357   003594                     _I2C1_MasterIsTxBufEmpty:
  6358                           	callstack 24
  6359   003594                     
  6360                           ;mcc_generated_files/i2c1_master.c: 742:     return I2C1STAT1bits.TXBE;
  6361   003594  013D               	movlb	61	; () banked
  6362   003596  BB78               	btfsc	120,5,b	;volatile
  6363   003598  EFD0  F01A         	goto	u1681
  6364   00359C  EFD3  F01A         	goto	u1680
  6365   0035A0                     u1681:
  6366   0035A0  0E01               	movlw	1
  6367   0035A2  EFD4  F01A         	goto	u1686
  6368   0035A6                     u1680:
  6369   0035A6  0E00               	movlw	0
  6370   0035A8                     u1686:
  6371   0035A8                     
  6372                           ; BSR set to: 61
  6373   0035A8  0012               	return		;funcret
  6374   0035AA                     __end_of_I2C1_MasterIsTxBufEmpty:
  6375                           	callstack 0
  6376                           
  6377 ;; *************** function _I2C1_MasterIsNack *****************
  6378 ;; Defined at:
  6379 ;;		line 713 in file "mcc_generated_files/i2c1_master.c"
  6380 ;; Parameters:    Size  Location     Type
  6381 ;;		None
  6382 ;; Auto vars:     Size  Location     Type
  6383 ;;		None
  6384 ;; Return value:  Size  Location     Type
  6385 ;;                  1    wreg      _Bool 
  6386 ;; Registers used:
  6387 ;;		wreg
  6388 ;; Tracked objects:
  6389 ;;		On entry : 0/0
  6390 ;;		On exit  : 0/0
  6391 ;;		Unchanged: 0/0
  6392 ;; Data sizes:     COMRAM   BANK0   BANK1   BANK2   BANK3   BANK4   BANK5   BANK6   BANK7   BANK8   BANK9  BANK10  BANK1
      +1  BANK12  BANK13  BANK14  BANK15
  6393 ;;      Params:         0       0       0       0       0       0       0       0       0       0       0       0       
      +0       0       0       0       0
  6394 ;;      Locals:         0       0       0       0       0       0       0       0       0       0       0       0       
      +0       0       0       0       0
  6395 ;;      Temps:          0       0       0       0       0       0       0       0       0       0       0       0       
      +0       0       0       0       0
  6396 ;;      Totals:         0       0       0       0       0       0       0       0       0       0       0       0       
      +0       0       0       0       0
  6397 ;;Total ram usage:        0 bytes
  6398 ;; Hardware stack levels used: 1
  6399 ;; This function calls:
  6400 ;;		Nothing
  6401 ;; This function is called by:
  6402 ;;		_I2C1_MasterFsm
  6403 ;;		_I2C1_DO_TX
  6404 ;; This function uses a non-reentrant model
  6405 ;;
  6406                           
  6407                           	psect	text35
  6408   0035AA                     __ptext35:
  6409                           	callstack 0
  6410   0035AA                     _I2C1_MasterIsNack:
  6411                           	callstack 25
  6412   0035AA                     
  6413                           ;mcc_generated_files/i2c1_master.c: 715:     return I2C1CON1bits.ACKSTAT;
  6414   0035AA  013D               	movlb	61	; () banked
  6415   0035AC  BB74               	btfsc	116,5,b	;volatile
  6416   0035AE  EFDB  F01A         	goto	u1641
  6417   0035B2  EFDE  F01A         	goto	u1640
  6418   0035B6                     u1641:
  6419   0035B6  0E01               	movlw	1
  6420   0035B8  EFDF  F01A         	goto	u1646
  6421   0035BC                     u1640:
  6422   0035BC  0E00               	movlw	0
  6423   0035BE                     u1646:
  6424   0035BE                     
  6425                           ; BSR set to: 61
  6426   0035BE  0012               	return		;funcret
  6427   0035C0                     __end_of_I2C1_MasterIsNack:
  6428                           	callstack 0
  6429                           
  6430 ;; *************** function _I2C1_MasterGetCounter *****************
  6431 ;; Defined at:
  6432 ;;		line 675 in file "mcc_generated_files/i2c1_master.c"
  6433 ;; Parameters:    Size  Location     Type
  6434 ;;		None
  6435 ;; Auto vars:     Size  Location     Type
  6436 ;;		None
  6437 ;; Return value:  Size  Location     Type
  6438 ;;                  1    wreg      unsigned char 
  6439 ;; Registers used:
  6440 ;;		wreg, status,2
  6441 ;; Tracked objects:
  6442 ;;		On entry : 0/0
  6443 ;;		On exit  : 0/0
  6444 ;;		Unchanged: 0/0
  6445 ;; Data sizes:     COMRAM   BANK0   BANK1   BANK2   BANK3   BANK4   BANK5   BANK6   BANK7   BANK8   BANK9  BANK10  BANK1
      +1  BANK12  BANK13  BANK14  BANK15
  6446 ;;      Params:         0       0       0       0       0       0       0       0       0       0       0       0       
      +0       0       0       0       0
  6447 ;;      Locals:         0       0       0       0       0       0       0       0       0       0       0       0       
      +0       0       0       0       0
  6448 ;;      Temps:          0       0       0       0       0       0       0       0       0       0       0       0       
      +0       0       0       0       0
  6449 ;;      Totals:         0       0       0       0       0       0       0       0       0       0       0       0       
      +0       0       0       0       0
  6450 ;;Total ram usage:        0 bytes
  6451 ;; Hardware stack levels used: 1
  6452 ;; This function calls:
  6453 ;;		Nothing
  6454 ;; This function is called by:
  6455 ;;		_I2C1_DO_SEND_STOP
  6456 ;; This function uses a non-reentrant model
  6457 ;;
  6458                           
  6459                           	psect	text36
  6460   003716                     __ptext36:
  6461                           	callstack 0
  6462   003716                     _I2C1_MasterGetCounter:
  6463                           	callstack 24
  6464   003716                     
  6465                           ;mcc_generated_files/i2c1_master.c: 677:     return I2C1CNT;
  6466   003716  013D               	movlb	61	; () banked
  6467   003718  516C               	movf	108,w,b	;volatile
  6468   00371A                     
  6469                           ; BSR set to: 61
  6470   00371A  0012               	return		;funcret
  6471   00371C                     __end_of_I2C1_MasterGetCounter:
  6472                           	callstack 0
  6473                           
  6474 ;; *************** function _I2C1_MasterStop *****************
  6475 ;; Defined at:
  6476 ;;		line 707 in file "mcc_generated_files/i2c1_master.c"
  6477 ;; Parameters:    Size  Location     Type
  6478 ;;		None
  6479 ;; Auto vars:     Size  Location     Type
  6480 ;;		None
  6481 ;; Return value:  Size  Location     Type
  6482 ;;                  1    wreg      void 
  6483 ;; Registers used:
  6484 ;;		None
  6485 ;; Tracked objects:
  6486 ;;		On entry : 0/0
  6487 ;;		On exit  : 0/0
  6488 ;;		Unchanged: 0/0
  6489 ;; Data sizes:     COMRAM   BANK0   BANK1   BANK2   BANK3   BANK4   BANK5   BANK6   BANK7   BANK8   BANK9  BANK10  BANK1
      +1  BANK12  BANK13  BANK14  BANK15
  6490 ;;      Params:         0       0       0       0       0       0       0       0       0       0       0       0       
      +0       0       0       0       0
  6491 ;;      Locals:         0       0       0       0       0       0       0       0       0       0       0       0       
      +0       0       0       0       0
  6492 ;;      Temps:          0       0       0       0       0       0       0       0       0       0       0       0       
      +0       0       0       0       0
  6493 ;;      Totals:         0       0       0       0       0       0       0       0       0       0       0       0       
      +0       0       0       0       0
  6494 ;;Total ram usage:        0 bytes
  6495 ;; Hardware stack levels used: 1
  6496 ;; This function calls:
  6497 ;;		Nothing
  6498 ;; This function is called by:
  6499 ;;		_I2C1_DO_SEND_STOP
  6500 ;;		_I2C1_DO_RX_NACK_STOP
  6501 ;; This function uses a non-reentrant model
  6502 ;;
  6503                           
  6504                           	psect	text37
  6505   00371C                     __ptext37:
  6506                           	callstack 0
  6507   00371C                     _I2C1_MasterStop:
  6508                           	callstack 24
  6509   00371C                     
  6510                           ;mcc_generated_files/i2c1_master.c: 710:     I2C1CON0bits.S = 0;
  6511   00371C  013D               	movlb	61	; () banked
  6512   00371E  9B73               	bcf	115,5,b	;volatile
  6513   003720                     
  6514                           ; BSR set to: 61
  6515   003720  0012               	return		;funcret
  6516   003722                     __end_of_I2C1_MasterStop:
  6517                           	callstack 0
  6518                           
  6519 ;; *************** function _I2C1_MasterSendNack *****************
  6520 ;; Defined at:
  6521 ;;		line 723 in file "mcc_generated_files/i2c1_master.c"
  6522 ;; Parameters:    Size  Location     Type
  6523 ;;		None
  6524 ;; Auto vars:     Size  Location     Type
  6525 ;;		None
  6526 ;; Return value:  Size  Location     Type
  6527 ;;                  1    wreg      void 
  6528 ;; Registers used:
  6529 ;;		None
  6530 ;; Tracked objects:
  6531 ;;		On entry : 0/0
  6532 ;;		On exit  : 0/0
  6533 ;;		Unchanged: 0/0
  6534 ;; Data sizes:     COMRAM   BANK0   BANK1   BANK2   BANK3   BANK4   BANK5   BANK6   BANK7   BANK8   BANK9  BANK10  BANK1
      +1  BANK12  BANK13  BANK14  BANK15
  6535 ;;      Params:         0       0       0       0       0       0       0       0       0       0       0       0       
      +0       0       0       0       0
  6536 ;;      Locals:         0       0       0       0       0       0       0       0       0       0       0       0       
      +0       0       0       0       0
  6537 ;;      Temps:          0       0       0       0       0       0       0       0       0       0       0       0       
      +0       0       0       0       0
  6538 ;;      Totals:         0       0       0       0       0       0       0       0       0       0       0       0       
      +0       0       0       0       0
  6539 ;;Total ram usage:        0 bytes
  6540 ;; Hardware stack levels used: 1
  6541 ;; This function calls:
  6542 ;;		Nothing
  6543 ;; This function is called by:
  6544 ;;		_I2C1_DO_RX_NACK_STOP
  6545 ;;		_I2C1_DO_RX_NACK_RESTART
  6546 ;; This function uses a non-reentrant model
  6547 ;;
  6548                           
  6549                           	psect	text38
  6550   003722                     __ptext38:
  6551                           	callstack 0
  6552   003722                     _I2C1_MasterSendNack:
  6553                           	callstack 24
  6554   003722                     
  6555                           ;mcc_generated_files/i2c1_master.c: 725:     I2C1CON1bits.ACKDT = 1;
  6556   003722  013D               	movlb	61	; () banked
  6557   003724  8D74               	bsf	116,6,b	;volatile
  6558   003726                     
  6559                           ; BSR set to: 61
  6560   003726  0012               	return		;funcret
  6561   003728                     __end_of_I2C1_MasterSendNack:
  6562                           	callstack 0
  6563                           
  6564 ;; *************** function _I2C1_MasterSendAck *****************
  6565 ;; Defined at:
  6566 ;;		line 718 in file "mcc_generated_files/i2c1_master.c"
  6567 ;; Parameters:    Size  Location     Type
  6568 ;;		None
  6569 ;; Auto vars:     Size  Location     Type
  6570 ;;		None
  6571 ;; Return value:  Size  Location     Type
  6572 ;;                  1    wreg      void 
  6573 ;; Registers used:
  6574 ;;		None
  6575 ;; Tracked objects:
  6576 ;;		On entry : 0/0
  6577 ;;		On exit  : 0/0
  6578 ;;		Unchanged: 0/0
  6579 ;; Data sizes:     COMRAM   BANK0   BANK1   BANK2   BANK3   BANK4   BANK5   BANK6   BANK7   BANK8   BANK9  BANK10  BANK1
      +1  BANK12  BANK13  BANK14  BANK15
  6580 ;;      Params:         0       0       0       0       0       0       0       0       0       0       0       0       
      +0       0       0       0       0
  6581 ;;      Locals:         0       0       0       0       0       0       0       0       0       0       0       0       
      +0       0       0       0       0
  6582 ;;      Temps:          0       0       0       0       0       0       0       0       0       0       0       0       
      +0       0       0       0       0
  6583 ;;      Totals:         0       0       0       0       0       0       0       0       0       0       0       0       
      +0       0       0       0       0
  6584 ;;Total ram usage:        0 bytes
  6585 ;; Hardware stack levels used: 1
  6586 ;; This function calls:
  6587 ;;		Nothing
  6588 ;; This function is called by:
  6589 ;;		_I2C1_DO_RX_ACK
  6590 ;;		_I2C1_DO_TX_ACK
  6591 ;; This function uses a non-reentrant model
  6592 ;;
  6593                           
  6594                           	psect	text39
  6595   003728                     __ptext39:
  6596                           	callstack 0
  6597   003728                     _I2C1_MasterSendAck:
  6598                           	callstack 24
  6599   003728                     
  6600                           ;mcc_generated_files/i2c1_master.c: 720:     I2C1CON1bits.ACKDT = 0;
  6601   003728  013D               	movlb	61	; () banked
  6602   00372A  9D74               	bcf	116,6,b	;volatile
  6603   00372C                     
  6604                           ; BSR set to: 61
  6605   00372C  0012               	return		;funcret
  6606   00372E                     __end_of_I2C1_MasterSendAck:
  6607                           	callstack 0
  6608                           
  6609 ;; *************** function _I2C1_MasterIsRxBufFull *****************
  6610 ;; Defined at:
  6611 ;;		line 735 in file "mcc_generated_files/i2c1_master.c"
  6612 ;; Parameters:    Size  Location     Type
  6613 ;;		None
  6614 ;; Auto vars:     Size  Location     Type
  6615 ;;		None
  6616 ;; Return value:  Size  Location     Type
  6617 ;;                  1    wreg      _Bool 
  6618 ;; Registers used:
  6619 ;;		wreg
  6620 ;; Tracked objects:
  6621 ;;		On entry : 0/0
  6622 ;;		On exit  : 0/0
  6623 ;;		Unchanged: 0/0
  6624 ;; Data sizes:     COMRAM   BANK0   BANK1   BANK2   BANK3   BANK4   BANK5   BANK6   BANK7   BANK8   BANK9  BANK10  BANK1
      +1  BANK12  BANK13  BANK14  BANK15
  6625 ;;      Params:         0       0       0       0       0       0       0       0       0       0       0       0       
      +0       0       0       0       0
  6626 ;;      Locals:         0       0       0       0       0       0       0       0       0       0       0       0       
      +0       0       0       0       0
  6627 ;;      Temps:          0       0       0       0       0       0       0       0       0       0       0       0       
      +0       0       0       0       0
  6628 ;;      Totals:         0       0       0       0       0       0       0       0       0       0       0       0       
      +0       0       0       0       0
  6629 ;;Total ram usage:        0 bytes
  6630 ;; Hardware stack levels used: 1
  6631 ;; This function calls:
  6632 ;;		Nothing
  6633 ;; This function is called by:
  6634 ;;		_I2C1_DO_RX
  6635 ;; This function uses a non-reentrant model
  6636 ;;
  6637                           
  6638                           	psect	text40
  6639   0035C0                     __ptext40:
  6640                           	callstack 0
  6641   0035C0                     _I2C1_MasterIsRxBufFull:
  6642                           	callstack 24
  6643   0035C0                     
  6644                           ;mcc_generated_files/i2c1_master.c: 737:     return I2C1STAT1bits.RXBF;
  6645   0035C0  013D               	movlb	61	; () banked
  6646   0035C2  B178               	btfsc	120,0,b	;volatile
  6647   0035C4  EFE6  F01A         	goto	u1701
  6648   0035C8  EFE9  F01A         	goto	u1700
  6649   0035CC                     u1701:
  6650   0035CC  0E01               	movlw	1
  6651   0035CE  EFEA  F01A         	goto	u1706
  6652   0035D2                     u1700:
  6653   0035D2  0E00               	movlw	0
  6654   0035D4                     u1706:
  6655   0035D4                     
  6656                           ; BSR set to: 61
  6657   0035D4  0012               	return		;funcret
  6658   0035D6                     __end_of_I2C1_MasterIsRxBufFull:
  6659                           	callstack 0
  6660                           
  6661 ;; *************** function _I2C1_MasterGetRxData *****************
  6662 ;; Defined at:
  6663 ;;		line 665 in file "mcc_generated_files/i2c1_master.c"
  6664 ;; Parameters:    Size  Location     Type
  6665 ;;		None
  6666 ;; Auto vars:     Size  Location     Type
  6667 ;;		None
  6668 ;; Return value:  Size  Location     Type
  6669 ;;                  1    wreg      unsigned char 
  6670 ;; Registers used:
  6671 ;;		wreg, status,2
  6672 ;; Tracked objects:
  6673 ;;		On entry : 0/0
  6674 ;;		On exit  : 0/0
  6675 ;;		Unchanged: 0/0
  6676 ;; Data sizes:     COMRAM   BANK0   BANK1   BANK2   BANK3   BANK4   BANK5   BANK6   BANK7   BANK8   BANK9  BANK10  BANK1
      +1  BANK12  BANK13  BANK14  BANK15
  6677 ;;      Params:         0       0       0       0       0       0       0       0       0       0       0       0       
      +0       0       0       0       0
  6678 ;;      Locals:         0       0       0       0       0       0       0       0       0       0       0       0       
      +0       0       0       0       0
  6679 ;;      Temps:          0       0       0       0       0       0       0       0       0       0       0       0       
      +0       0       0       0       0
  6680 ;;      Totals:         0       0       0       0       0       0       0       0       0       0       0       0       
      +0       0       0       0       0
  6681 ;;Total ram usage:        0 bytes
  6682 ;; Hardware stack levels used: 1
  6683 ;; This function calls:
  6684 ;;		Nothing
  6685 ;; This function is called by:
  6686 ;;		_I2C1_DO_RX
  6687 ;; This function uses a non-reentrant model
  6688 ;;
  6689                           
  6690                           	psect	text41
  6691   00372E                     __ptext41:
  6692                           	callstack 0
  6693   00372E                     _I2C1_MasterGetRxData:
  6694                           	callstack 24
  6695   00372E                     
  6696                           ;mcc_generated_files/i2c1_master.c: 667:     return I2C1RXB;
  6697   00372E  013D               	movlb	61	; () banked
  6698   003730  516A               	movf	106,w,b	;volatile
  6699   003732                     
  6700                           ; BSR set to: 61
  6701   003732  0012               	return		;funcret
  6702   003734                     __end_of_I2C1_MasterGetRxData:
  6703                           	callstack 0
  6704                           
  6705 ;; *************** function _I2C1_MasterSendTxData *****************
  6706 ;; Defined at:
  6707 ;;		line 670 in file "mcc_generated_files/i2c1_master.c"
  6708 ;; Parameters:    Size  Location     Type
  6709 ;;  data            1    wreg     unsigned char 
  6710 ;; Auto vars:     Size  Location     Type
  6711 ;;  data            1    0[COMRAM] unsigned char 
  6712 ;; Return value:  Size  Location     Type
  6713 ;;                  1    wreg      void 
  6714 ;; Registers used:
  6715 ;;		wreg
  6716 ;; Tracked objects:
  6717 ;;		On entry : 0/0
  6718 ;;		On exit  : 0/0
  6719 ;;		Unchanged: 0/0
  6720 ;; Data sizes:     COMRAM   BANK0   BANK1   BANK2   BANK3   BANK4   BANK5   BANK6   BANK7   BANK8   BANK9  BANK10  BANK1
      +1  BANK12  BANK13  BANK14  BANK15
  6721 ;;      Params:         0       0       0       0       0       0       0       0       0       0       0       0       
      +0       0       0       0       0
  6722 ;;      Locals:         1       0       0       0       0       0       0       0       0       0       0       0       
      +0       0       0       0       0
  6723 ;;      Temps:          0       0       0       0       0       0       0       0       0       0       0       0       
      +0       0       0       0       0
  6724 ;;      Totals:         1       0       0       0       0       0       0       0       0       0       0       0       
      +0       0       0       0       0
  6725 ;;Total ram usage:        1 bytes
  6726 ;; Hardware stack levels used: 1
  6727 ;; This function calls:
  6728 ;;		Nothing
  6729 ;; This function is called by:
  6730 ;;		_I2C1_DO_SEND_ADR_READ
  6731 ;;		_I2C1_DO_SEND_ADR_WRITE
  6732 ;;		_I2C1_DO_TX
  6733 ;;		_I2C1_DO_SEND_STOP
  6734 ;; This function uses a non-reentrant model
  6735 ;;
  6736                           
  6737                           	psect	text42
  6738   0036AA                     __ptext42:
  6739                           	callstack 0
  6740   0036AA                     _I2C1_MasterSendTxData:
  6741                           	callstack 24
  6742                           
  6743                           ; BSR set to: 61
  6744                           ;incstack = 0
  6745                           ;I2C1_MasterSendTxData@data stored from wreg
  6746   0036AA  6E01               	movwf	I2C1_MasterSendTxData@data^0,c
  6747   0036AC                     
  6748                           ;mcc_generated_files/i2c1_master.c: 670: static __attribute__((inline)) void I2C1_Master
      +                          SendTxData(uint8_t data);mcc_generated_files/i2c1_master.c: 671: {;mcc_generated_files/i
      +                          2c1_master.c: 672:     I2C1TXB = data;
  6749   0036AC  0060  F007  FD6B   	movff	I2C1_MasterSendTxData@data,15723	;volatile
  6750   0036B2  0012               	return		;funcret
  6751   0036B4                     __end_of_I2C1_MasterSendTxData:
  6752                           	callstack 0
  6753                           
  6754 ;; *************** function _I2C1_MasterSetCounter *****************
  6755 ;; Defined at:
  6756 ;;		line 680 in file "mcc_generated_files/i2c1_master.c"
  6757 ;; Parameters:    Size  Location     Type
  6758 ;;  counter         1    wreg     unsigned char 
  6759 ;; Auto vars:     Size  Location     Type
  6760 ;;  counter         1    0[COMRAM] unsigned char 
  6761 ;; Return value:  Size  Location     Type
  6762 ;;                  1    wreg      void 
  6763 ;; Registers used:
  6764 ;;		wreg
  6765 ;; Tracked objects:
  6766 ;;		On entry : 0/0
  6767 ;;		On exit  : 0/0
  6768 ;;		Unchanged: 0/0
  6769 ;; Data sizes:     COMRAM   BANK0   BANK1   BANK2   BANK3   BANK4   BANK5   BANK6   BANK7   BANK8   BANK9  BANK10  BANK1
      +1  BANK12  BANK13  BANK14  BANK15
  6770 ;;      Params:         0       0       0       0       0       0       0       0       0       0       0       0       
      +0       0       0       0       0
  6771 ;;      Locals:         1       0       0       0       0       0       0       0       0       0       0       0       
      +0       0       0       0       0
  6772 ;;      Temps:          0       0       0       0       0       0       0       0       0       0       0       0       
      +0       0       0       0       0
  6773 ;;      Totals:         1       0       0       0       0       0       0       0       0       0       0       0       
      +0       0       0       0       0
  6774 ;;Total ram usage:        1 bytes
  6775 ;; Hardware stack levels used: 1
  6776 ;; This function calls:
  6777 ;;		Nothing
  6778 ;; This function is called by:
  6779 ;;		_I2C1_MasterOperation
  6780 ;;		_I2C1_DO_TX_EMPTY
  6781 ;;		_I2C1_DO_RX_EMPTY
  6782 ;;		_I2C1_DO_SEND_RESTART_READ
  6783 ;;		_I2C1_DO_SEND_STOP
  6784 ;; This function uses a non-reentrant model
  6785 ;;
  6786                           
  6787                           	psect	text43
  6788   0036B4                     __ptext43:
  6789                           	callstack 0
  6790   0036B4                     _I2C1_MasterSetCounter:
  6791                           	callstack 24
  6792                           
  6793                           ;incstack = 0
  6794                           ;I2C1_MasterSetCounter@counter stored from wreg
  6795   0036B4  6E01               	movwf	I2C1_MasterSetCounter@counter^0,c
  6796   0036B6                     
  6797                           ;mcc_generated_files/i2c1_master.c: 680: static __attribute__((inline)) void I2C1_Master
      +                          SetCounter(uint8_t counter);mcc_generated_files/i2c1_master.c: 681: {;mcc_generated_file
      +                          s/i2c1_master.c: 682:     I2C1CNT = counter;
  6798   0036B6  0060  F007  FD6C   	movff	I2C1_MasterSetCounter@counter,15724	;volatile
  6799   0036BC  0012               	return		;funcret
  6800   0036BE                     __end_of_I2C1_MasterSetCounter:
  6801                           	callstack 0
  6802                           
  6803 ;; *************** function _I2C1_MasterEnableRestart *****************
  6804 ;; Defined at:
  6805 ;;		line 695 in file "mcc_generated_files/i2c1_master.c"
  6806 ;; Parameters:    Size  Location     Type
  6807 ;;		None
  6808 ;; Auto vars:     Size  Location     Type
  6809 ;;		None
  6810 ;; Return value:  Size  Location     Type
  6811 ;;                  1    wreg      void 
  6812 ;; Registers used:
  6813 ;;		None
  6814 ;; Tracked objects:
  6815 ;;		On entry : 0/0
  6816 ;;		On exit  : 0/0
  6817 ;;		Unchanged: 0/0
  6818 ;; Data sizes:     COMRAM   BANK0   BANK1   BANK2   BANK3   BANK4   BANK5   BANK6   BANK7   BANK8   BANK9  BANK10  BANK1
      +1  BANK12  BANK13  BANK14  BANK15
  6819 ;;      Params:         0       0       0       0       0       0       0       0       0       0       0       0       
      +0       0       0       0       0
  6820 ;;      Locals:         0       0       0       0       0       0       0       0       0       0       0       0       
      +0       0       0       0       0
  6821 ;;      Temps:          0       0       0       0       0       0       0       0       0       0       0       0       
      +0       0       0       0       0
  6822 ;;      Totals:         0       0       0       0       0       0       0       0       0       0       0       0       
      +0       0       0       0       0
  6823 ;;Total ram usage:        0 bytes
  6824 ;; Hardware stack levels used: 1
  6825 ;; This function calls:
  6826 ;;		Nothing
  6827 ;; This function is called by:
  6828 ;;		_I2C1_DO_TX_EMPTY
  6829 ;;		_I2C1_DO_RX_EMPTY
  6830 ;; This function uses a non-reentrant model
  6831 ;;
  6832                           
  6833                           	psect	text44
  6834   003734                     __ptext44:
  6835                           	callstack 0
  6836   003734                     _I2C1_MasterEnableRestart:
  6837                           	callstack 24
  6838   003734                     
  6839                           ;mcc_generated_files/i2c1_master.c: 698:     I2C1CON0bits.RSEN = 1;
  6840   003734  013D               	movlb	61	; () banked
  6841   003736  8D73               	bsf	115,6,b	;volatile
  6842   003738                     
  6843                           ; BSR set to: 61
  6844   003738  0012               	return		;funcret
  6845   00373A                     __end_of_I2C1_MasterEnableRestart:
  6846                           	callstack 0
  6847                           
  6848 ;; *************** function _I2C1_MasterDisableRestart *****************
  6849 ;; Defined at:
  6850 ;;		line 701 in file "mcc_generated_files/i2c1_master.c"
  6851 ;; Parameters:    Size  Location     Type
  6852 ;;		None
  6853 ;; Auto vars:     Size  Location     Type
  6854 ;;		None
  6855 ;; Return value:  Size  Location     Type
  6856 ;;                  1    wreg      void 
  6857 ;; Registers used:
  6858 ;;		None
  6859 ;; Tracked objects:
  6860 ;;		On entry : 0/0
  6861 ;;		On exit  : 0/0
  6862 ;;		Unchanged: 0/0
  6863 ;; Data sizes:     COMRAM   BANK0   BANK1   BANK2   BANK3   BANK4   BANK5   BANK6   BANK7   BANK8   BANK9  BANK10  BANK1
      +1  BANK12  BANK13  BANK14  BANK15
  6864 ;;      Params:         0       0       0       0       0       0       0       0       0       0       0       0       
      +0       0       0       0       0
  6865 ;;      Locals:         0       0       0       0       0       0       0       0       0       0       0       0       
      +0       0       0       0       0
  6866 ;;      Temps:          0       0       0       0       0       0       0       0       0       0       0       0       
      +0       0       0       0       0
  6867 ;;      Totals:         0       0       0       0       0       0       0       0       0       0       0       0       
      +0       0       0       0       0
  6868 ;;Total ram usage:        0 bytes
  6869 ;; Hardware stack levels used: 1
  6870 ;; This function calls:
  6871 ;;		Nothing
  6872 ;; This function is called by:
  6873 ;;		_I2C1_DO_TX_EMPTY
  6874 ;;		_I2C1_DO_RX_EMPTY
  6875 ;; This function uses a non-reentrant model
  6876 ;;
  6877                           
  6878                           	psect	text45
  6879   00373A                     __ptext45:
  6880                           	callstack 0
  6881   00373A                     _I2C1_MasterDisableRestart:
  6882                           	callstack 24
  6883   00373A                     
  6884                           ;mcc_generated_files/i2c1_master.c: 704:     I2C1CON0bits.RSEN = 0;
  6885   00373A  013D               	movlb	61	; () banked
  6886   00373C  9D73               	bcf	115,6,b	;volatile
  6887   00373E                     
  6888                           ; BSR set to: 61
  6889   00373E  0012               	return		;funcret
  6890   003740                     __end_of_I2C1_MasterDisableRestart:
  6891                           	callstack 0
  6892                           
  6893 ;; *************** function _I2C1_MasterResetBus *****************
  6894 ;; Defined at:
  6895 ;;		line 685 in file "mcc_generated_files/i2c1_master.c"
  6896 ;; Parameters:    Size  Location     Type
  6897 ;;		None
  6898 ;; Auto vars:     Size  Location     Type
  6899 ;;		None
  6900 ;; Return value:  Size  Location     Type
  6901 ;;                  1    wreg      void 
  6902 ;; Registers used:
  6903 ;;		None
  6904 ;; Tracked objects:
  6905 ;;		On entry : 0/0
  6906 ;;		On exit  : 0/0
  6907 ;;		Unchanged: 0/0
  6908 ;; Data sizes:     COMRAM   BANK0   BANK1   BANK2   BANK3   BANK4   BANK5   BANK6   BANK7   BANK8   BANK9  BANK10  BANK1
      +1  BANK12  BANK13  BANK14  BANK15
  6909 ;;      Params:         0       0       0       0       0       0       0       0       0       0       0       0       
      +0       0       0       0       0
  6910 ;;      Locals:         0       0       0       0       0       0       0       0       0       0       0       0       
      +0       0       0       0       0
  6911 ;;      Temps:          0       0       0       0       0       0       0       0       0       0       0       0       
      +0       0       0       0       0
  6912 ;;      Totals:         0       0       0       0       0       0       0       0       0       0       0       0       
      +0       0       0       0       0
  6913 ;;Total ram usage:        0 bytes
  6914 ;; Hardware stack levels used: 1
  6915 ;; This function calls:
  6916 ;;		Nothing
  6917 ;; This function is called by:
  6918 ;;		_I2C1_DO_RESET
  6919 ;;		_I2C1_DO_BUS_ERROR
  6920 ;; This function uses a non-reentrant model
  6921 ;;
  6922                           
  6923                           	psect	text46
  6924   0036BE                     __ptext46:
  6925                           	callstack 0
  6926   0036BE                     _I2C1_MasterResetBus:
  6927                           	callstack 24
  6928   0036BE                     
  6929                           ;mcc_generated_files/i2c1_master.c: 688:     I2C1CON0bits.EN = 0;
  6930   0036BE  013D               	movlb	61	; () banked
  6931   0036C0  9F73               	bcf	115,7,b	;volatile
  6932                           
  6933                           ;mcc_generated_files/i2c1_master.c: 690:     I2C1STAT1bits.CLRBF = 1;
  6934   0036C2  8578               	bsf	120,2,b	;volatile
  6935                           
  6936                           ;mcc_generated_files/i2c1_master.c: 692:     I2C1CON0bits.EN = 1;
  6937   0036C4  8F73               	bsf	115,7,b	;volatile
  6938   0036C6                     
  6939                           ; BSR set to: 61
  6940   0036C6  0012               	return		;funcret
  6941   0036C8                     __end_of_I2C1_MasterResetBus:
  6942                           	callstack 0
  6943                           
  6944 ;; *************** function _I2C1_CallbackReturnReset *****************
  6945 ;; Defined at:
  6946 ;;		line 614 in file "mcc_generated_files/i2c1_master.c"
  6947 ;; Parameters:    Size  Location     Type
  6948 ;;  funPtr          2    9[COMRAM] PTR void 
  6949 ;;		 -> I2C1_ReadDataBlock@bufferBlock(4), I2C1_Write2ByteRegister@data(2), I2C1_Write1ByteRegister@data(1), I2C1_Read2B
      +yteRegister@returnValue(2), 
  6950 ;;		 -> I2C1_Read1ByteRegister@returnValue(1), i2c_readDataBlock@d(4), i2c_write2ByteRegister@data(2), i2c_read2ByteRegi
      +ster@result(2), 
  6951 ;;		 -> i2c_read1ByteRegister@d2(1), i2c_write1ByteRegister@data(1), NULL(0), 
  6952 ;; Auto vars:     Size  Location     Type
  6953 ;;		None
  6954 ;; Return value:  Size  Location     Type
  6955 ;;                  1    wreg      enum E360
  6956 ;; Registers used:
  6957 ;;		wreg
  6958 ;; Tracked objects:
  6959 ;;		On entry : 0/0
  6960 ;;		On exit  : 0/0
  6961 ;;		Unchanged: 0/0
  6962 ;; Data sizes:     COMRAM   BANK0   BANK1   BANK2   BANK3   BANK4   BANK5   BANK6   BANK7   BANK8   BANK9  BANK10  BANK1
      +1  BANK12  BANK13  BANK14  BANK15
  6963 ;;      Params:         2       0       0       0       0       0       0       0       0       0       0       0       
      +0       0       0       0       0
  6964 ;;      Locals:         0       0       0       0       0       0       0       0       0       0       0       0       
      +0       0       0       0       0
  6965 ;;      Temps:          0       0       0       0       0       0       0       0       0       0       0       0       
      +0       0       0       0       0
  6966 ;;      Totals:         2       0       0       0       0       0       0       0       0       0       0       0       
      +0       0       0       0       0
  6967 ;;Total ram usage:        2 bytes
  6968 ;; Hardware stack levels used: 1
  6969 ;; This function calls:
  6970 ;;		Nothing
  6971 ;; This function is called by:
  6972 ;;		_I2C1_Open
  6973 ;;		_I2C1_DO_RX_EMPTY
  6974 ;;		_I2C1_DO_TX_EMPTY
  6975 ;;		_I2C1_DO_TX
  6976 ;;		_I2C1_DO_ADDRESS_NACK
  6977 ;;		_I2C1_DO_BUS_COLLISION
  6978 ;; This function uses a non-reentrant model
  6979 ;;
  6980                           
  6981                           	psect	text47
  6982   00375A                     __ptext47:
  6983                           	callstack 0
  6984   00375A                     _I2C1_CallbackReturnReset:
  6985                           	callstack 24
  6986   00375A                     
  6987                           ;mcc_generated_files/i2c1_master.c: 614: i2c1_operations_t I2C1_CallbackReturnReset(void
      +                           *funPtr);mcc_generated_files/i2c1_master.c: 615: {;mcc_generated_files/i2c1_master.c: 6
      +                          16:     return I2C1_RESET_LINK;
  6988   00375A  0E05               	movlw	5
  6989   00375C  0012               	return		;funcret
  6990   00375E                     __end_of_I2C1_CallbackReturnReset:
  6991                           	callstack 0
  6992                           
  6993 ;; *************** function _I2C1_CallbackReturnStop *****************
  6994 ;; Defined at:
  6995 ;;		line 609 in file "mcc_generated_files/i2c1_master.c"
  6996 ;; Parameters:    Size  Location     Type
  6997 ;;  funPtr          2    9[COMRAM] PTR void 
  6998 ;;		 -> I2C1_ReadDataBlock@bufferBlock(4), I2C1_Write2ByteRegister@data(2), I2C1_Write1ByteRegister@data(1), I2C1_Read2B
      +yteRegister@returnValue(2), 
  6999 ;;		 -> I2C1_Read1ByteRegister@returnValue(1), i2c_readDataBlock@d(4), i2c_write2ByteRegister@data(2), i2c_read2ByteRegi
      +ster@result(2), 
  7000 ;;		 -> i2c_read1ByteRegister@d2(1), i2c_write1ByteRegister@data(1), NULL(0), 
  7001 ;; Auto vars:     Size  Location     Type
  7002 ;;		None
  7003 ;; Return value:  Size  Location     Type
  7004 ;;                  1    wreg      enum E360
  7005 ;; Registers used:
  7006 ;;		wreg
  7007 ;; Tracked objects:
  7008 ;;		On entry : 0/0
  7009 ;;		On exit  : 0/0
  7010 ;;		Unchanged: 0/0
  7011 ;; Data sizes:     COMRAM   BANK0   BANK1   BANK2   BANK3   BANK4   BANK5   BANK6   BANK7   BANK8   BANK9  BANK10  BANK1
      +1  BANK12  BANK13  BANK14  BANK15
  7012 ;;      Params:         2       0       0       0       0       0       0       0       0       0       0       0       
      +0       0       0       0       0
  7013 ;;      Locals:         0       0       0       0       0       0       0       0       0       0       0       0       
      +0       0       0       0       0
  7014 ;;      Temps:          0       0       0       0       0       0       0       0       0       0       0       0       
      +0       0       0       0       0
  7015 ;;      Totals:         2       0       0       0       0       0       0       0       0       0       0       0       
      +0       0       0       0       0
  7016 ;;Total ram usage:        2 bytes
  7017 ;; Hardware stack levels used: 1
  7018 ;; This function calls:
  7019 ;;		Nothing
  7020 ;; This function is called by:
  7021 ;;		_I2C1_Open
  7022 ;;		_I2C1_SetCallback
  7023 ;;		_I2C1_DO_RX_EMPTY
  7024 ;;		_I2C1_DO_TX_EMPTY
  7025 ;;		_I2C1_DO_TX
  7026 ;;		_I2C1_DO_ADDRESS_NACK
  7027 ;;		_I2C1_DO_BUS_COLLISION
  7028 ;; This function uses a non-reentrant model
  7029 ;;
  7030                           
  7031                           	psect	text48
  7032   00375E                     __ptext48:
  7033                           	callstack 0
  7034   00375E                     _I2C1_CallbackReturnStop:
  7035                           	callstack 24
  7036   00375E                     
  7037                           ;mcc_generated_files/i2c1_master.c: 609: i2c1_operations_t I2C1_CallbackReturnStop(void 
      +                          *funPtr);mcc_generated_files/i2c1_master.c: 610: {;mcc_generated_files/i2c1_master.c: 61
      +                          1:     return I2C1_STOP;
  7038   00375E  0E01               	movlw	1
  7039   003760  0012               	return		;funcret
  7040   003762                     __end_of_I2C1_CallbackReturnStop:
  7041                           	callstack 0
  7042                           
  7043 ;; *************** function _rdBlkRegCompleteHandler@i2c1_master_example$F179 *****************
  7044 ;; Defined at:
  7045 ;;		line 170 in file "mcc_generated_files/examples/i2c1_master_example.c"
  7046 ;; Parameters:    Size  Location     Type
  7047 ;;  ptr             2    9[COMRAM] PTR void 
  7048 ;;		 -> I2C1_ReadDataBlock@bufferBlock(4), I2C1_Write2ByteRegister@data(2), I2C1_Write1ByteRegister@data(1), I2C1_Read2B
      +yteRegister@returnValue(2), 
  7049 ;;		 -> I2C1_Read1ByteRegister@returnValue(1), i2c_readDataBlock@d(4), i2c_write2ByteRegister@data(2), i2c_read2ByteRegi
      +ster@result(2), 
  7050 ;;		 -> i2c_read1ByteRegister@d2(1), i2c_write1ByteRegister@data(1), NULL(0), 
  7051 ;; Auto vars:     Size  Location     Type
  7052 ;;		None
  7053 ;; Return value:  Size  Location     Type
  7054 ;;                  1    wreg      enum E360
  7055 ;; Registers used:
  7056 ;;		wreg, fsr2l, fsr2h, status,2, status,0, prodl, prodh, cstack
  7057 ;; Tracked objects:
  7058 ;;		On entry : 0/0
  7059 ;;		On exit  : 0/0
  7060 ;;		Unchanged: 0/0
  7061 ;; Data sizes:     COMRAM   BANK0   BANK1   BANK2   BANK3   BANK4   BANK5   BANK6   BANK7   BANK8   BANK9  BANK10  BANK1
      +1  BANK12  BANK13  BANK14  BANK15
  7062 ;;      Params:         2       0       0       0       0       0       0       0       0       0       0       0       
      +0       0       0       0       0
  7063 ;;      Locals:         0       0       0       0       0       0       0       0       0       0       0       0       
      +0       0       0       0       0
  7064 ;;      Temps:          0       0       0       0       0       0       0       0       0       0       0       0       
      +0       0       0       0       0
  7065 ;;      Totals:         2       0       0       0       0       0       0       0       0       0       0       0       
      +0       0       0       0       0
  7066 ;;Total ram usage:        2 bytes
  7067 ;; Hardware stack levels used: 1
  7068 ;; Hardware stack levels required when called: 2
  7069 ;; This function calls:
  7070 ;;		_I2C1_SetBuffer
  7071 ;;		_I2C1_SetDataCompleteCallback
  7072 ;; This function is called by:
  7073 ;;		_I2C1_ReadDataBlock
  7074 ;;		_I2C1_DO_RX_EMPTY
  7075 ;;		_I2C1_DO_TX_EMPTY
  7076 ;;		_I2C1_DO_TX
  7077 ;;		_I2C1_DO_ADDRESS_NACK
  7078 ;;		_I2C1_DO_BUS_COLLISION
  7079 ;; This function uses a non-reentrant model
  7080 ;;
  7081                           
  7082                           	psect	text49
  7083   003078                     __ptext49:
  7084                           	callstack 0
  7085   003078                     _rdBlkRegCompleteHandler@i2c1_master_example$F179:
  7086                           	callstack 22
  7087   003078                     
  7088                           ;mcc_generated_files/examples/i2c1_master_example.c: 170: static i2c1_operations_t rdBlk
      +                          RegCompleteHandler(void *ptr);mcc_generated_files/examples/i2c1_master_example.c: 171: {
      +                          ;mcc_generated_files/examples/i2c1_master_example.c: 172:     I2C1_SetBuffer(((i2c1_buff
      +                          er_t *)ptr)->data,((i2c1_buffer_t*)ptr)->len);
  7089   003078  EE20 F002          	lfsr	2,2
  7090   00307C  500A               	movf	rdBlkRegCompleteHandler@i2c1_master_example$F179@ptr^0,w,c
  7091   00307E  26D9               	addwf	fsr2l,f,c
  7092   003080  500B               	movf	(rdBlkRegCompleteHandler@i2c1_master_example$F179@ptr+1)^0,w,c
  7093   003082  22DA               	addwfc	fsr2h,f,c
  7094   003084  006F FF78  F001    	movff	postinc2,I2C1_SetBuffer@buffer
  7095   00308A  006F FF74  F002    	movff	postdec2,I2C1_SetBuffer@buffer+1
  7096   003090  0060  F02B  FFD9   	movff	rdBlkRegCompleteHandler@i2c1_master_example$F179@ptr,fsr2l
  7097   003096  0060  F02F  FFDA   	movff	rdBlkRegCompleteHandler@i2c1_master_example$F179@ptr+1,fsr2h
  7098   00309C  006F FF78  F003    	movff	postinc2,I2C1_SetBuffer@bufferSize
  7099   0030A2  006F FF74  F004    	movff	postdec2,I2C1_SetBuffer@bufferSize+1
  7100   0030A8  EC2E  F01A         	call	_I2C1_SetBuffer	;wreg free
  7101   0030AC                     
  7102                           ;mcc_generated_files/examples/i2c1_master_example.c: 173:     I2C1_SetDataCompleteCallba
      +                          ck(((void*)0),((void*)0));
  7103   0030AC  0E00               	movlw	0
  7104   0030AE  6E06               	movwf	I2C1_SetDataCompleteCallback@cb^0,c
  7105   0030B0  0E00               	movlw	0
  7106   0030B2  6E07               	movwf	(I2C1_SetDataCompleteCallback@cb+1)^0,c
  7107   0030B4  0E00               	movlw	0
  7108   0030B6  6E08               	movwf	I2C1_SetDataCompleteCallback@ptr^0,c
  7109   0030B8  0E00               	movlw	0
  7110   0030BA  6E09               	movwf	(I2C1_SetDataCompleteCallback@ptr+1)^0,c
  7111   0030BC  ECA7  F01A         	call	_I2C1_SetDataCompleteCallback	;wreg free
  7112   0030C0                     
  7113                           ;mcc_generated_files/examples/i2c1_master_example.c: 174:     return I2C1_RESTART_READ;
  7114   0030C0  0E02               	movlw	2
  7115   0030C2  0012               	return		;funcret
  7116   0030C4                     __end_of_rdBlkRegCompleteHandler@i2c1_master_example$F179:
  7117                           	callstack 0
  7118                           
  7119 ;; *************** function _wr1RegCompleteHandler@i2c1_master_example$F162 *****************
  7120 ;; Defined at:
  7121 ;;		line 156 in file "mcc_generated_files/examples/i2c1_master_example.c"
  7122 ;; Parameters:    Size  Location     Type
  7123 ;;  ptr             2    9[COMRAM] PTR void 
  7124 ;;		 -> I2C1_ReadDataBlock@bufferBlock(4), I2C1_Write2ByteRegister@data(2), I2C1_Write1ByteRegister@data(1), I2C1_Read2B
      +yteRegister@returnValue(2), 
  7125 ;;		 -> I2C1_Read1ByteRegister@returnValue(1), i2c_readDataBlock@d(4), i2c_write2ByteRegister@data(2), i2c_read2ByteRegi
      +ster@result(2), 
  7126 ;;		 -> i2c_read1ByteRegister@d2(1), i2c_write1ByteRegister@data(1), NULL(0), 
  7127 ;; Auto vars:     Size  Location     Type
  7128 ;;		None
  7129 ;; Return value:  Size  Location     Type
  7130 ;;                  1    wreg      enum E360
  7131 ;; Registers used:
  7132 ;;		wreg, fsr2l, fsr2h, status,2, status,0, prodl, prodh, cstack
  7133 ;; Tracked objects:
  7134 ;;		On entry : 0/0
  7135 ;;		On exit  : 0/0
  7136 ;;		Unchanged: 0/0
  7137 ;; Data sizes:     COMRAM   BANK0   BANK1   BANK2   BANK3   BANK4   BANK5   BANK6   BANK7   BANK8   BANK9  BANK10  BANK1
      +1  BANK12  BANK13  BANK14  BANK15
  7138 ;;      Params:         2       0       0       0       0       0       0       0       0       0       0       0       
      +0       0       0       0       0
  7139 ;;      Locals:         0       0       0       0       0       0       0       0       0       0       0       0       
      +0       0       0       0       0
  7140 ;;      Temps:          0       0       0       0       0       0       0       0       0       0       0       0       
      +0       0       0       0       0
  7141 ;;      Totals:         2       0       0       0       0       0       0       0       0       0       0       0       
      +0       0       0       0       0
  7142 ;;Total ram usage:        2 bytes
  7143 ;; Hardware stack levels used: 1
  7144 ;; Hardware stack levels required when called: 2
  7145 ;; This function calls:
  7146 ;;		_I2C1_SetBuffer
  7147 ;;		_I2C1_SetDataCompleteCallback
  7148 ;; This function is called by:
  7149 ;;		_I2C1_Write1ByteRegister
  7150 ;;		_I2C1_DO_RX_EMPTY
  7151 ;;		_I2C1_DO_TX_EMPTY
  7152 ;;		_I2C1_DO_TX
  7153 ;;		_I2C1_DO_ADDRESS_NACK
  7154 ;;		_I2C1_DO_BUS_COLLISION
  7155 ;; This function uses a non-reentrant model
  7156 ;;
  7157                           
  7158                           	psect	text50
  7159   0032A8                     __ptext50:
  7160                           	callstack 0
  7161   0032A8                     _wr1RegCompleteHandler@i2c1_master_example$F162:
  7162                           	callstack 22
  7163   0032A8                     
  7164                           ;mcc_generated_files/examples/i2c1_master_example.c: 156: static i2c1_operations_t wr1Re
      +                          gCompleteHandler(void *ptr);mcc_generated_files/examples/i2c1_master_example.c: 157: {;m
      +                          cc_generated_files/examples/i2c1_master_example.c: 158:     I2C1_SetBuffer(ptr,1);
  7165   0032A8  C00A  F001         	movff	wr1RegCompleteHandler@i2c1_master_example$F162@ptr,I2C1_SetBuffer@buffer
  7166   0032AC  C00B  F002         	movff	wr1RegCompleteHandler@i2c1_master_example$F162@ptr+1,I2C1_SetBuffer@buffer+1
  7167   0032B0  0E00               	movlw	0
  7168   0032B2  6E04               	movwf	(I2C1_SetBuffer@bufferSize+1)^0,c
  7169   0032B4  0E01               	movlw	1
  7170   0032B6  6E03               	movwf	I2C1_SetBuffer@bufferSize^0,c
  7171   0032B8  EC2E  F01A         	call	_I2C1_SetBuffer	;wreg free
  7172   0032BC                     
  7173                           ;mcc_generated_files/examples/i2c1_master_example.c: 159:     I2C1_SetDataCompleteCallba
      +                          ck(((void*)0),((void*)0));
  7174   0032BC  0E00               	movlw	0
  7175   0032BE  6E06               	movwf	I2C1_SetDataCompleteCallback@cb^0,c
  7176   0032C0  0E00               	movlw	0
  7177   0032C2  6E07               	movwf	(I2C1_SetDataCompleteCallback@cb+1)^0,c
  7178   0032C4  0E00               	movlw	0
  7179   0032C6  6E08               	movwf	I2C1_SetDataCompleteCallback@ptr^0,c
  7180   0032C8  0E00               	movlw	0
  7181   0032CA  6E09               	movwf	(I2C1_SetDataCompleteCallback@ptr+1)^0,c
  7182   0032CC  ECA7  F01A         	call	_I2C1_SetDataCompleteCallback	;wreg free
  7183   0032D0                     
  7184                           ;mcc_generated_files/examples/i2c1_master_example.c: 160:     return I2C1_CONTINUE;
  7185   0032D0  0E04               	movlw	4
  7186   0032D2  0012               	return		;funcret
  7187   0032D4                     __end_of_wr1RegCompleteHandler@i2c1_master_example$F162:
  7188                           	callstack 0
  7189                           
  7190 ;; *************** function _rd2RegCompleteHandler@i2c1_master_example$F156 *****************
  7191 ;; Defined at:
  7192 ;;		line 149 in file "mcc_generated_files/examples/i2c1_master_example.c"
  7193 ;; Parameters:    Size  Location     Type
  7194 ;;  ptr             2    9[COMRAM] PTR void 
  7195 ;;		 -> I2C1_ReadDataBlock@bufferBlock(4), I2C1_Write2ByteRegister@data(2), I2C1_Write1ByteRegister@data(1), I2C1_Read2B
      +yteRegister@returnValue(2), 
  7196 ;;		 -> I2C1_Read1ByteRegister@returnValue(1), i2c_readDataBlock@d(4), i2c_write2ByteRegister@data(2), i2c_read2ByteRegi
      +ster@result(2), 
  7197 ;;		 -> i2c_read1ByteRegister@d2(1), i2c_write1ByteRegister@data(1), NULL(0), 
  7198 ;; Auto vars:     Size  Location     Type
  7199 ;;		None
  7200 ;; Return value:  Size  Location     Type
  7201 ;;                  1    wreg      enum E360
  7202 ;; Registers used:
  7203 ;;		wreg, fsr2l, fsr2h, status,2, status,0, prodl, prodh, cstack
  7204 ;; Tracked objects:
  7205 ;;		On entry : 0/0
  7206 ;;		On exit  : 0/0
  7207 ;;		Unchanged: 0/0
  7208 ;; Data sizes:     COMRAM   BANK0   BANK1   BANK2   BANK3   BANK4   BANK5   BANK6   BANK7   BANK8   BANK9  BANK10  BANK1
      +1  BANK12  BANK13  BANK14  BANK15
  7209 ;;      Params:         2       0       0       0       0       0       0       0       0       0       0       0       
      +0       0       0       0       0
  7210 ;;      Locals:         0       0       0       0       0       0       0       0       0       0       0       0       
      +0       0       0       0       0
  7211 ;;      Temps:          0       0       0       0       0       0       0       0       0       0       0       0       
      +0       0       0       0       0
  7212 ;;      Totals:         2       0       0       0       0       0       0       0       0       0       0       0       
      +0       0       0       0       0
  7213 ;;Total ram usage:        2 bytes
  7214 ;; Hardware stack levels used: 1
  7215 ;; Hardware stack levels required when called: 2
  7216 ;; This function calls:
  7217 ;;		_I2C1_SetBuffer
  7218 ;;		_I2C1_SetDataCompleteCallback
  7219 ;; This function is called by:
  7220 ;;		_I2C1_Read2ByteRegister
  7221 ;;		_I2C1_DO_RX_EMPTY
  7222 ;;		_I2C1_DO_TX_EMPTY
  7223 ;;		_I2C1_DO_TX
  7224 ;;		_I2C1_DO_ADDRESS_NACK
  7225 ;;		_I2C1_DO_BUS_COLLISION
  7226 ;; This function uses a non-reentrant model
  7227 ;;
  7228                           
  7229                           	psect	text51
  7230   0032D4                     __ptext51:
  7231                           	callstack 0
  7232   0032D4                     _rd2RegCompleteHandler@i2c1_master_example$F156:
  7233                           	callstack 22
  7234   0032D4                     
  7235                           ;mcc_generated_files/examples/i2c1_master_example.c: 149: static i2c1_operations_t rd2Re
      +                          gCompleteHandler(void *ptr);mcc_generated_files/examples/i2c1_master_example.c: 150: {;m
      +                          cc_generated_files/examples/i2c1_master_example.c: 151:     I2C1_SetBuffer(ptr,2);
  7236   0032D4  C00A  F001         	movff	rd2RegCompleteHandler@i2c1_master_example$F156@ptr,I2C1_SetBuffer@buffer
  7237   0032D8  C00B  F002         	movff	rd2RegCompleteHandler@i2c1_master_example$F156@ptr+1,I2C1_SetBuffer@buffer+1
  7238   0032DC  0E00               	movlw	0
  7239   0032DE  6E04               	movwf	(I2C1_SetBuffer@bufferSize+1)^0,c
  7240   0032E0  0E02               	movlw	2
  7241   0032E2  6E03               	movwf	I2C1_SetBuffer@bufferSize^0,c
  7242   0032E4  EC2E  F01A         	call	_I2C1_SetBuffer	;wreg free
  7243   0032E8                     
  7244                           ;mcc_generated_files/examples/i2c1_master_example.c: 152:     I2C1_SetDataCompleteCallba
      +                          ck(((void*)0),((void*)0));
  7245   0032E8  0E00               	movlw	0
  7246   0032EA  6E06               	movwf	I2C1_SetDataCompleteCallback@cb^0,c
  7247   0032EC  0E00               	movlw	0
  7248   0032EE  6E07               	movwf	(I2C1_SetDataCompleteCallback@cb+1)^0,c
  7249   0032F0  0E00               	movlw	0
  7250   0032F2  6E08               	movwf	I2C1_SetDataCompleteCallback@ptr^0,c
  7251   0032F4  0E00               	movlw	0
  7252   0032F6  6E09               	movwf	(I2C1_SetDataCompleteCallback@ptr+1)^0,c
  7253   0032F8  ECA7  F01A         	call	_I2C1_SetDataCompleteCallback	;wreg free
  7254   0032FC                     
  7255                           ;mcc_generated_files/examples/i2c1_master_example.c: 153:     return I2C1_RESTART_READ;
  7256   0032FC  0E02               	movlw	2
  7257   0032FE  0012               	return		;funcret
  7258   003300                     __end_of_rd2RegCompleteHandler@i2c1_master_example$F156:
  7259                           	callstack 0
  7260                           
  7261 ;; *************** function _rd1RegCompleteHandler@i2c1_master_example$F145 *****************
  7262 ;; Defined at:
  7263 ;;		line 142 in file "mcc_generated_files/examples/i2c1_master_example.c"
  7264 ;; Parameters:    Size  Location     Type
  7265 ;;  ptr             2    9[COMRAM] PTR void 
  7266 ;;		 -> I2C1_ReadDataBlock@bufferBlock(4), I2C1_Write2ByteRegister@data(2), I2C1_Write1ByteRegister@data(1), I2C1_Read2B
      +yteRegister@returnValue(2), 
  7267 ;;		 -> I2C1_Read1ByteRegister@returnValue(1), i2c_readDataBlock@d(4), i2c_write2ByteRegister@data(2), i2c_read2ByteRegi
      +ster@result(2), 
  7268 ;;		 -> i2c_read1ByteRegister@d2(1), i2c_write1ByteRegister@data(1), NULL(0), 
  7269 ;; Auto vars:     Size  Location     Type
  7270 ;;		None
  7271 ;; Return value:  Size  Location     Type
  7272 ;;                  1    wreg      enum E360
  7273 ;; Registers used:
  7274 ;;		wreg, fsr2l, fsr2h, status,2, status,0, prodl, prodh, cstack
  7275 ;; Tracked objects:
  7276 ;;		On entry : 0/0
  7277 ;;		On exit  : 0/0
  7278 ;;		Unchanged: 0/0
  7279 ;; Data sizes:     COMRAM   BANK0   BANK1   BANK2   BANK3   BANK4   BANK5   BANK6   BANK7   BANK8   BANK9  BANK10  BANK1
      +1  BANK12  BANK13  BANK14  BANK15
  7280 ;;      Params:         2       0       0       0       0       0       0       0       0       0       0       0       
      +0       0       0       0       0
  7281 ;;      Locals:         0       0       0       0       0       0       0       0       0       0       0       0       
      +0       0       0       0       0
  7282 ;;      Temps:          0       0       0       0       0       0       0       0       0       0       0       0       
      +0       0       0       0       0
  7283 ;;      Totals:         2       0       0       0       0       0       0       0       0       0       0       0       
      +0       0       0       0       0
  7284 ;;Total ram usage:        2 bytes
  7285 ;; Hardware stack levels used: 1
  7286 ;; Hardware stack levels required when called: 2
  7287 ;; This function calls:
  7288 ;;		_I2C1_SetBuffer
  7289 ;;		_I2C1_SetDataCompleteCallback
  7290 ;; This function is called by:
  7291 ;;		_I2C1_Read1ByteRegister
  7292 ;;		_I2C1_DO_RX_EMPTY
  7293 ;;		_I2C1_DO_TX_EMPTY
  7294 ;;		_I2C1_DO_TX
  7295 ;;		_I2C1_DO_ADDRESS_NACK
  7296 ;;		_I2C1_DO_BUS_COLLISION
  7297 ;; This function uses a non-reentrant model
  7298 ;;
  7299                           
  7300                           	psect	text52
  7301   003300                     __ptext52:
  7302                           	callstack 0
  7303   003300                     _rd1RegCompleteHandler@i2c1_master_example$F145:
  7304                           	callstack 22
  7305   003300                     
  7306                           ;mcc_generated_files/examples/i2c1_master_example.c: 142: static i2c1_operations_t rd1Re
      +                          gCompleteHandler(void *ptr);mcc_generated_files/examples/i2c1_master_example.c: 143: {;m
      +                          cc_generated_files/examples/i2c1_master_example.c: 144:     I2C1_SetBuffer(ptr,1);
  7307   003300  C00A  F001         	movff	rd1RegCompleteHandler@i2c1_master_example$F145@ptr,I2C1_SetBuffer@buffer
  7308   003304  C00B  F002         	movff	rd1RegCompleteHandler@i2c1_master_example$F145@ptr+1,I2C1_SetBuffer@buffer+1
  7309   003308  0E00               	movlw	0
  7310   00330A  6E04               	movwf	(I2C1_SetBuffer@bufferSize+1)^0,c
  7311   00330C  0E01               	movlw	1
  7312   00330E  6E03               	movwf	I2C1_SetBuffer@bufferSize^0,c
  7313   003310  EC2E  F01A         	call	_I2C1_SetBuffer	;wreg free
  7314   003314                     
  7315                           ;mcc_generated_files/examples/i2c1_master_example.c: 145:     I2C1_SetDataCompleteCallba
      +                          ck(((void*)0),((void*)0));
  7316   003314  0E00               	movlw	0
  7317   003316  6E06               	movwf	I2C1_SetDataCompleteCallback@cb^0,c
  7318   003318  0E00               	movlw	0
  7319   00331A  6E07               	movwf	(I2C1_SetDataCompleteCallback@cb+1)^0,c
  7320   00331C  0E00               	movlw	0
  7321   00331E  6E08               	movwf	I2C1_SetDataCompleteCallback@ptr^0,c
  7322   003320  0E00               	movlw	0
  7323   003322  6E09               	movwf	(I2C1_SetDataCompleteCallback@ptr+1)^0,c
  7324   003324  ECA7  F01A         	call	_I2C1_SetDataCompleteCallback	;wreg free
  7325   003328                     
  7326                           ;mcc_generated_files/examples/i2c1_master_example.c: 146:     return I2C1_RESTART_READ;
  7327   003328  0E02               	movlw	2
  7328   00332A  0012               	return		;funcret
  7329   00332C                     __end_of_rd1RegCompleteHandler@i2c1_master_example$F145:
  7330                           	callstack 0
  7331                           
  7332 ;; *************** function _rdBlkRegCompleteHandler *****************
  7333 ;; Defined at:
  7334 ;;		line 185 in file "mcc_generated_files/drivers/i2c_simple_master.c"
  7335 ;; Parameters:    Size  Location     Type
  7336 ;;  p               2    9[COMRAM] PTR void 
  7337 ;;		 -> I2C1_ReadDataBlock@bufferBlock(4), I2C1_Write2ByteRegister@data(2), I2C1_Write1ByteRegister@data(1), I2C1_Read2B
      +yteRegister@returnValue(2), 
  7338 ;;		 -> I2C1_Read1ByteRegister@returnValue(1), i2c_readDataBlock@d(4), i2c_write2ByteRegister@data(2), i2c_read2ByteRegi
      +ster@result(2), 
  7339 ;;		 -> i2c_read1ByteRegister@d2(1), i2c_write1ByteRegister@data(1), NULL(0), 
  7340 ;; Auto vars:     Size  Location     Type
  7341 ;;		None
  7342 ;; Return value:  Size  Location     Type
  7343 ;;                  1    wreg      enum E360
  7344 ;; Registers used:
  7345 ;;		wreg, fsr2l, fsr2h, status,2, status,0, prodl, prodh, cstack
  7346 ;; Tracked objects:
  7347 ;;		On entry : 0/0
  7348 ;;		On exit  : 0/0
  7349 ;;		Unchanged: 0/0
  7350 ;; Data sizes:     COMRAM   BANK0   BANK1   BANK2   BANK3   BANK4   BANK5   BANK6   BANK7   BANK8   BANK9  BANK10  BANK1
      +1  BANK12  BANK13  BANK14  BANK15
  7351 ;;      Params:         2       0       0       0       0       0       0       0       0       0       0       0       
      +0       0       0       0       0
  7352 ;;      Locals:         0       0       0       0       0       0       0       0       0       0       0       0       
      +0       0       0       0       0
  7353 ;;      Temps:          0       0       0       0       0       0       0       0       0       0       0       0       
      +0       0       0       0       0
  7354 ;;      Totals:         2       0       0       0       0       0       0       0       0       0       0       0       
      +0       0       0       0       0
  7355 ;;Total ram usage:        2 bytes
  7356 ;; Hardware stack levels used: 1
  7357 ;; Hardware stack levels required when called: 2
  7358 ;; This function calls:
  7359 ;;		_I2C1_SetBuffer
  7360 ;;		_I2C1_SetDataCompleteCallback
  7361 ;; This function is called by:
  7362 ;;		_i2c_readDataBlock
  7363 ;;		_I2C1_DO_RX_EMPTY
  7364 ;;		_I2C1_DO_TX_EMPTY
  7365 ;;		_I2C1_DO_TX
  7366 ;;		_I2C1_DO_ADDRESS_NACK
  7367 ;;		_I2C1_DO_BUS_COLLISION
  7368 ;; This function uses a non-reentrant model
  7369 ;;
  7370                           
  7371                           	psect	text53
  7372   0030C4                     __ptext53:
  7373                           	callstack 0
  7374   0030C4                     _rdBlkRegCompleteHandler:
  7375                           	callstack 22
  7376   0030C4                     
  7377                           ;mcc_generated_files/drivers/i2c_simple_master.c: 185: static i2c1_operations_t rdBlkReg
      +                          CompleteHandler(void *p);mcc_generated_files/drivers/i2c_simple_master.c: 186: {;mcc_gen
      +                          erated_files/drivers/i2c_simple_master.c: 187:     I2C1_SetBuffer(((buf_t *)p)->data,((b
      +                          uf_t*)p)->len);
  7378   0030C4  EE20 F002          	lfsr	2,2
  7379   0030C8  500A               	movf	rdBlkRegCompleteHandler@p^0,w,c
  7380   0030CA  26D9               	addwf	fsr2l,f,c
  7381   0030CC  500B               	movf	(rdBlkRegCompleteHandler@p+1)^0,w,c
  7382   0030CE  22DA               	addwfc	fsr2h,f,c
  7383   0030D0  006F FF78  F001    	movff	postinc2,I2C1_SetBuffer@buffer
  7384   0030D6  006F FF74  F002    	movff	postdec2,I2C1_SetBuffer@buffer+1
  7385   0030DC  0060  F02B  FFD9   	movff	rdBlkRegCompleteHandler@p,fsr2l
  7386   0030E2  0060  F02F  FFDA   	movff	rdBlkRegCompleteHandler@p+1,fsr2h
  7387   0030E8  006F FF78  F003    	movff	postinc2,I2C1_SetBuffer@bufferSize
  7388   0030EE  006F FF74  F004    	movff	postdec2,I2C1_SetBuffer@bufferSize+1
  7389   0030F4  EC2E  F01A         	call	_I2C1_SetBuffer	;wreg free
  7390   0030F8                     
  7391                           ;mcc_generated_files/drivers/i2c_simple_master.c: 188:     I2C1_SetDataCompleteCallback(
      +                          ((void*)0),((void*)0));
  7392   0030F8  0E00               	movlw	0
  7393   0030FA  6E06               	movwf	I2C1_SetDataCompleteCallback@cb^0,c
  7394   0030FC  0E00               	movlw	0
  7395   0030FE  6E07               	movwf	(I2C1_SetDataCompleteCallback@cb+1)^0,c
  7396   003100  0E00               	movlw	0
  7397   003102  6E08               	movwf	I2C1_SetDataCompleteCallback@ptr^0,c
  7398   003104  0E00               	movlw	0
  7399   003106  6E09               	movwf	(I2C1_SetDataCompleteCallback@ptr+1)^0,c
  7400   003108  ECA7  F01A         	call	_I2C1_SetDataCompleteCallback	;wreg free
  7401   00310C                     
  7402                           ;mcc_generated_files/drivers/i2c_simple_master.c: 189:     return I2C1_RESTART_READ;
  7403   00310C  0E02               	movlw	2
  7404   00310E  0012               	return		;funcret
  7405   003110                     __end_of_rdBlkRegCompleteHandler:
  7406                           	callstack 0
  7407                           
  7408 ;; *************** function _wr2RegCompleteHandler *****************
  7409 ;; Defined at:
  7410 ;;		line 151 in file "mcc_generated_files/drivers/i2c_simple_master.c"
  7411 ;; Parameters:    Size  Location     Type
  7412 ;;  p               2    9[COMRAM] PTR void 
  7413 ;;		 -> I2C1_ReadDataBlock@bufferBlock(4), I2C1_Write2ByteRegister@data(2), I2C1_Write1ByteRegister@data(1), I2C1_Read2B
      +yteRegister@returnValue(2), 
  7414 ;;		 -> I2C1_Read1ByteRegister@returnValue(1), i2c_readDataBlock@d(4), i2c_write2ByteRegister@data(2), i2c_read2ByteRegi
      +ster@result(2), 
  7415 ;;		 -> i2c_read1ByteRegister@d2(1), i2c_write1ByteRegister@data(1), NULL(0), 
  7416 ;; Auto vars:     Size  Location     Type
  7417 ;;		None
  7418 ;; Return value:  Size  Location     Type
  7419 ;;                  1    wreg      enum E360
  7420 ;; Registers used:
  7421 ;;		wreg, fsr2l, fsr2h, status,2, status,0, prodl, prodh, cstack
  7422 ;; Tracked objects:
  7423 ;;		On entry : 0/0
  7424 ;;		On exit  : 0/0
  7425 ;;		Unchanged: 0/0
  7426 ;; Data sizes:     COMRAM   BANK0   BANK1   BANK2   BANK3   BANK4   BANK5   BANK6   BANK7   BANK8   BANK9  BANK10  BANK1
      +1  BANK12  BANK13  BANK14  BANK15
  7427 ;;      Params:         2       0       0       0       0       0       0       0       0       0       0       0       
      +0       0       0       0       0
  7428 ;;      Locals:         0       0       0       0       0       0       0       0       0       0       0       0       
      +0       0       0       0       0
  7429 ;;      Temps:          0       0       0       0       0       0       0       0       0       0       0       0       
      +0       0       0       0       0
  7430 ;;      Totals:         2       0       0       0       0       0       0       0       0       0       0       0       
      +0       0       0       0       0
  7431 ;;Total ram usage:        2 bytes
  7432 ;; Hardware stack levels used: 1
  7433 ;; Hardware stack levels required when called: 2
  7434 ;; This function calls:
  7435 ;;		_I2C1_SetBuffer
  7436 ;;		_I2C1_SetDataCompleteCallback
  7437 ;; This function is called by:
  7438 ;;		_i2c_write2ByteRegister
  7439 ;;		_I2C1_DO_RX_EMPTY
  7440 ;;		_I2C1_DO_TX_EMPTY
  7441 ;;		_I2C1_DO_TX
  7442 ;;		_I2C1_DO_ADDRESS_NACK
  7443 ;;		_I2C1_DO_BUS_COLLISION
  7444 ;; This function uses a non-reentrant model
  7445 ;;
  7446                           
  7447                           	psect	text54
  7448   00332C                     __ptext54:
  7449                           	callstack 0
  7450   00332C                     _wr2RegCompleteHandler:
  7451                           	callstack 22
  7452   00332C                     
  7453                           ;mcc_generated_files/drivers/i2c_simple_master.c: 151: static i2c1_operations_t wr2RegCo
      +                          mpleteHandler(void *p);mcc_generated_files/drivers/i2c_simple_master.c: 152: {;mcc_gener
      +                          ated_files/drivers/i2c_simple_master.c: 153:     I2C1_SetBuffer(p,2);
  7454   00332C  C00A  F001         	movff	wr2RegCompleteHandler@p,I2C1_SetBuffer@buffer
  7455   003330  C00B  F002         	movff	wr2RegCompleteHandler@p+1,I2C1_SetBuffer@buffer+1
  7456   003334  0E00               	movlw	0
  7457   003336  6E04               	movwf	(I2C1_SetBuffer@bufferSize+1)^0,c
  7458   003338  0E02               	movlw	2
  7459   00333A  6E03               	movwf	I2C1_SetBuffer@bufferSize^0,c
  7460   00333C  EC2E  F01A         	call	_I2C1_SetBuffer	;wreg free
  7461   003340                     
  7462                           ;mcc_generated_files/drivers/i2c_simple_master.c: 154:     I2C1_SetDataCompleteCallback(
      +                          ((void*)0),((void*)0));
  7463   003340  0E00               	movlw	0
  7464   003342  6E06               	movwf	I2C1_SetDataCompleteCallback@cb^0,c
  7465   003344  0E00               	movlw	0
  7466   003346  6E07               	movwf	(I2C1_SetDataCompleteCallback@cb+1)^0,c
  7467   003348  0E00               	movlw	0
  7468   00334A  6E08               	movwf	I2C1_SetDataCompleteCallback@ptr^0,c
  7469   00334C  0E00               	movlw	0
  7470   00334E  6E09               	movwf	(I2C1_SetDataCompleteCallback@ptr+1)^0,c
  7471   003350  ECA7  F01A         	call	_I2C1_SetDataCompleteCallback	;wreg free
  7472   003354                     
  7473                           ;mcc_generated_files/drivers/i2c_simple_master.c: 155:     return I2C1_CONTINUE;
  7474   003354  0E04               	movlw	4
  7475   003356  0012               	return		;funcret
  7476   003358                     __end_of_wr2RegCompleteHandler:
  7477                           	callstack 0
  7478                           
  7479 ;; *************** function _rd2RegCompleteHandler *****************
  7480 ;; Defined at:
  7481 ;;		line 119 in file "mcc_generated_files/drivers/i2c_simple_master.c"
  7482 ;; Parameters:    Size  Location     Type
  7483 ;;  p               2    9[COMRAM] PTR void 
  7484 ;;		 -> I2C1_ReadDataBlock@bufferBlock(4), I2C1_Write2ByteRegister@data(2), I2C1_Write1ByteRegister@data(1), I2C1_Read2B
      +yteRegister@returnValue(2), 
  7485 ;;		 -> I2C1_Read1ByteRegister@returnValue(1), i2c_readDataBlock@d(4), i2c_write2ByteRegister@data(2), i2c_read2ByteRegi
      +ster@result(2), 
  7486 ;;		 -> i2c_read1ByteRegister@d2(1), i2c_write1ByteRegister@data(1), NULL(0), 
  7487 ;; Auto vars:     Size  Location     Type
  7488 ;;		None
  7489 ;; Return value:  Size  Location     Type
  7490 ;;                  1    wreg      enum E360
  7491 ;; Registers used:
  7492 ;;		wreg, fsr2l, fsr2h, status,2, status,0, prodl, prodh, cstack
  7493 ;; Tracked objects:
  7494 ;;		On entry : 0/0
  7495 ;;		On exit  : 0/0
  7496 ;;		Unchanged: 0/0
  7497 ;; Data sizes:     COMRAM   BANK0   BANK1   BANK2   BANK3   BANK4   BANK5   BANK6   BANK7   BANK8   BANK9  BANK10  BANK1
      +1  BANK12  BANK13  BANK14  BANK15
  7498 ;;      Params:         2       0       0       0       0       0       0       0       0       0       0       0       
      +0       0       0       0       0
  7499 ;;      Locals:         0       0       0       0       0       0       0       0       0       0       0       0       
      +0       0       0       0       0
  7500 ;;      Temps:          0       0       0       0       0       0       0       0       0       0       0       0       
      +0       0       0       0       0
  7501 ;;      Totals:         2       0       0       0       0       0       0       0       0       0       0       0       
      +0       0       0       0       0
  7502 ;;Total ram usage:        2 bytes
  7503 ;; Hardware stack levels used: 1
  7504 ;; Hardware stack levels required when called: 2
  7505 ;; This function calls:
  7506 ;;		_I2C1_SetBuffer
  7507 ;;		_I2C1_SetDataCompleteCallback
  7508 ;; This function is called by:
  7509 ;;		_i2c_read2ByteRegister
  7510 ;;		_I2C1_DO_RX_EMPTY
  7511 ;;		_I2C1_DO_TX_EMPTY
  7512 ;;		_I2C1_DO_TX
  7513 ;;		_I2C1_DO_ADDRESS_NACK
  7514 ;;		_I2C1_DO_BUS_COLLISION
  7515 ;; This function uses a non-reentrant model
  7516 ;;
  7517                           
  7518                           	psect	text55
  7519   003358                     __ptext55:
  7520                           	callstack 0
  7521   003358                     _rd2RegCompleteHandler:
  7522                           	callstack 22
  7523   003358                     
  7524                           ;mcc_generated_files/drivers/i2c_simple_master.c: 119: static i2c1_operations_t rd2RegCo
      +                          mpleteHandler(void *p);mcc_generated_files/drivers/i2c_simple_master.c: 120: {;mcc_gener
      +                          ated_files/drivers/i2c_simple_master.c: 121:     I2C1_SetBuffer(p,2);
  7525   003358  C00A  F001         	movff	rd2RegCompleteHandler@p,I2C1_SetBuffer@buffer
  7526   00335C  C00B  F002         	movff	rd2RegCompleteHandler@p+1,I2C1_SetBuffer@buffer+1
  7527   003360  0E00               	movlw	0
  7528   003362  6E04               	movwf	(I2C1_SetBuffer@bufferSize+1)^0,c
  7529   003364  0E02               	movlw	2
  7530   003366  6E03               	movwf	I2C1_SetBuffer@bufferSize^0,c
  7531   003368  EC2E  F01A         	call	_I2C1_SetBuffer	;wreg free
  7532   00336C                     
  7533                           ;mcc_generated_files/drivers/i2c_simple_master.c: 122:     I2C1_SetDataCompleteCallback(
      +                          ((void*)0),((void*)0));
  7534   00336C  0E00               	movlw	0
  7535   00336E  6E06               	movwf	I2C1_SetDataCompleteCallback@cb^0,c
  7536   003370  0E00               	movlw	0
  7537   003372  6E07               	movwf	(I2C1_SetDataCompleteCallback@cb+1)^0,c
  7538   003374  0E00               	movlw	0
  7539   003376  6E08               	movwf	I2C1_SetDataCompleteCallback@ptr^0,c
  7540   003378  0E00               	movlw	0
  7541   00337A  6E09               	movwf	(I2C1_SetDataCompleteCallback@ptr+1)^0,c
  7542   00337C  ECA7  F01A         	call	_I2C1_SetDataCompleteCallback	;wreg free
  7543   003380                     
  7544                           ;mcc_generated_files/drivers/i2c_simple_master.c: 123:     return I2C1_RESTART_READ;
  7545   003380  0E02               	movlw	2
  7546   003382  0012               	return		;funcret
  7547   003384                     __end_of_rd2RegCompleteHandler:
  7548                           	callstack 0
  7549                           
  7550 ;; *************** function _rd1RegCompleteHandler *****************
  7551 ;; Defined at:
  7552 ;;		line 81 in file "mcc_generated_files/drivers/i2c_simple_master.c"
  7553 ;; Parameters:    Size  Location     Type
  7554 ;;  p               2    9[COMRAM] PTR void 
  7555 ;;		 -> I2C1_ReadDataBlock@bufferBlock(4), I2C1_Write2ByteRegister@data(2), I2C1_Write1ByteRegister@data(1), I2C1_Read2B
      +yteRegister@returnValue(2), 
  7556 ;;		 -> I2C1_Read1ByteRegister@returnValue(1), i2c_readDataBlock@d(4), i2c_write2ByteRegister@data(2), i2c_read2ByteRegi
      +ster@result(2), 
  7557 ;;		 -> i2c_read1ByteRegister@d2(1), i2c_write1ByteRegister@data(1), NULL(0), 
  7558 ;; Auto vars:     Size  Location     Type
  7559 ;;		None
  7560 ;; Return value:  Size  Location     Type
  7561 ;;                  1    wreg      enum E360
  7562 ;; Registers used:
  7563 ;;		wreg, fsr2l, fsr2h, status,2, status,0, prodl, prodh, cstack
  7564 ;; Tracked objects:
  7565 ;;		On entry : 0/0
  7566 ;;		On exit  : 0/0
  7567 ;;		Unchanged: 0/0
  7568 ;; Data sizes:     COMRAM   BANK0   BANK1   BANK2   BANK3   BANK4   BANK5   BANK6   BANK7   BANK8   BANK9  BANK10  BANK1
      +1  BANK12  BANK13  BANK14  BANK15
  7569 ;;      Params:         2       0       0       0       0       0       0       0       0       0       0       0       
      +0       0       0       0       0
  7570 ;;      Locals:         0       0       0       0       0       0       0       0       0       0       0       0       
      +0       0       0       0       0
  7571 ;;      Temps:          0       0       0       0       0       0       0       0       0       0       0       0       
      +0       0       0       0       0
  7572 ;;      Totals:         2       0       0       0       0       0       0       0       0       0       0       0       
      +0       0       0       0       0
  7573 ;;Total ram usage:        2 bytes
  7574 ;; Hardware stack levels used: 1
  7575 ;; Hardware stack levels required when called: 2
  7576 ;; This function calls:
  7577 ;;		_I2C1_SetBuffer
  7578 ;;		_I2C1_SetDataCompleteCallback
  7579 ;; This function is called by:
  7580 ;;		_i2c_read1ByteRegister
  7581 ;;		_I2C1_DO_RX_EMPTY
  7582 ;;		_I2C1_DO_TX_EMPTY
  7583 ;;		_I2C1_DO_TX
  7584 ;;		_I2C1_DO_ADDRESS_NACK
  7585 ;;		_I2C1_DO_BUS_COLLISION
  7586 ;; This function uses a non-reentrant model
  7587 ;;
  7588                           
  7589                           	psect	text56
  7590   003384                     __ptext56:
  7591                           	callstack 0
  7592   003384                     _rd1RegCompleteHandler:
  7593                           	callstack 22
  7594   003384                     
  7595                           ;mcc_generated_files/drivers/i2c_simple_master.c: 81: static i2c1_operations_t rd1RegCom
      +                          pleteHandler(void *p);mcc_generated_files/drivers/i2c_simple_master.c: 82: {;mcc_generat
      +                          ed_files/drivers/i2c_simple_master.c: 83:     I2C1_SetBuffer(p,1);
  7596   003384  C00A  F001         	movff	rd1RegCompleteHandler@p,I2C1_SetBuffer@buffer
  7597   003388  C00B  F002         	movff	rd1RegCompleteHandler@p+1,I2C1_SetBuffer@buffer+1
  7598   00338C  0E00               	movlw	0
  7599   00338E  6E04               	movwf	(I2C1_SetBuffer@bufferSize+1)^0,c
  7600   003390  0E01               	movlw	1
  7601   003392  6E03               	movwf	I2C1_SetBuffer@bufferSize^0,c
  7602   003394  EC2E  F01A         	call	_I2C1_SetBuffer	;wreg free
  7603   003398                     
  7604                           ;mcc_generated_files/drivers/i2c_simple_master.c: 84:     I2C1_SetDataCompleteCallback((
      +                          (void*)0),((void*)0));
  7605   003398  0E00               	movlw	0
  7606   00339A  6E06               	movwf	I2C1_SetDataCompleteCallback@cb^0,c
  7607   00339C  0E00               	movlw	0
  7608   00339E  6E07               	movwf	(I2C1_SetDataCompleteCallback@cb+1)^0,c
  7609   0033A0  0E00               	movlw	0
  7610   0033A2  6E08               	movwf	I2C1_SetDataCompleteCallback@ptr^0,c
  7611   0033A4  0E00               	movlw	0
  7612   0033A6  6E09               	movwf	(I2C1_SetDataCompleteCallback@ptr+1)^0,c
  7613   0033A8  ECA7  F01A         	call	_I2C1_SetDataCompleteCallback	;wreg free
  7614   0033AC                     
  7615                           ;mcc_generated_files/drivers/i2c_simple_master.c: 85:     return I2C1_RESTART_READ;
  7616   0033AC  0E02               	movlw	2
  7617   0033AE  0012               	return		;funcret
  7618   0033B0                     __end_of_rd1RegCompleteHandler:
  7619                           	callstack 0
  7620                           
  7621 ;; *************** function _wr1RegCompleteHandler *****************
  7622 ;; Defined at:
  7623 ;;		line 34 in file "mcc_generated_files/drivers/i2c_simple_master.c"
  7624 ;; Parameters:    Size  Location     Type
  7625 ;;  p               2    9[COMRAM] PTR void 
  7626 ;;		 -> I2C1_ReadDataBlock@bufferBlock(4), I2C1_Write2ByteRegister@data(2), I2C1_Write1ByteRegister@data(1), I2C1_Read2B
      +yteRegister@returnValue(2), 
  7627 ;;		 -> I2C1_Read1ByteRegister@returnValue(1), i2c_readDataBlock@d(4), i2c_write2ByteRegister@data(2), i2c_read2ByteRegi
      +ster@result(2), 
  7628 ;;		 -> i2c_read1ByteRegister@d2(1), i2c_write1ByteRegister@data(1), NULL(0), 
  7629 ;; Auto vars:     Size  Location     Type
  7630 ;;		None
  7631 ;; Return value:  Size  Location     Type
  7632 ;;                  1    wreg      enum E360
  7633 ;; Registers used:
  7634 ;;		wreg, fsr2l, fsr2h, status,2, status,0, prodl, prodh, cstack
  7635 ;; Tracked objects:
  7636 ;;		On entry : 0/0
  7637 ;;		On exit  : 0/0
  7638 ;;		Unchanged: 0/0
  7639 ;; Data sizes:     COMRAM   BANK0   BANK1   BANK2   BANK3   BANK4   BANK5   BANK6   BANK7   BANK8   BANK9  BANK10  BANK1
      +1  BANK12  BANK13  BANK14  BANK15
  7640 ;;      Params:         2       0       0       0       0       0       0       0       0       0       0       0       
      +0       0       0       0       0
  7641 ;;      Locals:         0       0       0       0       0       0       0       0       0       0       0       0       
      +0       0       0       0       0
  7642 ;;      Temps:          0       0       0       0       0       0       0       0       0       0       0       0       
      +0       0       0       0       0
  7643 ;;      Totals:         2       0       0       0       0       0       0       0       0       0       0       0       
      +0       0       0       0       0
  7644 ;;Total ram usage:        2 bytes
  7645 ;; Hardware stack levels used: 1
  7646 ;; Hardware stack levels required when called: 2
  7647 ;; This function calls:
  7648 ;;		_I2C1_SetBuffer
  7649 ;;		_I2C1_SetDataCompleteCallback
  7650 ;; This function is called by:
  7651 ;;		_i2c_write1ByteRegister
  7652 ;;		_I2C1_DO_RX_EMPTY
  7653 ;;		_I2C1_DO_TX_EMPTY
  7654 ;;		_I2C1_DO_TX
  7655 ;;		_I2C1_DO_ADDRESS_NACK
  7656 ;;		_I2C1_DO_BUS_COLLISION
  7657 ;; This function uses a non-reentrant model
  7658 ;;
  7659                           
  7660                           	psect	text57
  7661   0033B0                     __ptext57:
  7662                           	callstack 0
  7663   0033B0                     _wr1RegCompleteHandler:
  7664                           	callstack 22
  7665   0033B0                     
  7666                           ;mcc_generated_files/drivers/i2c_simple_master.c: 34: static i2c1_operations_t wr1RegCom
      +                          pleteHandler(void *p);mcc_generated_files/drivers/i2c_simple_master.c: 35: {;mcc_generat
      +                          ed_files/drivers/i2c_simple_master.c: 36:     I2C1_SetBuffer(p,1);
  7667   0033B0  C00A  F001         	movff	wr1RegCompleteHandler@p,I2C1_SetBuffer@buffer
  7668   0033B4  C00B  F002         	movff	wr1RegCompleteHandler@p+1,I2C1_SetBuffer@buffer+1
  7669   0033B8  0E00               	movlw	0
  7670   0033BA  6E04               	movwf	(I2C1_SetBuffer@bufferSize+1)^0,c
  7671   0033BC  0E01               	movlw	1
  7672   0033BE  6E03               	movwf	I2C1_SetBuffer@bufferSize^0,c
  7673   0033C0  EC2E  F01A         	call	_I2C1_SetBuffer	;wreg free
  7674   0033C4                     
  7675                           ;mcc_generated_files/drivers/i2c_simple_master.c: 37:     I2C1_SetDataCompleteCallback((
      +                          (void*)0),((void*)0));
  7676   0033C4  0E00               	movlw	0
  7677   0033C6  6E06               	movwf	I2C1_SetDataCompleteCallback@cb^0,c
  7678   0033C8  0E00               	movlw	0
  7679   0033CA  6E07               	movwf	(I2C1_SetDataCompleteCallback@cb+1)^0,c
  7680   0033CC  0E00               	movlw	0
  7681   0033CE  6E08               	movwf	I2C1_SetDataCompleteCallback@ptr^0,c
  7682   0033D0  0E00               	movlw	0
  7683   0033D2  6E09               	movwf	(I2C1_SetDataCompleteCallback@ptr+1)^0,c
  7684   0033D4  ECA7  F01A         	call	_I2C1_SetDataCompleteCallback	;wreg free
  7685   0033D8                     
  7686                           ;mcc_generated_files/drivers/i2c_simple_master.c: 38:     return I2C1_CONTINUE;
  7687   0033D8  0E04               	movlw	4
  7688   0033DA  0012               	return		;funcret
  7689   0033DC                     __end_of_wr1RegCompleteHandler:
  7690                           	callstack 0
  7691                           
  7692 ;; *************** function _wr2RegCompleteHandler@i2c1_master_example$F168 *****************
  7693 ;; Defined at:
  7694 ;;		line 163 in file "mcc_generated_files/examples/i2c1_master_example.c"
  7695 ;; Parameters:    Size  Location     Type
  7696 ;;  ptr             2    9[COMRAM] PTR void 
  7697 ;;		 -> I2C1_ReadDataBlock@bufferBlock(4), I2C1_Write2ByteRegister@data(2), I2C1_Write1ByteRegister@data(1), I2C1_Read2B
      +yteRegister@returnValue(2), 
  7698 ;;		 -> I2C1_Read1ByteRegister@returnValue(1), i2c_readDataBlock@d(4), i2c_write2ByteRegister@data(2), i2c_read2ByteRegi
      +ster@result(2), 
  7699 ;;		 -> i2c_read1ByteRegister@d2(1), i2c_write1ByteRegister@data(1), NULL(0), 
  7700 ;; Auto vars:     Size  Location     Type
  7701 ;;		None
  7702 ;; Return value:  Size  Location     Type
  7703 ;;                  1    wreg      enum E360
  7704 ;; Registers used:
  7705 ;;		wreg, fsr2l, fsr2h, status,2, status,0, prodl, prodh, cstack
  7706 ;; Tracked objects:
  7707 ;;		On entry : 0/0
  7708 ;;		On exit  : 0/0
  7709 ;;		Unchanged: 0/0
  7710 ;; Data sizes:     COMRAM   BANK0   BANK1   BANK2   BANK3   BANK4   BANK5   BANK6   BANK7   BANK8   BANK9  BANK10  BANK1
      +1  BANK12  BANK13  BANK14  BANK15
  7711 ;;      Params:         2       0       0       0       0       0       0       0       0       0       0       0       
      +0       0       0       0       0
  7712 ;;      Locals:         0       0       0       0       0       0       0       0       0       0       0       0       
      +0       0       0       0       0
  7713 ;;      Temps:          0       0       0       0       0       0       0       0       0       0       0       0       
      +0       0       0       0       0
  7714 ;;      Totals:         2       0       0       0       0       0       0       0       0       0       0       0       
      +0       0       0       0       0
  7715 ;;Total ram usage:        2 bytes
  7716 ;; Hardware stack levels used: 1
  7717 ;; Hardware stack levels required when called: 2
  7718 ;; This function calls:
  7719 ;;		_I2C1_SetBuffer
  7720 ;;		_I2C1_SetDataCompleteCallback
  7721 ;; This function is called by:
  7722 ;;		_I2C1_Write2ByteRegister
  7723 ;;		_I2C1_DO_RX_EMPTY
  7724 ;;		_I2C1_DO_TX_EMPTY
  7725 ;;		_I2C1_DO_TX
  7726 ;;		_I2C1_DO_ADDRESS_NACK
  7727 ;;		_I2C1_DO_BUS_COLLISION
  7728 ;; This function uses a non-reentrant model
  7729 ;;
  7730                           
  7731                           	psect	text58
  7732   0033DC                     __ptext58:
  7733                           	callstack 0
  7734   0033DC                     _wr2RegCompleteHandler@i2c1_master_example$F168:
  7735                           	callstack 22
  7736   0033DC                     
  7737                           ;mcc_generated_files/examples/i2c1_master_example.c: 163: static i2c1_operations_t wr2Re
      +                          gCompleteHandler(void *ptr);mcc_generated_files/examples/i2c1_master_example.c: 164: {;m
      +                          cc_generated_files/examples/i2c1_master_example.c: 165:     I2C1_SetBuffer(ptr,2);
  7738   0033DC  C00A  F001         	movff	wr2RegCompleteHandler@i2c1_master_example$F168@ptr,I2C1_SetBuffer@buffer
  7739   0033E0  C00B  F002         	movff	wr2RegCompleteHandler@i2c1_master_example$F168@ptr+1,I2C1_SetBuffer@buffer+1
  7740   0033E4  0E00               	movlw	0
  7741   0033E6  6E04               	movwf	(I2C1_SetBuffer@bufferSize+1)^0,c
  7742   0033E8  0E02               	movlw	2
  7743   0033EA  6E03               	movwf	I2C1_SetBuffer@bufferSize^0,c
  7744   0033EC  EC2E  F01A         	call	_I2C1_SetBuffer	;wreg free
  7745   0033F0                     
  7746                           ;mcc_generated_files/examples/i2c1_master_example.c: 166:     I2C1_SetDataCompleteCallba
      +                          ck(((void*)0),((void*)0));
  7747   0033F0  0E00               	movlw	0
  7748   0033F2  6E06               	movwf	I2C1_SetDataCompleteCallback@cb^0,c
  7749   0033F4  0E00               	movlw	0
  7750   0033F6  6E07               	movwf	(I2C1_SetDataCompleteCallback@cb+1)^0,c
  7751   0033F8  0E00               	movlw	0
  7752   0033FA  6E08               	movwf	I2C1_SetDataCompleteCallback@ptr^0,c
  7753   0033FC  0E00               	movlw	0
  7754   0033FE  6E09               	movwf	(I2C1_SetDataCompleteCallback@ptr+1)^0,c
  7755   003400  ECA7  F01A         	call	_I2C1_SetDataCompleteCallback	;wreg free
  7756   003404                     
  7757                           ;mcc_generated_files/examples/i2c1_master_example.c: 167:     return I2C1_CONTINUE;
  7758   003404  0E04               	movlw	4
  7759   003406  0012               	return		;funcret
  7760   003408                     __end_of_wr2RegCompleteHandler@i2c1_master_example$F168:
  7761                           	callstack 0
  7762                           
  7763 ;; *************** function _I2C1_SetDataCompleteCallback *****************
  7764 ;; Defined at:
  7765 ;;		line 303 in file "mcc_generated_files/i2c1_master.c"
  7766 ;; Parameters:    Size  Location     Type
  7767 ;;  cb              2    5[COMRAM] PTR FTN(PTR void ,)enum 
  7768 ;;		 -> Absolute function(1), rdBlkRegCompleteHandler@i2c1_master_example$F179(1), wr2RegCompleteHandler@i2c1_master_exa
      +mple$F168(1), wr1RegCompleteHandler@i2c1_master_example$F162(1), 
  7769 ;;		 -> rd2RegCompleteHandler@i2c1_master_example$F156(1), rd1RegCompleteHandler@i2c1_master_example$F145(1), rdBlkRegCo
      +mpleteHandler(1), wr2RegCompleteHandler(1), 
  7770 ;;		 -> rd2RegCompleteHandler(1), rd1RegCompleteHandler(1), wr1RegCompleteHandler(1), 
  7771 ;;  ptr             2    7[COMRAM] PTR void 
  7772 ;;		 -> I2C1_ReadDataBlock@bufferBlock(4), I2C1_Write2ByteRegister@data(2), I2C1_Write1ByteRegister@data(1), I2C1_Read2B
      +yteRegister@returnValue(2), 
  7773 ;;		 -> I2C1_Read1ByteRegister@returnValue(1), i2c_readDataBlock@d(4), i2c_write2ByteRegister@data(2), i2c_read2ByteRegi
      +ster@result(2), 
  7774 ;;		 -> i2c_read1ByteRegister@d2(1), i2c_write1ByteRegister@data(1), NULL(0), 
  7775 ;; Auto vars:     Size  Location     Type
  7776 ;;		None
  7777 ;; Return value:  Size  Location     Type
  7778 ;;                  1    wreg      void 
  7779 ;; Registers used:
  7780 ;;		wreg, fsr2l, fsr2h, status,2, status,0, prodl, prodh, cstack
  7781 ;; Tracked objects:
  7782 ;;		On entry : 0/0
  7783 ;;		On exit  : 0/0
  7784 ;;		Unchanged: 0/0
  7785 ;; Data sizes:     COMRAM   BANK0   BANK1   BANK2   BANK3   BANK4   BANK5   BANK6   BANK7   BANK8   BANK9  BANK10  BANK1
      +1  BANK12  BANK13  BANK14  BANK15
  7786 ;;      Params:         4       0       0       0       0       0       0       0       0       0       0       0       
      +0       0       0       0       0
  7787 ;;      Locals:         0       0       0       0       0       0       0       0       0       0       0       0       
      +0       0       0       0       0
  7788 ;;      Temps:          0       0       0       0       0       0       0       0       0       0       0       0       
      +0       0       0       0       0
  7789 ;;      Totals:         4       0       0       0       0       0       0       0       0       0       0       0       
      +0       0       0       0       0
  7790 ;;Total ram usage:        4 bytes
  7791 ;; Hardware stack levels used: 1
  7792 ;; Hardware stack levels required when called: 1
  7793 ;; This function calls:
  7794 ;;		_I2C1_SetCallback
  7795 ;; This function is called by:
  7796 ;;		_wr1RegCompleteHandler
  7797 ;;		_rd1RegCompleteHandler
  7798 ;;		_rd2RegCompleteHandler
  7799 ;;		_wr2RegCompleteHandler
  7800 ;;		_rdBlkRegCompleteHandler
  7801 ;;		_rd1RegCompleteHandler@i2c1_master_example$F145
  7802 ;;		_rd2RegCompleteHandler@i2c1_master_example$F156
  7803 ;;		_wr1RegCompleteHandler@i2c1_master_example$F162
  7804 ;;		_wr2RegCompleteHandler@i2c1_master_example$F168
  7805 ;;		_rdBlkRegCompleteHandler@i2c1_master_example$F179
  7806 ;;		_i2c_write1ByteRegister
  7807 ;;		_i2c_read1ByteRegister
  7808 ;;		_i2c_read2ByteRegister
  7809 ;;		_i2c_write2ByteRegister
  7810 ;;		_i2c_readDataBlock
  7811 ;;		_I2C1_Read1ByteRegister
  7812 ;;		_I2C1_Read2ByteRegister
  7813 ;;		_I2C1_Write1ByteRegister
  7814 ;;		_I2C1_Write2ByteRegister
  7815 ;;		_I2C1_ReadDataBlock
  7816 ;; This function uses a non-reentrant model
  7817 ;;
  7818                           
  7819                           	psect	text59
  7820   00354E                     __ptext59:
  7821                           	callstack 0
  7822   00354E                     _I2C1_SetDataCompleteCallback:
  7823                           	callstack 22
  7824   00354E                     
  7825                           ;mcc_generated_files/i2c1_master.c: 303: void I2C1_SetDataCompleteCallback(i2c1_callback
      +                          _t cb, void *ptr);mcc_generated_files/i2c1_master.c: 304: {;mcc_generated_files/i2c1_mas
      +                          ter.c: 305:     I2C1_SetCallback(I2C1_DATA_COMPLETE, cb, ptr);
  7826   00354E  C006  F001         	movff	I2C1_SetDataCompleteCallback@cb,I2C1_SetCallback@cb
  7827   003552  C007  F002         	movff	I2C1_SetDataCompleteCallback@cb+1,I2C1_SetCallback@cb+1
  7828   003556  C008  F003         	movff	I2C1_SetDataCompleteCallback@ptr,I2C1_SetCallback@ptr
  7829   00355A  C009  F004         	movff	I2C1_SetDataCompleteCallback@ptr+1,I2C1_SetCallback@ptr+1
  7830   00355E  0E00               	movlw	0
  7831   003560  EC33  F016         	call	_I2C1_SetCallback
  7832   003564  0012               	return		;funcret
  7833   003566                     __end_of_I2C1_SetDataCompleteCallback:
  7834                           	callstack 0
  7835                           
  7836 ;; *************** function _I2C1_SetCallback *****************
  7837 ;; Defined at:
  7838 ;;		line 328 in file "mcc_generated_files/i2c1_master.c"
  7839 ;; Parameters:    Size  Location     Type
  7840 ;;  idx             1    wreg     enum E16255
  7841 ;;  cb              2    0[COMRAM] PTR FTN(PTR void ,)enum 
  7842 ;;		 -> Absolute function(1), rdBlkRegCompleteHandler@i2c1_master_example$F179(1), wr2RegCompleteHandler@i2c1_master_exa
      +mple$F168(1), wr1RegCompleteHandler@i2c1_master_example$F162(1), 
  7843 ;;		 -> rd2RegCompleteHandler@i2c1_master_example$F156(1), rd1RegCompleteHandler@i2c1_master_example$F145(1), rdBlkRegCo
      +mpleteHandler(1), wr2RegCompleteHandler(1), 
  7844 ;;		 -> rd2RegCompleteHandler(1), rd1RegCompleteHandler(1), wr1RegCompleteHandler(1), 
  7845 ;;  ptr             2    2[COMRAM] PTR void 
  7846 ;;		 -> I2C1_ReadDataBlock@bufferBlock(4), I2C1_Write2ByteRegister@data(2), I2C1_Write1ByteRegister@data(1), I2C1_Read2B
      +yteRegister@returnValue(2), 
  7847 ;;		 -> I2C1_Read1ByteRegister@returnValue(1), i2c_readDataBlock@d(4), i2c_write2ByteRegister@data(2), i2c_read2ByteRegi
      +ster@result(2), 
  7848 ;;		 -> i2c_read1ByteRegister@d2(1), i2c_write1ByteRegister@data(1), NULL(0), 
  7849 ;; Auto vars:     Size  Location     Type
  7850 ;;  idx             1    4[COMRAM] enum E16255
  7851 ;; Return value:  Size  Location     Type
  7852 ;;                  1    wreg      void 
  7853 ;; Registers used:
  7854 ;;		wreg, fsr2l, fsr2h, status,2, status,0, prodl, prodh
  7855 ;; Tracked objects:
  7856 ;;		On entry : 0/0
  7857 ;;		On exit  : 0/0
  7858 ;;		Unchanged: 0/0
  7859 ;; Data sizes:     COMRAM   BANK0   BANK1   BANK2   BANK3   BANK4   BANK5   BANK6   BANK7   BANK8   BANK9  BANK10  BANK1
      +1  BANK12  BANK13  BANK14  BANK15
  7860 ;;      Params:         4       0       0       0       0       0       0       0       0       0       0       0       
      +0       0       0       0       0
  7861 ;;      Locals:         1       0       0       0       0       0       0       0       0       0       0       0       
      +0       0       0       0       0
  7862 ;;      Temps:          0       0       0       0       0       0       0       0       0       0       0       0       
      +0       0       0       0       0
  7863 ;;      Totals:         5       0       0       0       0       0       0       0       0       0       0       0       
      +0       0       0       0       0
  7864 ;;Total ram usage:        5 bytes
  7865 ;; Hardware stack levels used: 1
  7866 ;; This function calls:
  7867 ;;		Nothing
  7868 ;; This function is called by:
  7869 ;;		_I2C1_SetDataCompleteCallback
  7870 ;;		_I2C1_SetAddressNackCallback
  7871 ;;		_I2C1_SetWriteCollisionCallback
  7872 ;;		_I2C1_SetDataNackCallback
  7873 ;;		_I2C1_SetTimeoutCallback
  7874 ;; This function uses a non-reentrant model
  7875 ;;
  7876                           
  7877                           	psect	text60
  7878   002C66                     __ptext60:
  7879                           	callstack 0
  7880   002C66                     _I2C1_SetCallback:
  7881                           	callstack 28
  7882                           
  7883                           ;incstack = 0
  7884                           ;I2C1_SetCallback@idx stored from wreg
  7885   002C66  6E05               	movwf	I2C1_SetCallback@idx^0,c
  7886   002C68                     
  7887                           ;mcc_generated_files/i2c1_master.c: 328: static void I2C1_SetCallback(i2c1_callbackIndex
      +                          _t idx, i2c1_callback_t cb, void *ptr);mcc_generated_files/i2c1_master.c: 329: {;mcc_gen
      +                          erated_files/i2c1_master.c: 330:     if(cb)
  7888   002C68  5001               	movf	I2C1_SetCallback@cb^0,w,c
  7889   002C6A  1002               	iorwf	(I2C1_SetCallback@cb+1)^0,w,c
  7890   002C6C  B4D8               	btfsc	status,2,c
  7891   002C6E  EF3B  F016         	goto	u1591
  7892   002C72  EF3D  F016         	goto	u1590
  7893   002C76                     u1591:
  7894   002C76  EF5B  F016         	goto	l3374
  7895   002C7A                     u1590:
  7896   002C7A                     
  7897                           ;mcc_generated_files/i2c1_master.c: 331:     {;mcc_generated_files/i2c1_master.c: 332:  
      +                                 I2C1_Status.callbackTable[idx] = cb;
  7898   002C7A  5005               	movf	I2C1_SetCallback@idx^0,w,c
  7899   002C7C  0D02               	mullw	2
  7900   002C7E  0E60               	movlw	low _I2C1_Status
  7901   002C80  24F3               	addwf	243,w,c
  7902   002C82  6ED9               	movwf	fsr2l,c
  7903   002C84  0E00               	movlw	high _I2C1_Status
  7904   002C86  20F4               	addwfc	prodh,w,c
  7905   002C88  6EDA               	movwf	fsr2h,c
  7906   002C8A  0060  F007  FFDE   	movff	I2C1_SetCallback@cb,postinc2
  7907   002C90  0060  F00B  FFDD   	movff	I2C1_SetCallback@cb+1,postdec2
  7908                           
  7909                           ;mcc_generated_files/i2c1_master.c: 333:         I2C1_Status.callbackPayload[idx] = ptr;
  7910   002C96  5005               	movf	I2C1_SetCallback@idx^0,w,c
  7911   002C98  0D02               	mullw	2
  7912   002C9A  0E6C               	movlw	low (_I2C1_Status+12)
  7913   002C9C  24F3               	addwf	243,w,c
  7914   002C9E  6ED9               	movwf	fsr2l,c
  7915   002CA0  0E00               	movlw	high (_I2C1_Status+12)
  7916   002CA2  20F4               	addwfc	prodh,w,c
  7917   002CA4  6EDA               	movwf	fsr2h,c
  7918   002CA6  0060  F00F  FFDE   	movff	I2C1_SetCallback@ptr,postinc2
  7919   002CAC  0060  F013  FFDD   	movff	I2C1_SetCallback@ptr+1,postdec2
  7920                           
  7921                           ;mcc_generated_files/i2c1_master.c: 334:     }
  7922   002CB2  EF73  F016         	goto	l526
  7923   002CB6                     l3374:
  7924                           
  7925                           ;mcc_generated_files/i2c1_master.c: 336:     {;mcc_generated_files/i2c1_master.c: 337:  
      +                                 I2C1_Status.callbackTable[idx] = I2C1_CallbackReturnStop;
  7926   002CB6  5005               	movf	I2C1_SetCallback@idx^0,w,c
  7927   002CB8  0D02               	mullw	2
  7928   002CBA  0E60               	movlw	low _I2C1_Status
  7929   002CBC  24F3               	addwf	243,w,c
  7930   002CBE  6ED9               	movwf	fsr2l,c
  7931   002CC0  0E00               	movlw	high _I2C1_Status
  7932   002CC2  20F4               	addwfc	prodh,w,c
  7933   002CC4  6EDA               	movwf	fsr2h,c
  7934   002CC6  0E5E               	movlw	low _I2C1_CallbackReturnStop
  7935   002CC8  6EDE               	movwf	postinc2,c
  7936   002CCA  0E37               	movlw	high _I2C1_CallbackReturnStop
  7937   002CCC  6EDD               	movwf	postdec2,c
  7938                           
  7939                           ;mcc_generated_files/i2c1_master.c: 338:         I2C1_Status.callbackPayload[idx] = ((vo
      +                          id*)0);
  7940   002CCE  5005               	movf	I2C1_SetCallback@idx^0,w,c
  7941   002CD0  0D02               	mullw	2
  7942   002CD2  0E6C               	movlw	low (_I2C1_Status+12)
  7943   002CD4  24F3               	addwf	243,w,c
  7944   002CD6  6ED9               	movwf	fsr2l,c
  7945   002CD8  0E00               	movlw	high (_I2C1_Status+12)
  7946   002CDA  20F4               	addwfc	prodh,w,c
  7947   002CDC  6EDA               	movwf	fsr2h,c
  7948   002CDE  0E00               	movlw	0
  7949   002CE0  6EDE               	movwf	postinc2,c
  7950   002CE2  0E00               	movlw	0
  7951   002CE4  6EDD               	movwf	postdec2,c
  7952   002CE6                     l526:
  7953   002CE6  0012               	return		;funcret
  7954   002CE8                     __end_of_I2C1_SetCallback:
  7955                           	callstack 0
  7956                           
  7957 ;; *************** function _I2C1_SetBuffer *****************
  7958 ;; Defined at:
  7959 ;;		line 293 in file "mcc_generated_files/i2c1_master.c"
  7960 ;; Parameters:    Size  Location     Type
  7961 ;;  buffer          2    0[COMRAM] PTR void 
  7962 ;;		 -> i2c_write1ByteRegister@data.data(3), i2c_read1ByteRegister@d2.data(3), i2c_read2ByteRegister@result.data(3), i2c
      +_write2ByteRegister@data.data(3), 
  7963 ;;		 -> I2C1_Read1ByteRegister@returnValue.data(3), I2C1_Read2ByteRegister@returnValue.data(3), I2C1_Write1ByteRegister@
      +data.data(3), I2C1_Write2ByteRegister@data.data(3), 
  7964 ;;		 -> main@datosRecibidos(255), main@datosEnvio(18), I2CSIMPLE_example@receiveData(15), I2CSIMPLE_example@sendData(17)
      +, 
  7965 ;;		 -> I2C1_ReadDataBlock@reg(1), I2C1_ReadDataBlock@bufferBlock(4), bufferBlock.data(3), I2C1_Write2ByteRegister@reg(1
      +), 
  7966 ;;		 -> I2C1_Write2ByteRegister@data(2), I2C1_Write1ByteRegister@reg(1), I2C1_Write1ByteRegister@data(1), I2C1_Read2Byte
      +Register@reg(1), 
  7967 ;;		 -> I2C1_Read2ByteRegister@returnValue(2), I2C1_Read1ByteRegister@reg(1), I2C1_Read1ByteRegister@returnValue(1), i2c
      +_readDataBlock@reg(1), 
  7968 ;;		 -> i2c_readDataBlock@d(4), d.data(3), i2c_write2ByteRegister@reg(1), i2c_write2ByteRegister@data(2), 
  7969 ;;		 -> i2c_read2ByteRegister@reg(1), i2c_read2ByteRegister@result(2), i2c_read1ByteRegister@reg(1), i2c_read1ByteRegist
      +er@d2(1), 
  7970 ;;		 -> i2c_write1ByteRegister@reg(1), i2c_write1ByteRegister@data(1), NULL(0), 
  7971 ;;  bufferSize      2    2[COMRAM] unsigned int 
  7972 ;; Auto vars:     Size  Location     Type
  7973 ;;		None
  7974 ;; Return value:  Size  Location     Type
  7975 ;;                  1    wreg      void 
  7976 ;; Registers used:
  7977 ;;		wreg, status,2, status,0
  7978 ;; Tracked objects:
  7979 ;;		On entry : 0/0
  7980 ;;		On exit  : 0/0
  7981 ;;		Unchanged: 0/0
  7982 ;; Data sizes:     COMRAM   BANK0   BANK1   BANK2   BANK3   BANK4   BANK5   BANK6   BANK7   BANK8   BANK9  BANK10  BANK1
      +1  BANK12  BANK13  BANK14  BANK15
  7983 ;;      Params:         4       0       0       0       0       0       0       0       0       0       0       0       
      +0       0       0       0       0
  7984 ;;      Locals:         0       0       0       0       0       0       0       0       0       0       0       0       
      +0       0       0       0       0
  7985 ;;      Temps:          0       0       0       0       0       0       0       0       0       0       0       0       
      +0       0       0       0       0
  7986 ;;      Totals:         4       0       0       0       0       0       0       0       0       0       0       0       
      +0       0       0       0       0
  7987 ;;Total ram usage:        4 bytes
  7988 ;; Hardware stack levels used: 1
  7989 ;; This function calls:
  7990 ;;		Nothing
  7991 ;; This function is called by:
  7992 ;;		_wr1RegCompleteHandler
  7993 ;;		_i2c_writeNBytes
  7994 ;;		_rd1RegCompleteHandler
  7995 ;;		_rd2RegCompleteHandler
  7996 ;;		_wr2RegCompleteHandler
  7997 ;;		_rdBlkRegCompleteHandler
  7998 ;;		_i2c_readNBytes
  7999 ;;		_rd1RegCompleteHandler@i2c1_master_example$F145
  8000 ;;		_rd2RegCompleteHandler@i2c1_master_example$F156
  8001 ;;		_wr1RegCompleteHandler@i2c1_master_example$F162
  8002 ;;		_wr2RegCompleteHandler@i2c1_master_example$F168
  8003 ;;		_rdBlkRegCompleteHandler@i2c1_master_example$F179
  8004 ;;		_i2c_write1ByteRegister
  8005 ;;		_i2c_read1ByteRegister
  8006 ;;		_i2c_read2ByteRegister
  8007 ;;		_i2c_write2ByteRegister
  8008 ;;		_i2c_readDataBlock
  8009 ;;		_I2C1_Read1ByteRegister
  8010 ;;		_I2C1_Read2ByteRegister
  8011 ;;		_I2C1_Write1ByteRegister
  8012 ;;		_I2C1_Write2ByteRegister
  8013 ;;		_I2C1_WriteNBytes
  8014 ;;		_I2C1_ReadNBytes
  8015 ;;		_I2C1_ReadDataBlock
  8016 ;; This function uses a non-reentrant model
  8017 ;;
  8018                           
  8019                           	psect	text61
  8020   00345C                     __ptext61:
  8021                           	callstack 0
  8022   00345C                     _I2C1_SetBuffer:
  8023                           	callstack 29
  8024   00345C                     
  8025                           ;mcc_generated_files/i2c1_master.c: 293: void I2C1_SetBuffer(void *buffer, size_t buffer
      +                          Size);mcc_generated_files/i2c1_master.c: 294: {;mcc_generated_files/i2c1_master.c: 295: 
      +                              if(I2C1_Status.bufferFree)
  8026   00345C  0100               	movlb	0	; () banked
  8027   00345E  A983               	btfss	(_I2C1_Status+35)& (0+255),4,b
  8028   003460  EF34  F01A         	goto	u1601
  8029   003464  EF36  F01A         	goto	u1600
  8030   003468                     u1601:
  8031   003468  EF3F  F01A         	goto	l506
  8032   00346C                     u1600:
  8033   00346C                     
  8034                           ; BSR set to: 0
  8035                           ;mcc_generated_files/i2c1_master.c: 296:     {;mcc_generated_files/i2c1_master.c: 297:  
      +                                 I2C1_Status.data_ptr = buffer;
  8036   00346C  C001  F07D         	movff	I2C1_SetBuffer@buffer,_I2C1_Status+29
  8037   003470  C002  F07E         	movff	I2C1_SetBuffer@buffer+1,_I2C1_Status+30
  8038   003474                     
  8039                           ; BSR set to: 0
  8040                           ;mcc_generated_files/i2c1_master.c: 298:         I2C1_Status.data_length = bufferSize;
  8041   003474  C003  F07F         	movff	I2C1_SetBuffer@bufferSize,_I2C1_Status+31
  8042   003478  C004  F080         	movff	I2C1_SetBuffer@bufferSize+1,_I2C1_Status+32
  8043   00347C                     
  8044                           ; BSR set to: 0
  8045                           ;mcc_generated_files/i2c1_master.c: 299:         I2C1_Status.bufferFree = 0;
  8046   00347C  9983               	bcf	(_I2C1_Status+35)& (0+255),4,b
  8047   00347E                     l506:
  8048                           
  8049                           ; BSR set to: 0
  8050   00347E  0012               	return		;funcret
  8051   003480                     __end_of_I2C1_SetBuffer:
  8052                           	callstack 0
  8053                           
  8054 ;; *************** function _I2C1_ClearInterruptFlags *****************
  8055 ;; Defined at:
  8056 ;;		line 362 in file "mcc_generated_files/i2c1_master.c"
  8057 ;; Parameters:    Size  Location     Type
  8058 ;;		None
  8059 ;; Auto vars:     Size  Location     Type
  8060 ;;		None
  8061 ;; Return value:  Size  Location     Type
  8062 ;;                  1    wreg      void 
  8063 ;; Registers used:
  8064 ;;		wreg, status,2, cstack
  8065 ;; Tracked objects:
  8066 ;;		On entry : 0/0
  8067 ;;		On exit  : 0/0
  8068 ;;		Unchanged: 0/0
  8069 ;; Data sizes:     COMRAM   BANK0   BANK1   BANK2   BANK3   BANK4   BANK5   BANK6   BANK7   BANK8   BANK9  BANK10  BANK1
      +1  BANK12  BANK13  BANK14  BANK15
  8070 ;;      Params:         0       0       0       0       0       0       0       0       0       0       0       0       
      +0       0       0       0       0
  8071 ;;      Locals:         0       0       0       0       0       0       0       0       0       0       0       0       
      +0       0       0       0       0
  8072 ;;      Temps:          0       0       0       0       0       0       0       0       0       0       0       0       
      +0       0       0       0       0
  8073 ;;      Totals:         0       0       0       0       0       0       0       0       0       0       0       0       
      +0       0       0       0       0
  8074 ;;Total ram usage:        0 bytes
  8075 ;; Hardware stack levels used: 1
  8076 ;; Hardware stack levels required when called: 1
  8077 ;; This function calls:
  8078 ;;		_I2C1_MasterClearCountFlag
  8079 ;;		_I2C1_MasterClearNackFlag
  8080 ;;		_I2C1_MasterClearStopFlag
  8081 ;;		_I2C1_MasterIsCountFlagSet
  8082 ;;		_I2C1_MasterIsNackFlagSet
  8083 ;;		_I2C1_MasterIsStopFlagSet
  8084 ;; This function is called by:
  8085 ;;		_I2C1_MasterFsm
  8086 ;; This function uses a non-reentrant model
  8087 ;;
  8088                           
  8089                           	psect	text62
  8090   003026                     __ptext62:
  8091                           	callstack 0
  8092   003026                     _I2C1_ClearInterruptFlags:
  8093                           	callstack 24
  8094   003026                     
  8095                           ;mcc_generated_files/i2c1_master.c: 364:     if(I2C1_MasterIsCountFlagSet())
  8096   003026  EC01  F01B         	call	_I2C1_MasterIsCountFlagSet	;wreg free
  8097   00302A  0900               	iorlw	0
  8098   00302C  B4D8               	btfsc	status,2,c
  8099   00302E  EF1B  F018         	goto	u1711
  8100   003032  EF1D  F018         	goto	u1710
  8101   003036                     u1711:
  8102   003036  EF21  F018         	goto	l3650
  8103   00303A                     u1710:
  8104   00303A                     
  8105                           ;mcc_generated_files/i2c1_master.c: 365:     {;mcc_generated_files/i2c1_master.c: 366:  
      +                                 I2C1_MasterClearCountFlag();
  8106   00303A  ECA6  F01B         	call	_I2C1_MasterClearCountFlag	;wreg free
  8107                           
  8108                           ;mcc_generated_files/i2c1_master.c: 367:     }
  8109   00303E  EF3B  F018         	goto	l544
  8110   003042                     l3650:
  8111   003042  ECEB  F01A         	call	_I2C1_MasterIsStopFlagSet	;wreg free
  8112   003046  0900               	iorlw	0
  8113   003048  B4D8               	btfsc	status,2,c
  8114   00304A  EF29  F018         	goto	u1721
  8115   00304E  EF2B  F018         	goto	u1720
  8116   003052                     u1721:
  8117   003052  EF2F  F018         	goto	l3654
  8118   003056                     u1720:
  8119   003056                     
  8120                           ;mcc_generated_files/i2c1_master.c: 369:     {;mcc_generated_files/i2c1_master.c: 370:  
      +                                 I2C1_MasterClearStopFlag();
  8121   003056  ECA0  F01B         	call	_I2C1_MasterClearStopFlag	;wreg free
  8122                           
  8123                           ;mcc_generated_files/i2c1_master.c: 371:     }
  8124   00305A  EF3B  F018         	goto	l544
  8125   00305E                     l3654:
  8126   00305E  ECF6  F01A         	call	_I2C1_MasterIsNackFlagSet	;wreg free
  8127   003062  0900               	iorlw	0
  8128   003064  B4D8               	btfsc	status,2,c
  8129   003066  EF37  F018         	goto	u1731
  8130   00306A  EF39  F018         	goto	u1730
  8131   00306E                     u1731:
  8132   00306E  EF3B  F018         	goto	l544
  8133   003072                     u1730:
  8134   003072                     
  8135                           ;mcc_generated_files/i2c1_master.c: 373:     {;mcc_generated_files/i2c1_master.c: 374:  
      +                                 I2C1_MasterClearNackFlag();
  8136   003072  ECA3  F01B         	call	_I2C1_MasterClearNackFlag	;wreg free
  8137   003076                     l544:
  8138   003076  0012               	return		;funcret
  8139   003078                     __end_of_I2C1_ClearInterruptFlags:
  8140                           	callstack 0
  8141                           
  8142 ;; *************** function _I2C1_MasterIsStopFlagSet *****************
  8143 ;; Defined at:
  8144 ;;		line 745 in file "mcc_generated_files/i2c1_master.c"
  8145 ;; Parameters:    Size  Location     Type
  8146 ;;		None
  8147 ;; Auto vars:     Size  Location     Type
  8148 ;;		None
  8149 ;; Return value:  Size  Location     Type
  8150 ;;                  1    wreg      _Bool 
  8151 ;; Registers used:
  8152 ;;		wreg
  8153 ;; Tracked objects:
  8154 ;;		On entry : 0/0
  8155 ;;		On exit  : 0/0
  8156 ;;		Unchanged: 0/0
  8157 ;; Data sizes:     COMRAM   BANK0   BANK1   BANK2   BANK3   BANK4   BANK5   BANK6   BANK7   BANK8   BANK9  BANK10  BANK1
      +1  BANK12  BANK13  BANK14  BANK15
  8158 ;;      Params:         0       0       0       0       0       0       0       0       0       0       0       0       
      +0       0       0       0       0
  8159 ;;      Locals:         0       0       0       0       0       0       0       0       0       0       0       0       
      +0       0       0       0       0
  8160 ;;      Temps:          0       0       0       0       0       0       0       0       0       0       0       0       
      +0       0       0       0       0
  8161 ;;      Totals:         0       0       0       0       0       0       0       0       0       0       0       0       
      +0       0       0       0       0
  8162 ;;Total ram usage:        0 bytes
  8163 ;; Hardware stack levels used: 1
  8164 ;; This function calls:
  8165 ;;		Nothing
  8166 ;; This function is called by:
  8167 ;;		_I2C1_ClearInterruptFlags
  8168 ;; This function uses a non-reentrant model
  8169 ;;
  8170                           
  8171                           	psect	text63
  8172   0035D6                     __ptext63:
  8173                           	callstack 0
  8174   0035D6                     _I2C1_MasterIsStopFlagSet:
  8175                           	callstack 24
  8176   0035D6                     
  8177                           ;mcc_generated_files/i2c1_master.c: 747:     return I2C1PIRbits.PCIF;
  8178   0035D6  013D               	movlb	61	; () banked
  8179   0035D8  B579               	btfsc	121,2,b	;volatile
  8180   0035DA  EFF1  F01A         	goto	u1661
  8181   0035DE  EFF4  F01A         	goto	u1660
  8182   0035E2                     u1661:
  8183   0035E2  0E01               	movlw	1
  8184   0035E4  EFF5  F01A         	goto	u1666
  8185   0035E8                     u1660:
  8186   0035E8  0E00               	movlw	0
  8187   0035EA                     u1666:
  8188   0035EA                     
  8189                           ; BSR set to: 61
  8190   0035EA  0012               	return		;funcret
  8191   0035EC                     __end_of_I2C1_MasterIsStopFlagSet:
  8192                           	callstack 0
  8193                           
  8194 ;; *************** function _I2C1_MasterIsNackFlagSet *****************
  8195 ;; Defined at:
  8196 ;;		line 755 in file "mcc_generated_files/i2c1_master.c"
  8197 ;; Parameters:    Size  Location     Type
  8198 ;;		None
  8199 ;; Auto vars:     Size  Location     Type
  8200 ;;		None
  8201 ;; Return value:  Size  Location     Type
  8202 ;;                  1    wreg      _Bool 
  8203 ;; Registers used:
  8204 ;;		wreg
  8205 ;; Tracked objects:
  8206 ;;		On entry : 0/0
  8207 ;;		On exit  : 0/0
  8208 ;;		Unchanged: 0/0
  8209 ;; Data sizes:     COMRAM   BANK0   BANK1   BANK2   BANK3   BANK4   BANK5   BANK6   BANK7   BANK8   BANK9  BANK10  BANK1
      +1  BANK12  BANK13  BANK14  BANK15
  8210 ;;      Params:         0       0       0       0       0       0       0       0       0       0       0       0       
      +0       0       0       0       0
  8211 ;;      Locals:         0       0       0       0       0       0       0       0       0       0       0       0       
      +0       0       0       0       0
  8212 ;;      Temps:          0       0       0       0       0       0       0       0       0       0       0       0       
      +0       0       0       0       0
  8213 ;;      Totals:         0       0       0       0       0       0       0       0       0       0       0       0       
      +0       0       0       0       0
  8214 ;;Total ram usage:        0 bytes
  8215 ;; Hardware stack levels used: 1
  8216 ;; This function calls:
  8217 ;;		Nothing
  8218 ;; This function is called by:
  8219 ;;		_I2C1_ClearInterruptFlags
  8220 ;; This function uses a non-reentrant model
  8221 ;;
  8222                           
  8223                           	psect	text64
  8224   0035EC                     __ptext64:
  8225                           	callstack 0
  8226   0035EC                     _I2C1_MasterIsNackFlagSet:
  8227                           	callstack 24
  8228   0035EC                     
  8229                           ;mcc_generated_files/i2c1_master.c: 757:     return I2C1ERRbits.NACKIF;
  8230   0035EC  013D               	movlb	61	; () banked
  8231   0035EE  B976               	btfsc	118,4,b	;volatile
  8232   0035F0  EFFC  F01A         	goto	u1671
  8233   0035F4  EFFF  F01A         	goto	u1670
  8234   0035F8                     u1671:
  8235   0035F8  0E01               	movlw	1
  8236   0035FA  EF00  F01B         	goto	u1676
  8237   0035FE                     u1670:
  8238   0035FE  0E00               	movlw	0
  8239   003600                     u1676:
  8240   003600                     
  8241                           ; BSR set to: 61
  8242   003600  0012               	return		;funcret
  8243   003602                     __end_of_I2C1_MasterIsNackFlagSet:
  8244                           	callstack 0
  8245                           
  8246 ;; *************** function _I2C1_MasterIsCountFlagSet *****************
  8247 ;; Defined at:
  8248 ;;		line 750 in file "mcc_generated_files/i2c1_master.c"
  8249 ;; Parameters:    Size  Location     Type
  8250 ;;		None
  8251 ;; Auto vars:     Size  Location     Type
  8252 ;;		None
  8253 ;; Return value:  Size  Location     Type
  8254 ;;                  1    wreg      _Bool 
  8255 ;; Registers used:
  8256 ;;		wreg
  8257 ;; Tracked objects:
  8258 ;;		On entry : 0/0
  8259 ;;		On exit  : 0/0
  8260 ;;		Unchanged: 0/0
  8261 ;; Data sizes:     COMRAM   BANK0   BANK1   BANK2   BANK3   BANK4   BANK5   BANK6   BANK7   BANK8   BANK9  BANK10  BANK1
      +1  BANK12  BANK13  BANK14  BANK15
  8262 ;;      Params:         0       0       0       0       0       0       0       0       0       0       0       0       
      +0       0       0       0       0
  8263 ;;      Locals:         0       0       0       0       0       0       0       0       0       0       0       0       
      +0       0       0       0       0
  8264 ;;      Temps:          0       0       0       0       0       0       0       0       0       0       0       0       
      +0       0       0       0       0
  8265 ;;      Totals:         0       0       0       0       0       0       0       0       0       0       0       0       
      +0       0       0       0       0
  8266 ;;Total ram usage:        0 bytes
  8267 ;; Hardware stack levels used: 1
  8268 ;; This function calls:
  8269 ;;		Nothing
  8270 ;; This function is called by:
  8271 ;;		_I2C1_ClearInterruptFlags
  8272 ;; This function uses a non-reentrant model
  8273 ;;
  8274                           
  8275                           	psect	text65
  8276   003602                     __ptext65:
  8277                           	callstack 0
  8278   003602                     _I2C1_MasterIsCountFlagSet:
  8279                           	callstack 24
  8280   003602                     
  8281                           ;mcc_generated_files/i2c1_master.c: 752:     return I2C1PIRbits.CNTIF;
  8282   003602  013D               	movlb	61	; () banked
  8283   003604  BF79               	btfsc	121,7,b	;volatile
  8284   003606  EF07  F01B         	goto	u1651
  8285   00360A  EF0A  F01B         	goto	u1650
  8286   00360E                     u1651:
  8287   00360E  0E01               	movlw	1
  8288   003610  EF0B  F01B         	goto	u1656
  8289   003614                     u1650:
  8290   003614  0E00               	movlw	0
  8291   003616                     u1656:
  8292   003616                     
  8293                           ; BSR set to: 61
  8294   003616  0012               	return		;funcret
  8295   003618                     __end_of_I2C1_MasterIsCountFlagSet:
  8296                           	callstack 0
  8297                           
  8298 ;; *************** function _I2C1_MasterClearStopFlag *****************
  8299 ;; Defined at:
  8300 ;;		line 760 in file "mcc_generated_files/i2c1_master.c"
  8301 ;; Parameters:    Size  Location     Type
  8302 ;;		None
  8303 ;; Auto vars:     Size  Location     Type
  8304 ;;		None
  8305 ;; Return value:  Size  Location     Type
  8306 ;;                  1    wreg      void 
  8307 ;; Registers used:
  8308 ;;		None
  8309 ;; Tracked objects:
  8310 ;;		On entry : 0/0
  8311 ;;		On exit  : 0/0
  8312 ;;		Unchanged: 0/0
  8313 ;; Data sizes:     COMRAM   BANK0   BANK1   BANK2   BANK3   BANK4   BANK5   BANK6   BANK7   BANK8   BANK9  BANK10  BANK1
      +1  BANK12  BANK13  BANK14  BANK15
  8314 ;;      Params:         0       0       0       0       0       0       0       0       0       0       0       0       
      +0       0       0       0       0
  8315 ;;      Locals:         0       0       0       0       0       0       0       0       0       0       0       0       
      +0       0       0       0       0
  8316 ;;      Temps:          0       0       0       0       0       0       0       0       0       0       0       0       
      +0       0       0       0       0
  8317 ;;      Totals:         0       0       0       0       0       0       0       0       0       0       0       0       
      +0       0       0       0       0
  8318 ;;Total ram usage:        0 bytes
  8319 ;; Hardware stack levels used: 1
  8320 ;; This function calls:
  8321 ;;		Nothing
  8322 ;; This function is called by:
  8323 ;;		_I2C1_ClearInterruptFlags
  8324 ;; This function uses a non-reentrant model
  8325 ;;
  8326                           
  8327                           	psect	text66
  8328   003740                     __ptext66:
  8329                           	callstack 0
  8330   003740                     _I2C1_MasterClearStopFlag:
  8331                           	callstack 24
  8332   003740                     
  8333                           ;mcc_generated_files/i2c1_master.c: 762:     I2C1PIRbits.PCIF = 0;
  8334   003740  013D               	movlb	61	; () banked
  8335   003742  9579               	bcf	121,2,b	;volatile
  8336   003744                     
  8337                           ; BSR set to: 61
  8338   003744  0012               	return		;funcret
  8339   003746                     __end_of_I2C1_MasterClearStopFlag:
  8340                           	callstack 0
  8341                           
  8342 ;; *************** function _I2C1_MasterClearNackFlag *****************
  8343 ;; Defined at:
  8344 ;;		line 770 in file "mcc_generated_files/i2c1_master.c"
  8345 ;; Parameters:    Size  Location     Type
  8346 ;;		None
  8347 ;; Auto vars:     Size  Location     Type
  8348 ;;		None
  8349 ;; Return value:  Size  Location     Type
  8350 ;;                  1    wreg      void 
  8351 ;; Registers used:
  8352 ;;		None
  8353 ;; Tracked objects:
  8354 ;;		On entry : 0/0
  8355 ;;		On exit  : 0/0
  8356 ;;		Unchanged: 0/0
  8357 ;; Data sizes:     COMRAM   BANK0   BANK1   BANK2   BANK3   BANK4   BANK5   BANK6   BANK7   BANK8   BANK9  BANK10  BANK1
      +1  BANK12  BANK13  BANK14  BANK15
  8358 ;;      Params:         0       0       0       0       0       0       0       0       0       0       0       0       
      +0       0       0       0       0
  8359 ;;      Locals:         0       0       0       0       0       0       0       0       0       0       0       0       
      +0       0       0       0       0
  8360 ;;      Temps:          0       0       0       0       0       0       0       0       0       0       0       0       
      +0       0       0       0       0
  8361 ;;      Totals:         0       0       0       0       0       0       0       0       0       0       0       0       
      +0       0       0       0       0
  8362 ;;Total ram usage:        0 bytes
  8363 ;; Hardware stack levels used: 1
  8364 ;; This function calls:
  8365 ;;		Nothing
  8366 ;; This function is called by:
  8367 ;;		_I2C1_ClearInterruptFlags
  8368 ;; This function uses a non-reentrant model
  8369 ;;
  8370                           
  8371                           	psect	text67
  8372   003746                     __ptext67:
  8373                           	callstack 0
  8374   003746                     _I2C1_MasterClearNackFlag:
  8375                           	callstack 24
  8376   003746                     
  8377                           ;mcc_generated_files/i2c1_master.c: 772:     I2C1ERRbits.NACKIF = 0;
  8378   003746  013D               	movlb	61	; () banked
  8379   003748  9976               	bcf	118,4,b	;volatile
  8380   00374A                     
  8381                           ; BSR set to: 61
  8382   00374A  0012               	return		;funcret
  8383   00374C                     __end_of_I2C1_MasterClearNackFlag:
  8384                           	callstack 0
  8385                           
  8386 ;; *************** function _I2C1_MasterClearCountFlag *****************
  8387 ;; Defined at:
  8388 ;;		line 765 in file "mcc_generated_files/i2c1_master.c"
  8389 ;; Parameters:    Size  Location     Type
  8390 ;;		None
  8391 ;; Auto vars:     Size  Location     Type
  8392 ;;		None
  8393 ;; Return value:  Size  Location     Type
  8394 ;;                  1    wreg      void 
  8395 ;; Registers used:
  8396 ;;		None
  8397 ;; Tracked objects:
  8398 ;;		On entry : 0/0
  8399 ;;		On exit  : 0/0
  8400 ;;		Unchanged: 0/0
  8401 ;; Data sizes:     COMRAM   BANK0   BANK1   BANK2   BANK3   BANK4   BANK5   BANK6   BANK7   BANK8   BANK9  BANK10  BANK1
      +1  BANK12  BANK13  BANK14  BANK15
  8402 ;;      Params:         0       0       0       0       0       0       0       0       0       0       0       0       
      +0       0       0       0       0
  8403 ;;      Locals:         0       0       0       0       0       0       0       0       0       0       0       0       
      +0       0       0       0       0
  8404 ;;      Temps:          0       0       0       0       0       0       0       0       0       0       0       0       
      +0       0       0       0       0
  8405 ;;      Totals:         0       0       0       0       0       0       0       0       0       0       0       0       
      +0       0       0       0       0
  8406 ;;Total ram usage:        0 bytes
  8407 ;; Hardware stack levels used: 1
  8408 ;; This function calls:
  8409 ;;		Nothing
  8410 ;; This function is called by:
  8411 ;;		_I2C1_ClearInterruptFlags
  8412 ;; This function uses a non-reentrant model
  8413 ;;
  8414                           
  8415                           	psect	text68
  8416   00374C                     __ptext68:
  8417                           	callstack 0
  8418   00374C                     _I2C1_MasterClearCountFlag:
  8419                           	callstack 24
  8420   00374C                     
  8421                           ;mcc_generated_files/i2c1_master.c: 767:     I2C1PIRbits.CNTIF = 0;
  8422   00374C  013D               	movlb	61	; () banked
  8423   00374E  9F79               	bcf	121,7,b	;volatile
  8424   003750                     
  8425                           ; BSR set to: 61
  8426   003750  0012               	return		;funcret
  8427   003752                     __end_of_I2C1_MasterClearCountFlag:
  8428                           	callstack 0
  8429                           
  8430 ;; *************** function _I2C1_Close *****************
  8431 ;; Defined at:
  8432 ;;		line 237 in file "mcc_generated_files/i2c1_master.c"
  8433 ;; Parameters:    Size  Location     Type
  8434 ;;		None
  8435 ;; Auto vars:     Size  Location     Type
  8436 ;;  returnValue     1    0[COMRAM] enum E355
  8437 ;; Return value:  Size  Location     Type
  8438 ;;                  1    wreg      enum E355
  8439 ;; Registers used:
  8440 ;;		wreg, status,2, cstack
  8441 ;; Tracked objects:
  8442 ;;		On entry : 0/0
  8443 ;;		On exit  : 0/0
  8444 ;;		Unchanged: 0/0
  8445 ;; Data sizes:     COMRAM   BANK0   BANK1   BANK2   BANK3   BANK4   BANK5   BANK6   BANK7   BANK8   BANK9  BANK10  BANK1
      +1  BANK12  BANK13  BANK14  BANK15
  8446 ;;      Params:         0       0       0       0       0       0       0       0       0       0       0       0       
      +0       0       0       0       0
  8447 ;;      Locals:         1       0       0       0       0       0       0       0       0       0       0       0       
      +0       0       0       0       0
  8448 ;;      Temps:          0       0       0       0       0       0       0       0       0       0       0       0       
      +0       0       0       0       0
  8449 ;;      Totals:         1       0       0       0       0       0       0       0       0       0       0       0       
      +0       0       0       0       0
  8450 ;;Total ram usage:        1 bytes
  8451 ;; Hardware stack levels used: 1
  8452 ;; Hardware stack levels required when called: 1
  8453 ;; This function calls:
  8454 ;;		_I2C1_MasterClearIrq
  8455 ;;		_I2C1_MasterClose
  8456 ;;		_I2C1_MasterDisableIrq
  8457 ;; This function is called by:
  8458 ;;		_i2c_writeNBytes
  8459 ;;		_i2c_readNBytes
  8460 ;;		_i2c_write1ByteRegister
  8461 ;;		_i2c_read1ByteRegister
  8462 ;;		_i2c_read2ByteRegister
  8463 ;;		_i2c_write2ByteRegister
  8464 ;;		_i2c_readDataBlock
  8465 ;;		_I2C1_Read1ByteRegister
  8466 ;;		_I2C1_Read2ByteRegister
  8467 ;;		_I2C1_Write1ByteRegister
  8468 ;;		_I2C1_Write2ByteRegister
  8469 ;;		_I2C1_WriteNBytes
  8470 ;;		_I2C1_ReadNBytes
  8471 ;;		_I2C1_ReadDataBlock
  8472 ;; This function uses a non-reentrant model
  8473 ;;
  8474                           
  8475                           	psect	text69
  8476   003408                     __ptext69:
  8477                           	callstack 0
  8478   003408                     _I2C1_Close:
  8479                           	callstack 28
  8480   003408                     
  8481                           ;mcc_generated_files/i2c1_master.c: 239:     i2c1_error_t returnValue = I2C1_BUSY;
  8482   003408  0E01               	movlw	1
  8483   00340A  6E01               	movwf	I2C1_Close@returnValue^0,c
  8484   00340C                     
  8485                           ;mcc_generated_files/i2c1_master.c: 240:     if(!I2C1_Status.busy)
  8486   00340C  0100               	movlb	0	; () banked
  8487   00340E  B583               	btfsc	(_I2C1_Status+35)& (0+255),2,b
  8488   003410  EF0C  F01A         	goto	u1981
  8489   003414  EF0E  F01A         	goto	u1980
  8490   003418                     u1981:
  8491   003418  EF18  F01A         	goto	l3976
  8492   00341C                     u1980:
  8493   00341C                     
  8494                           ; BSR set to: 0
  8495                           ;mcc_generated_files/i2c1_master.c: 241:     {;mcc_generated_files/i2c1_master.c: 242:  
      +                                 I2C1_Status.inUse = 0;
  8496   00341C  9783               	bcf	(_I2C1_Status+35)& (0+255),3,b
  8497                           
  8498                           ;mcc_generated_files/i2c1_master.c: 243:         I2C1_Status.address = 0xff;
  8499   00341E  697C               	setf	(_I2C1_Status+28)& (0+255),b
  8500   003420                     
  8501                           ; BSR set to: 0
  8502                           ;mcc_generated_files/i2c1_master.c: 244:         I2C1_MasterClearIrq();
  8503   003420  EC87  F01B         	call	_I2C1_MasterClearIrq	;wreg free
  8504   003424                     
  8505                           ;mcc_generated_files/i2c1_master.c: 245:         I2C1_MasterDisableIrq();
  8506   003424  EC72  F01A         	call	_I2C1_MasterDisableIrq	;wreg free
  8507   003428                     
  8508                           ;mcc_generated_files/i2c1_master.c: 246:         I2C1_MasterClose();
  8509   003428  EC4F  F01B         	call	_I2C1_MasterClose	;wreg free
  8510   00342C                     
  8511                           ;mcc_generated_files/i2c1_master.c: 247:         returnValue = I2C1_Status.error;
  8512   00342C  C082  F001         	movff	_I2C1_Status+34,I2C1_Close@returnValue
  8513   003430                     l3976:
  8514                           
  8515                           ;mcc_generated_files/i2c1_master.c: 249:     return returnValue;
  8516   003430  5001               	movf	I2C1_Close@returnValue^0,w,c
  8517   003432  0012               	return		;funcret
  8518   003434                     __end_of_I2C1_Close:
  8519                           	callstack 0
  8520                           
  8521 ;; *************** function _I2C1_MasterDisableIrq *****************
  8522 ;; Defined at:
  8523 ;;		line 792 in file "mcc_generated_files/i2c1_master.c"
  8524 ;; Parameters:    Size  Location     Type
  8525 ;;		None
  8526 ;; Auto vars:     Size  Location     Type
  8527 ;;		None
  8528 ;; Return value:  Size  Location     Type
  8529 ;;                  1    wreg      void 
  8530 ;; Registers used:
  8531 ;;		None
  8532 ;; Tracked objects:
  8533 ;;		On entry : 0/0
  8534 ;;		On exit  : 0/0
  8535 ;;		Unchanged: 0/0
  8536 ;; Data sizes:     COMRAM   BANK0   BANK1   BANK2   BANK3   BANK4   BANK5   BANK6   BANK7   BANK8   BANK9  BANK10  BANK1
      +1  BANK12  BANK13  BANK14  BANK15
  8537 ;;      Params:         0       0       0       0       0       0       0       0       0       0       0       0       
      +0       0       0       0       0
  8538 ;;      Locals:         0       0       0       0       0       0       0       0       0       0       0       0       
      +0       0       0       0       0
  8539 ;;      Temps:          0       0       0       0       0       0       0       0       0       0       0       0       
      +0       0       0       0       0
  8540 ;;      Totals:         0       0       0       0       0       0       0       0       0       0       0       0       
      +0       0       0       0       0
  8541 ;;Total ram usage:        0 bytes
  8542 ;; Hardware stack levels used: 1
  8543 ;; This function calls:
  8544 ;;		Nothing
  8545 ;; This function is called by:
  8546 ;;		_I2C1_Close
  8547 ;;		_I2C1_SetTimeOut
  8548 ;; This function uses a non-reentrant model
  8549 ;;
  8550                           
  8551                           	psect	text70
  8552   0034E4                     __ptext70:
  8553                           	callstack 0
  8554   0034E4                     _I2C1_MasterDisableIrq:
  8555                           	callstack 28
  8556   0034E4                     
  8557                           ;mcc_generated_files/i2c1_master.c: 794:     PIE3bits.I2C1IE = 0;
  8558   0034E4  0139               	movlb	57	; () banked
  8559   0034E6  9393               	bcf	147,1,b	;volatile
  8560                           
  8561                           ;mcc_generated_files/i2c1_master.c: 795:     PIE3bits.I2C1EIE = 0;
  8562   0034E8  9593               	bcf	147,2,b	;volatile
  8563                           
  8564                           ;mcc_generated_files/i2c1_master.c: 796:     PIE2bits.I2C1RXIE = 0;
  8565   0034EA  9F92               	bcf	146,7,b	;volatile
  8566                           
  8567                           ;mcc_generated_files/i2c1_master.c: 797:     PIE3bits.I2C1TXIE = 0;
  8568   0034EC  9193               	bcf	147,0,b	;volatile
  8569                           
  8570                           ;mcc_generated_files/i2c1_master.c: 798:     I2C1PIEbits.SCIE = 0;
  8571   0034EE  013D               	movlb	61	; () banked
  8572   0034F0  917A               	bcf	122,0,b	;volatile
  8573                           
  8574                           ;mcc_generated_files/i2c1_master.c: 799:     I2C1PIEbits.PCIE = 0;
  8575   0034F2  957A               	bcf	122,2,b	;volatile
  8576                           
  8577                           ;mcc_generated_files/i2c1_master.c: 800:     I2C1PIEbits.CNTIE = 0;
  8578   0034F4  9F7A               	bcf	122,7,b	;volatile
  8579                           
  8580                           ;mcc_generated_files/i2c1_master.c: 801:     I2C1PIEbits.ACKTIE = 0;
  8581   0034F6  9D7A               	bcf	122,6,b	;volatile
  8582                           
  8583                           ;mcc_generated_files/i2c1_master.c: 802:     I2C1PIEbits.RSCIE = 0;
  8584   0034F8  937A               	bcf	122,1,b	;volatile
  8585                           
  8586                           ;mcc_generated_files/i2c1_master.c: 803:     I2C1ERRbits.BCLIE = 0;
  8587   0034FA  9376               	bcf	118,1,b	;volatile
  8588                           
  8589                           ;mcc_generated_files/i2c1_master.c: 804:     I2C1ERRbits.BTOIE = 0;
  8590   0034FC  9576               	bcf	118,2,b	;volatile
  8591                           
  8592                           ;mcc_generated_files/i2c1_master.c: 805:     I2C1ERRbits.NACKIE = 0;
  8593   0034FE  9176               	bcf	118,0,b	;volatile
  8594   003500                     
  8595                           ; BSR set to: 61
  8596   003500  0012               	return		;funcret
  8597   003502                     __end_of_I2C1_MasterDisableIrq:
  8598                           	callstack 0
  8599                           
  8600 ;; *************** function _I2C1_MasterClose *****************
  8601 ;; Defined at:
  8602 ;;		line 655 in file "mcc_generated_files/i2c1_master.c"
  8603 ;; Parameters:    Size  Location     Type
  8604 ;;		None
  8605 ;; Auto vars:     Size  Location     Type
  8606 ;;		None
  8607 ;; Return value:  Size  Location     Type
  8608 ;;                  1    wreg      void 
  8609 ;; Registers used:
  8610 ;;		wreg, status,2
  8611 ;; Tracked objects:
  8612 ;;		On entry : 0/0
  8613 ;;		On exit  : 0/0
  8614 ;;		Unchanged: 0/0
  8615 ;; Data sizes:     COMRAM   BANK0   BANK1   BANK2   BANK3   BANK4   BANK5   BANK6   BANK7   BANK8   BANK9  BANK10  BANK1
      +1  BANK12  BANK13  BANK14  BANK15
  8616 ;;      Params:         0       0       0       0       0       0       0       0       0       0       0       0       
      +0       0       0       0       0
  8617 ;;      Locals:         0       0       0       0       0       0       0       0       0       0       0       0       
      +0       0       0       0       0
  8618 ;;      Temps:          0       0       0       0       0       0       0       0       0       0       0       0       
      +0       0       0       0       0
  8619 ;;      Totals:         0       0       0       0       0       0       0       0       0       0       0       0       
      +0       0       0       0       0
  8620 ;;Total ram usage:        0 bytes
  8621 ;; Hardware stack levels used: 1
  8622 ;; This function calls:
  8623 ;;		Nothing
  8624 ;; This function is called by:
  8625 ;;		_I2C1_Close
  8626 ;; This function uses a non-reentrant model
  8627 ;;
  8628                           
  8629                           	psect	text71
  8630   00369E                     __ptext71:
  8631                           	callstack 0
  8632   00369E                     _I2C1_MasterClose:
  8633                           	callstack 28
  8634   00369E                     
  8635                           ;mcc_generated_files/i2c1_master.c: 658:     I2C1CON0bits.EN = 0;
  8636   00369E  013D               	movlb	61	; () banked
  8637   0036A0  9F73               	bcf	115,7,b	;volatile
  8638   0036A2                     
  8639                           ; BSR set to: 61
  8640                           ;mcc_generated_files/i2c1_master.c: 660:     I2C1PIR = 0x00;
  8641   0036A2  0E00               	movlw	0
  8642   0036A4  6F79               	movwf	121,b	;volatile
  8643   0036A6                     
  8644                           ; BSR set to: 61
  8645                           ;mcc_generated_files/i2c1_master.c: 662:     I2C1STAT1bits.CLRBF = 1;
  8646   0036A6  8578               	bsf	120,2,b	;volatile
  8647   0036A8                     
  8648                           ; BSR set to: 61
  8649   0036A8  0012               	return		;funcret
  8650   0036AA                     __end_of_I2C1_MasterClose:
  8651                           	callstack 0
  8652                           
  8653 ;; *************** function _I2C1_MasterClearIrq *****************
  8654 ;; Defined at:
  8655 ;;		line 808 in file "mcc_generated_files/i2c1_master.c"
  8656 ;; Parameters:    Size  Location     Type
  8657 ;;		None
  8658 ;; Auto vars:     Size  Location     Type
  8659 ;;		None
  8660 ;; Return value:  Size  Location     Type
  8661 ;;                  1    wreg      void 
  8662 ;; Registers used:
  8663 ;;		wreg, status,2
  8664 ;; Tracked objects:
  8665 ;;		On entry : 0/0
  8666 ;;		On exit  : 0/0
  8667 ;;		Unchanged: 0/0
  8668 ;; Data sizes:     COMRAM   BANK0   BANK1   BANK2   BANK3   BANK4   BANK5   BANK6   BANK7   BANK8   BANK9  BANK10  BANK1
      +1  BANK12  BANK13  BANK14  BANK15
  8669 ;;      Params:         0       0       0       0       0       0       0       0       0       0       0       0       
      +0       0       0       0       0
  8670 ;;      Locals:         0       0       0       0       0       0       0       0       0       0       0       0       
      +0       0       0       0       0
  8671 ;;      Temps:          0       0       0       0       0       0       0       0       0       0       0       0       
      +0       0       0       0       0
  8672 ;;      Totals:         0       0       0       0       0       0       0       0       0       0       0       0       
      +0       0       0       0       0
  8673 ;;Total ram usage:        0 bytes
  8674 ;; Hardware stack levels used: 1
  8675 ;; This function calls:
  8676 ;;		Nothing
  8677 ;; This function is called by:
  8678 ;;		_I2C1_Open
  8679 ;;		_I2C1_Close
  8680 ;;		_I2C1_DO_BUS_COLLISION
  8681 ;; This function uses a non-reentrant model
  8682 ;;
  8683                           
  8684                           	psect	text72
  8685   00370E                     __ptext72:
  8686                           	callstack 0
  8687   00370E                     _I2C1_MasterClearIrq:
  8688                           	callstack 28
  8689   00370E                     
  8690                           ;mcc_generated_files/i2c1_master.c: 810:     I2C1PIR = 0x00;
  8691   00370E  0E00               	movlw	0
  8692   003710  013D               	movlb	61	; () banked
  8693   003712  6F79               	movwf	121,b	;volatile
  8694   003714                     
  8695                           ; BSR set to: 61
  8696   003714  0012               	return		;funcret
  8697   003716                     __end_of_I2C1_MasterClearIrq:
  8698                           	callstack 0
  8699                           
  8700 ;; *************** function _cola_get *****************
  8701 ;; Defined at:
  8702 ;;		line 44 in file "cola.c"
  8703 ;; Parameters:    Size  Location     Type
  8704 ;;  c               2    4[COMRAM] PTR struct eCola
  8705 ;;		 -> main@cola(36), 
  8706 ;; Auto vars:     Size  Location     Type
  8707 ;;  temp            1    8[COMRAM] unsigned char 
  8708 ;; Return value:  Size  Location     Type
  8709 ;;                  1    wreg      unsigned char 
  8710 ;; Registers used:
  8711 ;;		wreg, fsr2l, fsr2h, status,2, status,0, cstack
  8712 ;; Tracked objects:
  8713 ;;		On entry : 0/0
  8714 ;;		On exit  : 0/0
  8715 ;;		Unchanged: 0/0
  8716 ;; Data sizes:     COMRAM   BANK0   BANK1   BANK2   BANK3   BANK4   BANK5   BANK6   BANK7   BANK8   BANK9  BANK10  BANK1
      +1  BANK12  BANK13  BANK14  BANK15
  8717 ;;      Params:         2       0       0       0       0       0       0       0       0       0       0       0       
      +0       0       0       0       0
  8718 ;;      Locals:         1       0       0       0       0       0       0       0       0       0       0       0       
      +0       0       0       0       0
  8719 ;;      Temps:          2       0       0       0       0       0       0       0       0       0       0       0       
      +0       0       0       0       0
  8720 ;;      Totals:         5       0       0       0       0       0       0       0       0       0       0       0       
      +0       0       0       0       0
  8721 ;;Total ram usage:        5 bytes
  8722 ;; Hardware stack levels used: 1
  8723 ;; Hardware stack levels required when called: 1
  8724 ;; This function calls:
  8725 ;;		_cola_vacia
  8726 ;; This function is called by:
  8727 ;;		_main
  8728 ;; This function uses a non-reentrant model
  8729 ;;
  8730                           
  8731                           	psect	text73
  8732   0027F0                     __ptext73:
  8733                           	callstack 0
  8734   0027F0                     _cola_get:
  8735                           	callstack 29
  8736   0027F0                     
  8737                           ;cola.c: 44: DATOCOLA cola_get(eCola* c);cola.c: 45: {;cola.c: 49:     DATOCOLA temp;;co
      +                          la.c: 50:     if(!cola_vacia(c)){
  8738   0027F0  C005  F001         	movff	cola_get@c,cola_vacia@c
  8739   0027F4  C006  F002         	movff	cola_get@c+1,cola_vacia@c+1
  8740   0027F8  ECCC  F018         	call	_cola_vacia	;wreg free
  8741   0027FC  5001               	movf	?_cola_vacia^0,w,c
  8742   0027FE  1002               	iorwf	(?_cola_vacia+1)^0,w,c
  8743   002800  A4D8               	btfss	status,2,c
  8744   002802  EF05  F014         	goto	u2181
  8745   002806  EF07  F014         	goto	u2180
  8746   00280A                     u2181:
  8747   00280A  EF2F  F014         	goto	l4170
  8748   00280E                     u2180:
  8749   00280E                     
  8750                           ;cola.c: 51:         temp=c->data[c->salida];
  8751   00280E  EE20 F020          	lfsr	2,32
  8752   002812  5005               	movf	cola_get@c^0,w,c
  8753   002814  26D9               	addwf	fsr2l,f,c
  8754   002816  5006               	movf	(cola_get@c+1)^0,w,c
  8755   002818  22DA               	addwfc	fsr2h,f,c
  8756   00281A  006F FF78  F007    	movff	postinc2,??_cola_get
  8757   002820  006F FF74  F008    	movff	postdec2,??_cola_get+1
  8758   002826  5007               	movf	??_cola_get^0,w,c
  8759   002828  2405               	addwf	cola_get@c^0,w,c
  8760   00282A  6ED9               	movwf	fsr2l,c
  8761   00282C  5008               	movf	(??_cola_get+1)^0,w,c
  8762   00282E  2006               	addwfc	(cola_get@c+1)^0,w,c
  8763   002830  6EDA               	movwf	fsr2h,c
  8764   002832  50DF               	movf	indf2,w,c
  8765   002834  6E09               	movwf	cola_get@temp^0,c
  8766                           
  8767                           ;cola.c: 52:         c->salida++;
  8768   002836  EE20 F020          	lfsr	2,32
  8769   00283A  5005               	movf	cola_get@c^0,w,c
  8770   00283C  26D9               	addwf	fsr2l,f,c
  8771   00283E  5006               	movf	(cola_get@c+1)^0,w,c
  8772   002840  22DA               	addwfc	fsr2h,f,c
  8773   002842  2ADE               	incf	postinc2,f,c
  8774   002844  0E00               	movlw	0
  8775   002846  22DD               	addwfc	postdec2,f,c
  8776                           
  8777                           ;cola.c: 53:         c->peso--;
  8778   002848  EE20 F022          	lfsr	2,34
  8779   00284C  5005               	movf	cola_get@c^0,w,c
  8780   00284E  26D9               	addwf	fsr2l,f,c
  8781   002850  5006               	movf	(cola_get@c+1)^0,w,c
  8782   002852  22DA               	addwfc	fsr2h,f,c
  8783   002854  06DE               	decf	postinc2,f,c
  8784   002856  0E00               	movlw	0
  8785   002858  5ADD               	subwfb	postdec2,f,c
  8786                           
  8787                           ;cola.c: 54:     }
  8788   00285A  EF32  F014         	goto	l4174
  8789   00285E                     l4170:
  8790                           
  8791                           ;cola.c: 56:     {;cola.c: 57:         return 1;
  8792   00285E  0E01               	movlw	1
  8793   002860  EF53  F014         	goto	l1073
  8794   002864                     l4174:
  8795                           
  8796                           ;cola.c: 61:     if (c->salida >=30)
  8797   002864  EE20 F020          	lfsr	2,32
  8798   002868  5005               	movf	cola_get@c^0,w,c
  8799   00286A  26D9               	addwf	fsr2l,f,c
  8800   00286C  5006               	movf	(cola_get@c+1)^0,w,c
  8801   00286E  22DA               	addwfc	fsr2h,f,c
  8802   002870  0E01               	movlw	1
  8803   002872  BEDB               	btfsc	plusw2,7,c
  8804   002874  EF46  F014         	goto	u2191
  8805   002878  0E01               	movlw	1
  8806   00287A  50DB               	movf	plusw2,w,c
  8807   00287C  E109               	bnz	u2190
  8808   00287E  0E1E               	movlw	30
  8809   002880  5CDE               	subwf	postinc2,w,c
  8810   002882  A0D8               	btfss	status,0,c
  8811   002884  EF46  F014         	goto	u2191
  8812   002888  EF48  F014         	goto	u2190
  8813   00288C                     u2191:
  8814   00288C  EF52  F014         	goto	l4178
  8815   002890                     u2190:
  8816   002890                     
  8817                           ;cola.c: 62:         c->salida=0;
  8818   002890  EE20 F020          	lfsr	2,32
  8819   002894  5005               	movf	cola_get@c^0,w,c
  8820   002896  26D9               	addwf	fsr2l,f,c
  8821   002898  5006               	movf	(cola_get@c+1)^0,w,c
  8822   00289A  22DA               	addwfc	fsr2h,f,c
  8823   00289C  0E00               	movlw	0
  8824   00289E  6EDE               	movwf	postinc2,c
  8825   0028A0  0E00               	movlw	0
  8826   0028A2  6EDD               	movwf	postdec2,c
  8827   0028A4                     l4178:
  8828                           
  8829                           ;cola.c: 63:     return temp;
  8830   0028A4  5009               	movf	cola_get@temp^0,w,c
  8831   0028A6                     l1073:
  8832   0028A6  0012               	return		;funcret
  8833   0028A8                     __end_of_cola_get:
  8834                           	callstack 0
  8835                           
  8836 ;; *************** function _cola_vacia *****************
  8837 ;; Defined at:
  8838 ;;		line 86 in file "cola.c"
  8839 ;; Parameters:    Size  Location     Type
  8840 ;;  c               2    0[COMRAM] PTR struct eCola
  8841 ;;		 -> main@cola(36), 
  8842 ;; Auto vars:     Size  Location     Type
  8843 ;;		None
  8844 ;; Return value:  Size  Location     Type
  8845 ;;                  2    0[COMRAM] int 
  8846 ;; Registers used:
  8847 ;;		wreg, fsr2l, fsr2h, status,2, status,0
  8848 ;; Tracked objects:
  8849 ;;		On entry : 0/0
  8850 ;;		On exit  : 0/0
  8851 ;;		Unchanged: 0/0
  8852 ;; Data sizes:     COMRAM   BANK0   BANK1   BANK2   BANK3   BANK4   BANK5   BANK6   BANK7   BANK8   BANK9  BANK10  BANK1
      +1  BANK12  BANK13  BANK14  BANK15
  8853 ;;      Params:         2       0       0       0       0       0       0       0       0       0       0       0       
      +0       0       0       0       0
  8854 ;;      Locals:         0       0       0       0       0       0       0       0       0       0       0       0       
      +0       0       0       0       0
  8855 ;;      Temps:          2       0       0       0       0       0       0       0       0       0       0       0       
      +0       0       0       0       0
  8856 ;;      Totals:         4       0       0       0       0       0       0       0       0       0       0       0       
      +0       0       0       0       0
  8857 ;;Total ram usage:        4 bytes
  8858 ;; Hardware stack levels used: 1
  8859 ;; This function calls:
  8860 ;;		Nothing
  8861 ;; This function is called by:
  8862 ;;		_cola_get
  8863 ;; This function uses a non-reentrant model
  8864 ;;
  8865                           
  8866                           	psect	text74
  8867   003198                     __ptext74:
  8868                           	callstack 0
  8869   003198                     _cola_vacia:
  8870                           	callstack 29
  8871   003198                     
  8872                           ;cola.c: 86: int cola_vacia(eCola* c);cola.c: 87: {;cola.c: 88:     if (c->peso<=0){
  8873   003198  EE20 F022          	lfsr	2,34
  8874   00319C  5001               	movf	cola_vacia@c^0,w,c
  8875   00319E  26D9               	addwf	fsr2l,f,c
  8876   0031A0  5002               	movf	(cola_vacia@c+1)^0,w,c
  8877   0031A2  22DA               	addwfc	fsr2h,f,c
  8878   0031A4  0E01               	movlw	1
  8879   0031A6  BEDB               	btfsc	plusw2,7,c
  8880   0031A8  EFE1  F018         	goto	u2000
  8881   0031AC  0E01               	movlw	1
  8882   0031AE  50DB               	movf	plusw2,w,c
  8883   0031B0  E106               	bnz	u2001
  8884   0031B2  04DE               	decf	postinc2,w,c
  8885   0031B4  B0D8               	btfsc	status,0,c
  8886   0031B6  EFDF  F018         	goto	u2001
  8887   0031BA  EFE1  F018         	goto	u2000
  8888   0031BE                     u2001:
  8889   0031BE  EFE7  F018         	goto	l4050
  8890   0031C2                     u2000:
  8891   0031C2                     
  8892                           ;cola.c: 89:         return 1;
  8893   0031C2  0E00               	movlw	0
  8894   0031C4  6E02               	movwf	(?_cola_vacia+1)^0,c
  8895   0031C6  0E01               	movlw	1
  8896   0031C8  6E01               	movwf	?_cola_vacia^0,c
  8897   0031CA  EFEB  F018         	goto	l1086
  8898   0031CE                     l4050:
  8899                           
  8900                           ;cola.c: 92:         return 0;
  8901   0031CE  0E00               	movlw	0
  8902   0031D0  6E02               	movwf	(?_cola_vacia+1)^0,c
  8903   0031D2  0E00               	movlw	0
  8904   0031D4  6E01               	movwf	?_cola_vacia^0,c
  8905   0031D6                     l1086:
  8906   0031D6  0012               	return		;funcret
  8907   0031D8                     __end_of_cola_vacia:
  8908                           	callstack 0
  8909                           
  8910 ;; *************** function _cola_add *****************
  8911 ;; Defined at:
  8912 ;;		line 19 in file "cola.c"
  8913 ;; Parameters:    Size  Location     Type
  8914 ;;  c               2    4[COMRAM] PTR struct eCola
  8915 ;;		 -> main@cola(36), 
  8916 ;;  dato            1    6[COMRAM] unsigned char 
  8917 ;; Auto vars:     Size  Location     Type
  8918 ;;		None
  8919 ;; Return value:  Size  Location     Type
  8920 ;;                  1    wreg      unsigned char 
  8921 ;; Registers used:
  8922 ;;		wreg, fsr2l, fsr2h, status,2, status,0, cstack
  8923 ;; Tracked objects:
  8924 ;;		On entry : 0/0
  8925 ;;		On exit  : 0/0
  8926 ;;		Unchanged: 0/0
  8927 ;; Data sizes:     COMRAM   BANK0   BANK1   BANK2   BANK3   BANK4   BANK5   BANK6   BANK7   BANK8   BANK9  BANK10  BANK1
      +1  BANK12  BANK13  BANK14  BANK15
  8928 ;;      Params:         3       0       0       0       0       0       0       0       0       0       0       0       
      +0       0       0       0       0
  8929 ;;      Locals:         0       0       0       0       0       0       0       0       0       0       0       0       
      +0       0       0       0       0
  8930 ;;      Temps:          2       0       0       0       0       0       0       0       0       0       0       0       
      +0       0       0       0       0
  8931 ;;      Totals:         5       0       0       0       0       0       0       0       0       0       0       0       
      +0       0       0       0       0
  8932 ;;Total ram usage:        5 bytes
  8933 ;; Hardware stack levels used: 1
  8934 ;; Hardware stack levels required when called: 1
  8935 ;; This function calls:
  8936 ;;		_cola_llena
  8937 ;; This function is called by:
  8938 ;;		_main
  8939 ;; This function uses a non-reentrant model
  8940 ;;
  8941                           
  8942                           	psect	text75
  8943   0028A8                     __ptext75:
  8944                           	callstack 0
  8945   0028A8                     _cola_add:
  8946                           	callstack 29
  8947   0028A8                     
  8948                           ;cola.c: 19: char cola_add(eCola* c,DATOCOLA dato);cola.c: 20: {;cola.c: 25:     if(!col
      +                          a_llena(c)){
  8949   0028A8  C005  F001         	movff	cola_add@c,cola_llena@c
  8950   0028AC  C006  F002         	movff	cola_add@c+1,cola_llena@c+1
  8951   0028B0  ECAB  F018         	call	_cola_llena	;wreg free
  8952   0028B4  5001               	movf	?_cola_llena^0,w,c
  8953   0028B6  1002               	iorwf	(?_cola_llena+1)^0,w,c
  8954   0028B8  A4D8               	btfss	status,2,c
  8955   0028BA  EF61  F014         	goto	u2161
  8956   0028BE  EF63  F014         	goto	u2160
  8957   0028C2                     u2161:
  8958   0028C2  EFAA  F014         	goto	l1067
  8959   0028C6                     u2160:
  8960   0028C6                     
  8961                           ;cola.c: 26:         c->data[c->entrada]=dato;
  8962   0028C6  EE20 F01E          	lfsr	2,30
  8963   0028CA  5005               	movf	cola_add@c^0,w,c
  8964   0028CC  26D9               	addwf	fsr2l,f,c
  8965   0028CE  5006               	movf	(cola_add@c+1)^0,w,c
  8966   0028D0  22DA               	addwfc	fsr2h,f,c
  8967   0028D2  006F FF78  F008    	movff	postinc2,??_cola_add
  8968   0028D8  006F FF74  F009    	movff	postdec2,??_cola_add+1
  8969   0028DE  5008               	movf	??_cola_add^0,w,c
  8970   0028E0  2405               	addwf	cola_add@c^0,w,c
  8971   0028E2  6ED9               	movwf	fsr2l,c
  8972   0028E4  5009               	movf	(??_cola_add+1)^0,w,c
  8973   0028E6  2006               	addwfc	(cola_add@c+1)^0,w,c
  8974   0028E8  6EDA               	movwf	fsr2h,c
  8975   0028EA  0060  F01F  FFDF   	movff	cola_add@dato,indf2
  8976                           
  8977                           ;cola.c: 27:         c->entrada++;
  8978   0028F0  EE20 F01E          	lfsr	2,30
  8979   0028F4  5005               	movf	cola_add@c^0,w,c
  8980   0028F6  26D9               	addwf	fsr2l,f,c
  8981   0028F8  5006               	movf	(cola_add@c+1)^0,w,c
  8982   0028FA  22DA               	addwfc	fsr2h,f,c
  8983   0028FC  2ADE               	incf	postinc2,f,c
  8984   0028FE  0E00               	movlw	0
  8985   002900  22DD               	addwfc	postdec2,f,c
  8986                           
  8987                           ;cola.c: 28:         c->peso++;
  8988   002902  EE20 F022          	lfsr	2,34
  8989   002906  5005               	movf	cola_add@c^0,w,c
  8990   002908  26D9               	addwf	fsr2l,f,c
  8991   00290A  5006               	movf	(cola_add@c+1)^0,w,c
  8992   00290C  22DA               	addwfc	fsr2h,f,c
  8993   00290E  2ADE               	incf	postinc2,f,c
  8994   002910  0E00               	movlw	0
  8995   002912  22DD               	addwfc	postdec2,f,c
  8996   002914                     
  8997                           ;cola.c: 36:     if (c->entrada >=30)
  8998   002914  EE20 F01E          	lfsr	2,30
  8999   002918  5005               	movf	cola_add@c^0,w,c
  9000   00291A  26D9               	addwf	fsr2l,f,c
  9001   00291C  5006               	movf	(cola_add@c+1)^0,w,c
  9002   00291E  22DA               	addwfc	fsr2h,f,c
  9003   002920  0E01               	movlw	1
  9004   002922  BEDB               	btfsc	plusw2,7,c
  9005   002924  EF9E  F014         	goto	u2171
  9006   002928  0E01               	movlw	1
  9007   00292A  50DB               	movf	plusw2,w,c
  9008   00292C  E109               	bnz	u2170
  9009   00292E  0E1E               	movlw	30
  9010   002930  5CDE               	subwf	postinc2,w,c
  9011   002932  A0D8               	btfss	status,0,c
  9012   002934  EF9E  F014         	goto	u2171
  9013   002938  EFA0  F014         	goto	u2170
  9014   00293C                     u2171:
  9015   00293C  EFAA  F014         	goto	l1067
  9016   002940                     u2170:
  9017   002940                     
  9018                           ;cola.c: 37:         c->entrada=0;
  9019   002940  EE20 F01E          	lfsr	2,30
  9020   002944  5005               	movf	cola_add@c^0,w,c
  9021   002946  26D9               	addwf	fsr2l,f,c
  9022   002948  5006               	movf	(cola_add@c+1)^0,w,c
  9023   00294A  22DA               	addwfc	fsr2h,f,c
  9024   00294C  0E00               	movlw	0
  9025   00294E  6EDE               	movwf	postinc2,c
  9026   002950  0E00               	movlw	0
  9027   002952  6EDD               	movwf	postdec2,c
  9028   002954                     l1067:
  9029   002954  0012               	return		;funcret
  9030   002956                     __end_of_cola_add:
  9031                           	callstack 0
  9032                           
  9033 ;; *************** function _cola_llena *****************
  9034 ;; Defined at:
  9035 ;;		line 76 in file "cola.c"
  9036 ;; Parameters:    Size  Location     Type
  9037 ;;  c               2    0[COMRAM] PTR struct eCola
  9038 ;;		 -> main@cola(36), 
  9039 ;; Auto vars:     Size  Location     Type
  9040 ;;		None
  9041 ;; Return value:  Size  Location     Type
  9042 ;;                  2    0[COMRAM] int 
  9043 ;; Registers used:
  9044 ;;		wreg, fsr2l, fsr2h, status,2, status,0
  9045 ;; Tracked objects:
  9046 ;;		On entry : 0/0
  9047 ;;		On exit  : 0/0
  9048 ;;		Unchanged: 0/0
  9049 ;; Data sizes:     COMRAM   BANK0   BANK1   BANK2   BANK3   BANK4   BANK5   BANK6   BANK7   BANK8   BANK9  BANK10  BANK1
      +1  BANK12  BANK13  BANK14  BANK15
  9050 ;;      Params:         2       0       0       0       0       0       0       0       0       0       0       0       
      +0       0       0       0       0
  9051 ;;      Locals:         0       0       0       0       0       0       0       0       0       0       0       0       
      +0       0       0       0       0
  9052 ;;      Temps:          2       0       0       0       0       0       0       0       0       0       0       0       
      +0       0       0       0       0
  9053 ;;      Totals:         4       0       0       0       0       0       0       0       0       0       0       0       
      +0       0       0       0       0
  9054 ;;Total ram usage:        4 bytes
  9055 ;; Hardware stack levels used: 1
  9056 ;; This function calls:
  9057 ;;		Nothing
  9058 ;; This function is called by:
  9059 ;;		_cola_add
  9060 ;; This function uses a non-reentrant model
  9061 ;;
  9062                           
  9063                           	psect	text76
  9064   003156                     __ptext76:
  9065                           	callstack 0
  9066   003156                     _cola_llena:
  9067                           	callstack 29
  9068   003156                     
  9069                           ;cola.c: 77:     if (c->peso>=30){
  9070   003156  EE20 F022          	lfsr	2,34
  9071   00315A  5001               	movf	cola_llena@c^0,w,c
  9072   00315C  26D9               	addwf	fsr2l,f,c
  9073   00315E  5002               	movf	(cola_llena@c+1)^0,w,c
  9074   003160  22DA               	addwfc	fsr2h,f,c
  9075   003162  0E01               	movlw	1
  9076   003164  BEDB               	btfsc	plusw2,7,c
  9077   003166  EFBF  F018         	goto	u1991
  9078   00316A  0E01               	movlw	1
  9079   00316C  50DB               	movf	plusw2,w,c
  9080   00316E  E109               	bnz	u1990
  9081   003170  0E1E               	movlw	30
  9082   003172  5CDE               	subwf	postinc2,w,c
  9083   003174  A0D8               	btfss	status,0,c
  9084   003176  EFBF  F018         	goto	u1991
  9085   00317A  EFC1  F018         	goto	u1990
  9086   00317E                     u1991:
  9087   00317E  EFC7  F018         	goto	l4038
  9088   003182                     u1990:
  9089   003182                     
  9090                           ;cola.c: 78:         return 1;
  9091   003182  0E00               	movlw	0
  9092   003184  6E02               	movwf	(?_cola_llena+1)^0,c
  9093   003186  0E01               	movlw	1
  9094   003188  6E01               	movwf	?_cola_llena^0,c
  9095   00318A  EFCB  F018         	goto	l1081
  9096   00318E                     l4038:
  9097                           
  9098                           ;cola.c: 81:         return 0;
  9099   00318E  0E00               	movlw	0
  9100   003190  6E02               	movwf	(?_cola_llena+1)^0,c
  9101   003192  0E00               	movlw	0
  9102   003194  6E01               	movwf	?_cola_llena^0,c
  9103   003196                     l1081:
  9104   003196  0012               	return		;funcret
  9105   003198                     __end_of_cola_llena:
  9106                           	callstack 0
  9107                           
  9108 ;; *************** function _UART1_is_rx_ready *****************
  9109 ;; Defined at:
  9110 ;;		line 126 in file "mcc_generated_files/uart1.c"
  9111 ;; Parameters:    Size  Location     Type
  9112 ;;		None
  9113 ;; Auto vars:     Size  Location     Type
  9114 ;;		None
  9115 ;; Return value:  Size  Location     Type
  9116 ;;                  1    wreg      _Bool 
  9117 ;; Registers used:
  9118 ;;		wreg
  9119 ;; Tracked objects:
  9120 ;;		On entry : 0/0
  9121 ;;		On exit  : 0/0
  9122 ;;		Unchanged: 0/0
  9123 ;; Data sizes:     COMRAM   BANK0   BANK1   BANK2   BANK3   BANK4   BANK5   BANK6   BANK7   BANK8   BANK9  BANK10  BANK1
      +1  BANK12  BANK13  BANK14  BANK15
  9124 ;;      Params:         0       0       0       0       0       0       0       0       0       0       0       0       
      +0       0       0       0       0
  9125 ;;      Locals:         0       0       0       0       0       0       0       0       0       0       0       0       
      +0       0       0       0       0
  9126 ;;      Temps:          0       0       0       0       0       0       0       0       0       0       0       0       
      +0       0       0       0       0
  9127 ;;      Totals:         0       0       0       0       0       0       0       0       0       0       0       0       
      +0       0       0       0       0
  9128 ;;Total ram usage:        0 bytes
  9129 ;; Hardware stack levels used: 1
  9130 ;; This function calls:
  9131 ;;		Nothing
  9132 ;; This function is called by:
  9133 ;;		_main
  9134 ;; This function uses a non-reentrant model
  9135 ;;
  9136                           
  9137                           	psect	text77
  9138   003618                     __ptext77:
  9139                           	callstack 0
  9140   003618                     _UART1_is_rx_ready:
  9141                           	callstack 30
  9142   003618                     
  9143                           ;mcc_generated_files/uart1.c: 128:     return (_Bool)(PIR3bits.U1RXIF);
  9144   003618  0139               	movlb	57	; () banked
  9145   00361A  B7A3               	btfsc	163,3,b	;volatile
  9146   00361C  EF12  F01B         	goto	u2051
  9147   003620  EF15  F01B         	goto	u2050
  9148   003624                     u2051:
  9149   003624  0E01               	movlw	1
  9150   003626  EF16  F01B         	goto	u2056
  9151   00362A                     u2050:
  9152   00362A  0E00               	movlw	0
  9153   00362C                     u2056:
  9154   00362C                     
  9155                           ; BSR set to: 57
  9156   00362C  0012               	return		;funcret
  9157   00362E                     __end_of_UART1_is_rx_ready:
  9158                           	callstack 0
  9159                           
  9160 ;; *************** function _UART1_Write *****************
  9161 ;; Defined at:
  9162 ;;		line 170 in file "mcc_generated_files/uart1.c"
  9163 ;; Parameters:    Size  Location     Type
  9164 ;;  txData          1    wreg     unsigned char 
  9165 ;; Auto vars:     Size  Location     Type
  9166 ;;  txData          1    0[COMRAM] unsigned char 
  9167 ;; Return value:  Size  Location     Type
  9168 ;;                  1    wreg      void 
  9169 ;; Registers used:
  9170 ;;		wreg
  9171 ;; Tracked objects:
  9172 ;;		On entry : 0/0
  9173 ;;		On exit  : 0/0
  9174 ;;		Unchanged: 0/0
  9175 ;; Data sizes:     COMRAM   BANK0   BANK1   BANK2   BANK3   BANK4   BANK5   BANK6   BANK7   BANK8   BANK9  BANK10  BANK1
      +1  BANK12  BANK13  BANK14  BANK15
  9176 ;;      Params:         0       0       0       0       0       0       0       0       0       0       0       0       
      +0       0       0       0       0
  9177 ;;      Locals:         1       0       0       0       0       0       0       0       0       0       0       0       
      +0       0       0       0       0
  9178 ;;      Temps:          0       0       0       0       0       0       0       0       0       0       0       0       
      +0       0       0       0       0
  9179 ;;      Totals:         1       0       0       0       0       0       0       0       0       0       0       0       
      +0       0       0       0       0
  9180 ;;Total ram usage:        1 bytes
  9181 ;; Hardware stack levels used: 1
  9182 ;; This function calls:
  9183 ;;		Nothing
  9184 ;; This function is called by:
  9185 ;;		_main
  9186 ;; This function uses a non-reentrant model
  9187 ;;
  9188                           
  9189                           	psect	text78
  9190   00351C                     __ptext78:
  9191                           	callstack 0
  9192   00351C                     _UART1_Write:
  9193                           	callstack 30
  9194                           
  9195                           ; BSR set to: 57
  9196                           ;incstack = 0
  9197                           ;UART1_Write@txData stored from wreg
  9198   00351C  6E01               	movwf	UART1_Write@txData^0,c
  9199   00351E                     l305:
  9200                           
  9201                           ;mcc_generated_files/uart1.c: 172:     while(0 == PIR3bits.U1TXIF)
  9202   00351E  0139               	movlb	57	; () banked
  9203   003520  A9A3               	btfss	163,4,b	;volatile
  9204   003522  EF95  F01A         	goto	u2131
  9205   003526  EF97  F01A         	goto	u2130
  9206   00352A                     u2131:
  9207   00352A  EF8F  F01A         	goto	l305
  9208   00352E                     u2130:
  9209   00352E                     
  9210                           ; BSR set to: 57
  9211                           ;mcc_generated_files/uart1.c: 176:     U1TXB = txData;
  9212   00352E  0060  F007  FDEA   	movff	UART1_Write@txData,15850	;volatile
  9213   003534                     
  9214                           ; BSR set to: 57
  9215   003534  0012               	return		;funcret
  9216   003536                     __end_of_UART1_Write:
  9217                           	callstack 0
  9218                           
  9219 ;; *************** function _UART1_Read *****************
  9220 ;; Defined at:
  9221 ;;		line 145 in file "mcc_generated_files/uart1.c"
  9222 ;; Parameters:    Size  Location     Type
  9223 ;;		None
  9224 ;; Auto vars:     Size  Location     Type
  9225 ;;		None
  9226 ;; Return value:  Size  Location     Type
  9227 ;;                  1    wreg      unsigned char 
  9228 ;; Registers used:
  9229 ;;		wreg, status,2, pcl, pclath, pclatu, tosl, cstack
  9230 ;; Tracked objects:
  9231 ;;		On entry : 0/0
  9232 ;;		On exit  : 0/0
  9233 ;;		Unchanged: 0/0
  9234 ;; Data sizes:     COMRAM   BANK0   BANK1   BANK2   BANK3   BANK4   BANK5   BANK6   BANK7   BANK8   BANK9  BANK10  BANK1
      +1  BANK12  BANK13  BANK14  BANK15
  9235 ;;      Params:         0       0       0       0       0       0       0       0       0       0       0       0       
      +0       0       0       0       0
  9236 ;;      Locals:         0       0       0       0       0       0       0       0       0       0       0       0       
      +0       0       0       0       0
  9237 ;;      Temps:          0       0       0       0       0       0       0       0       0       0       0       0       
      +0       0       0       0       0
  9238 ;;      Totals:         0       0       0       0       0       0       0       0       0       0       0       0       
      +0       0       0       0       0
  9239 ;;Total ram usage:        0 bytes
  9240 ;; Hardware stack levels used: 1
  9241 ;; Hardware stack levels required when called: 1
  9242 ;; This function calls:
  9243 ;;		Absolute function
  9244 ;;		_UART1_DefaultErrorHandler
  9245 ;;		_UART1_DefaultFramingErrorHandler
  9246 ;;		_UART1_DefaultOverrunErrorHandler
  9247 ;; This function is called by:
  9248 ;;		_main
  9249 ;; This function uses a non-reentrant model
  9250 ;;
  9251                           
  9252                           	psect	text79
  9253   002B3E                     __ptext79:
  9254                           	callstack 0
  9255   002B3E                     _UART1_Read:
  9256                           	callstack 29
  9257   002B3E                     l296:
  9258                           
  9259                           ;mcc_generated_files/uart1.c: 147:     while(!PIR3bits.U1RXIF)
  9260   002B3E  0139               	movlb	57	; () banked
  9261   002B40  A7A3               	btfss	163,3,b	;volatile
  9262   002B42  EFA5  F015         	goto	u2061
  9263   002B46  EFA7  F015         	goto	u2060
  9264   002B4A                     u2061:
  9265   002B4A  EF9F  F015         	goto	l296
  9266   002B4E                     u2060:
  9267   002B4E                     
  9268                           ; BSR set to: 57
  9269                           ;mcc_generated_files/uart1.c: 151:     uart1RxLastError.status = 0;
  9270   002B4E  0E00               	movlw	0
  9271   002B50  6E5E               	movwf	_uart1RxLastError^0,c	;volatile
  9272   002B52                     
  9273                           ; BSR set to: 57
  9274                           ;mcc_generated_files/uart1.c: 153:     if(U1ERRIRbits.FERIF){
  9275   002B52  013D               	movlb	61	; () banked
  9276   002B54  A7F9               	btfss	249,3,b	;volatile
  9277   002B56  EFAF  F015         	goto	u2071
  9278   002B5A  EFB1  F015         	goto	u2070
  9279   002B5E                     u2071:
  9280   002B5E  EFBE  F015         	goto	l4090
  9281   002B62                     u2070:
  9282   002B62                     
  9283                           ; BSR set to: 61
  9284                           ;mcc_generated_files/uart1.c: 154:         uart1RxLastError.ferr = 1;
  9285   002B62  825E               	bsf	_uart1RxLastError^0,1,c	;volatile
  9286   002B64                     
  9287                           ; BSR set to: 61
  9288                           ;mcc_generated_files/uart1.c: 155:         UART1_FramingErrorHandler();
  9289   002B64  D802               	call	u2088
  9290   002B66  EFBE  F015         	goto	u2089
  9291   002B6A                     u2088:
  9292   002B6A  0005               	push	
  9293   002B6C  6EFA               	movwf	pclath,c
  9294   002B6E  505C               	movf	_UART1_FramingErrorHandler^0,w,c
  9295   002B70  6EFD               	movwf	tosl,c
  9296   002B72  505D               	movf	(_UART1_FramingErrorHandler+1)^0,w,c
  9297   002B74  6EFE               	movwf	tosh,c
  9298   002B76  6AFF               	clrf	tosu,c
  9299   002B78  50FA               	movf	pclath,w,c
  9300   002B7A  0012               	return		;indir
  9301   002B7C                     u2089:
  9302   002B7C                     l4090:
  9303                           
  9304                           ;mcc_generated_files/uart1.c: 158:     if(U1ERRIRbits.RXFOIF){
  9305   002B7C  013D               	movlb	61	; () banked
  9306   002B7E  A3F9               	btfss	249,1,b	;volatile
  9307   002B80  EFC4  F015         	goto	u2091
  9308   002B84  EFC6  F015         	goto	u2090
  9309   002B88                     u2091:
  9310   002B88  EFD3  F015         	goto	l4096
  9311   002B8C                     u2090:
  9312   002B8C                     
  9313                           ; BSR set to: 61
  9314                           ;mcc_generated_files/uart1.c: 159:         uart1RxLastError.oerr = 1;
  9315   002B8C  845E               	bsf	_uart1RxLastError^0,2,c	;volatile
  9316   002B8E                     
  9317                           ; BSR set to: 61
  9318                           ;mcc_generated_files/uart1.c: 160:         UART1_OverrunErrorHandler();
  9319   002B8E  D802               	call	u2108
  9320   002B90  EFD3  F015         	goto	u2109
  9321   002B94                     u2108:
  9322   002B94  0005               	push	
  9323   002B96  6EFA               	movwf	pclath,c
  9324   002B98  505A               	movf	_UART1_OverrunErrorHandler^0,w,c
  9325   002B9A  6EFD               	movwf	tosl,c
  9326   002B9C  505B               	movf	(_UART1_OverrunErrorHandler+1)^0,w,c
  9327   002B9E  6EFE               	movwf	tosh,c
  9328   002BA0  6AFF               	clrf	tosu,c
  9329   002BA2  50FA               	movf	pclath,w,c
  9330   002BA4  0012               	return		;indir
  9331   002BA6                     u2109:
  9332   002BA6                     l4096:
  9333                           
  9334                           ;mcc_generated_files/uart1.c: 163:     if(uart1RxLastError.status){
  9335   002BA6  505E               	movf	_uart1RxLastError^0,w,c	;volatile
  9336   002BA8  B4D8               	btfsc	status,2,c
  9337   002BAA  EFD9  F015         	goto	u2111
  9338   002BAE  EFDB  F015         	goto	u2110
  9339   002BB2                     u2111:
  9340   002BB2  EFE8  F015         	goto	l4100
  9341   002BB6                     u2110:
  9342   002BB6                     
  9343                           ;mcc_generated_files/uart1.c: 164:         UART1_ErrorHandler();
  9344   002BB6  D802               	call	u2128
  9345   002BB8  EFE8  F015         	goto	u2129
  9346   002BBC                     u2128:
  9347   002BBC  0005               	push	
  9348   002BBE  6EFA               	movwf	pclath,c
  9349   002BC0  0100               	movlb	0	; () banked
  9350   002BC2  51B8               	movf	_UART1_ErrorHandler& (0+255),w,b
  9351   002BC4  6EFD               	movwf	tosl,c
  9352   002BC6  51B9               	movf	(_UART1_ErrorHandler+1)& (0+255),w,b
  9353   002BC8  6EFE               	movwf	tosh,c
  9354   002BCA  6AFF               	clrf	tosu,c
  9355   002BCC  50FA               	movf	pclath,w,c
  9356   002BCE  0012               	return		;indir
  9357   002BD0                     u2129:
  9358   002BD0                     l4100:
  9359                           
  9360                           ;mcc_generated_files/uart1.c: 167:     return U1RXB;
  9361   002BD0  013D               	movlb	61	; () banked
  9362   002BD2  51E8               	movf	232,w,b	;volatile
  9363   002BD4                     
  9364                           ; BSR set to: 61
  9365   002BD4  0012               	return		;funcret
  9366   002BD6                     __end_of_UART1_Read:
  9367                           	callstack 0
  9368                           
  9369 ;; *************** function _UART1_DefaultOverrunErrorHandler *****************
  9370 ;; Defined at:
  9371 ;;		line 185 in file "mcc_generated_files/uart1.c"
  9372 ;; Parameters:    Size  Location     Type
  9373 ;;		None
  9374 ;; Auto vars:     Size  Location     Type
  9375 ;;		None
  9376 ;; Return value:  Size  Location     Type
  9377 ;;                  1    wreg      void 
  9378 ;; Registers used:
  9379 ;;		None
  9380 ;; Tracked objects:
  9381 ;;		On entry : 0/0
  9382 ;;		On exit  : 0/0
  9383 ;;		Unchanged: 0/0
  9384 ;; Data sizes:     COMRAM   BANK0   BANK1   BANK2   BANK3   BANK4   BANK5   BANK6   BANK7   BANK8   BANK9  BANK10  BANK1
      +1  BANK12  BANK13  BANK14  BANK15
  9385 ;;      Params:         0       0       0       0       0       0       0       0       0       0       0       0       
      +0       0       0       0       0
  9386 ;;      Locals:         0       0       0       0       0       0       0       0       0       0       0       0       
      +0       0       0       0       0
  9387 ;;      Temps:          0       0       0       0       0       0       0       0       0       0       0       0       
      +0       0       0       0       0
  9388 ;;      Totals:         0       0       0       0       0       0       0       0       0       0       0       0       
      +0       0       0       0       0
  9389 ;;Total ram usage:        0 bytes
  9390 ;; Hardware stack levels used: 1
  9391 ;; This function calls:
  9392 ;;		Nothing
  9393 ;; This function is called by:
  9394 ;;		_UART1_Initialize
  9395 ;;		_UART1_Read
  9396 ;; This function uses a non-reentrant model
  9397 ;;
  9398                           
  9399                           	psect	text80
  9400   003762                     __ptext80:
  9401                           	callstack 0
  9402   003762                     _UART1_DefaultOverrunErrorHandler:
  9403                           	callstack 29
  9404   003762  0012               	return		;funcret
  9405   003764                     __end_of_UART1_DefaultOverrunErrorHandler:
  9406                           	callstack 0
  9407                           
  9408 ;; *************** function _UART1_DefaultFramingErrorHandler *****************
  9409 ;; Defined at:
  9410 ;;		line 183 in file "mcc_generated_files/uart1.c"
  9411 ;; Parameters:    Size  Location     Type
  9412 ;;		None
  9413 ;; Auto vars:     Size  Location     Type
  9414 ;;		None
  9415 ;; Return value:  Size  Location     Type
  9416 ;;                  1    wreg      void 
  9417 ;; Registers used:
  9418 ;;		None
  9419 ;; Tracked objects:
  9420 ;;		On entry : 0/0
  9421 ;;		On exit  : 0/0
  9422 ;;		Unchanged: 0/0
  9423 ;; Data sizes:     COMRAM   BANK0   BANK1   BANK2   BANK3   BANK4   BANK5   BANK6   BANK7   BANK8   BANK9  BANK10  BANK1
      +1  BANK12  BANK13  BANK14  BANK15
  9424 ;;      Params:         0       0       0       0       0       0       0       0       0       0       0       0       
      +0       0       0       0       0
  9425 ;;      Locals:         0       0       0       0       0       0       0       0       0       0       0       0       
      +0       0       0       0       0
  9426 ;;      Temps:          0       0       0       0       0       0       0       0       0       0       0       0       
      +0       0       0       0       0
  9427 ;;      Totals:         0       0       0       0       0       0       0       0       0       0       0       0       
      +0       0       0       0       0
  9428 ;;Total ram usage:        0 bytes
  9429 ;; Hardware stack levels used: 1
  9430 ;; This function calls:
  9431 ;;		Nothing
  9432 ;; This function is called by:
  9433 ;;		_UART1_Initialize
  9434 ;;		_UART1_Read
  9435 ;; This function uses a non-reentrant model
  9436 ;;
  9437                           
  9438                           	psect	text81
  9439   003764                     __ptext81:
  9440                           	callstack 0
  9441   003764                     _UART1_DefaultFramingErrorHandler:
  9442                           	callstack 29
  9443   003764  0012               	return		;funcret
  9444   003766                     __end_of_UART1_DefaultFramingErrorHandler:
  9445                           	callstack 0
  9446                           
  9447 ;; *************** function _UART1_DefaultErrorHandler *****************
  9448 ;; Defined at:
  9449 ;;		line 187 in file "mcc_generated_files/uart1.c"
  9450 ;; Parameters:    Size  Location     Type
  9451 ;;		None
  9452 ;; Auto vars:     Size  Location     Type
  9453 ;;		None
  9454 ;; Return value:  Size  Location     Type
  9455 ;;                  1    wreg      void 
  9456 ;; Registers used:
  9457 ;;		None
  9458 ;; Tracked objects:
  9459 ;;		On entry : 0/0
  9460 ;;		On exit  : 0/0
  9461 ;;		Unchanged: 0/0
  9462 ;; Data sizes:     COMRAM   BANK0   BANK1   BANK2   BANK3   BANK4   BANK5   BANK6   BANK7   BANK8   BANK9  BANK10  BANK1
      +1  BANK12  BANK13  BANK14  BANK15
  9463 ;;      Params:         0       0       0       0       0       0       0       0       0       0       0       0       
      +0       0       0       0       0
  9464 ;;      Locals:         0       0       0       0       0       0       0       0       0       0       0       0       
      +0       0       0       0       0
  9465 ;;      Temps:          0       0       0       0       0       0       0       0       0       0       0       0       
      +0       0       0       0       0
  9466 ;;      Totals:         0       0       0       0       0       0       0       0       0       0       0       0       
      +0       0       0       0       0
  9467 ;;Total ram usage:        0 bytes
  9468 ;; Hardware stack levels used: 1
  9469 ;; This function calls:
  9470 ;;		Nothing
  9471 ;; This function is called by:
  9472 ;;		_UART1_Initialize
  9473 ;;		_UART1_Read
  9474 ;; This function uses a non-reentrant model
  9475 ;;
  9476                           
  9477                           	psect	text82
  9478   003766                     __ptext82:
  9479                           	callstack 0
  9480   003766                     _UART1_DefaultErrorHandler:
  9481                           	callstack 29
  9482   003766  0012               	return		;funcret
  9483   003768                     __end_of_UART1_DefaultErrorHandler:
  9484                           	callstack 0
  9485                           
  9486 ;; *************** function _SYSTEM_Initialize *****************
  9487 ;; Defined at:
  9488 ;;		line 50 in file "mcc_generated_files/mcc.c"
  9489 ;; Parameters:    Size  Location     Type
  9490 ;;		None
  9491 ;; Auto vars:     Size  Location     Type
  9492 ;;		None
  9493 ;; Return value:  Size  Location     Type
  9494 ;;                  1    wreg      void 
  9495 ;; Registers used:
  9496 ;;		wreg, status,2, status,0, cstack
  9497 ;; Tracked objects:
  9498 ;;		On entry : 0/0
  9499 ;;		On exit  : 0/0
  9500 ;;		Unchanged: 0/0
  9501 ;; Data sizes:     COMRAM   BANK0   BANK1   BANK2   BANK3   BANK4   BANK5   BANK6   BANK7   BANK8   BANK9  BANK10  BANK1
      +1  BANK12  BANK13  BANK14  BANK15
  9502 ;;      Params:         0       0       0       0       0       0       0       0       0       0       0       0       
      +0       0       0       0       0
  9503 ;;      Locals:         0       0       0       0       0       0       0       0       0       0       0       0       
      +0       0       0       0       0
  9504 ;;      Temps:          0       0       0       0       0       0       0       0       0       0       0       0       
      +0       0       0       0       0
  9505 ;;      Totals:         0       0       0       0       0       0       0       0       0       0       0       0       
      +0       0       0       0       0
  9506 ;;Total ram usage:        0 bytes
  9507 ;; Hardware stack levels used: 1
  9508 ;; Hardware stack levels required when called: 2
  9509 ;; This function calls:
  9510 ;;		_I2C1_Initialize
  9511 ;;		_OSCILLATOR_Initialize
  9512 ;;		_PIN_MANAGER_Initialize
  9513 ;;		_PMD_Initialize
  9514 ;;		_UART1_Initialize
  9515 ;; This function is called by:
  9516 ;;		_main
  9517 ;; This function uses a non-reentrant model
  9518 ;;
  9519                           
  9520                           	psect	text83
  9521   00362E                     __ptext83:
  9522                           	callstack 0
  9523   00362E                     _SYSTEM_Initialize:
  9524                           	callstack 28
  9525   00362E                     
  9526                           ;mcc_generated_files/mcc.c: 52:     PMD_Initialize();
  9527   00362E  EC40  F01A         	call	_PMD_Initialize	;wreg free
  9528                           
  9529                           ;mcc_generated_files/mcc.c: 53:     I2C1_Initialize();
  9530   003632  EC52  F01A         	call	_I2C1_Initialize	;wreg free
  9531                           
  9532                           ;mcc_generated_files/mcc.c: 54:     PIN_MANAGER_Initialize();
  9533   003636  ECAB  F014         	call	_PIN_MANAGER_Initialize	;wreg free
  9534                           
  9535                           ;mcc_generated_files/mcc.c: 55:     OSCILLATOR_Initialize();
  9536   00363A  ECB3  F01A         	call	_OSCILLATOR_Initialize	;wreg free
  9537   00363E                     
  9538                           ;mcc_generated_files/mcc.c: 56:     UART1_Initialize();
  9539   00363E  EC5B  F017         	call	_UART1_Initialize	;wreg free
  9540   003642  0012               	return		;funcret
  9541   003644                     __end_of_SYSTEM_Initialize:
  9542                           	callstack 0
  9543                           
  9544 ;; *************** function _UART1_Initialize *****************
  9545 ;; Defined at:
  9546 ;;		line 66 in file "mcc_generated_files/uart1.c"
  9547 ;; Parameters:    Size  Location     Type
  9548 ;;		None
  9549 ;; Auto vars:     Size  Location     Type
  9550 ;;		None
  9551 ;; Return value:  Size  Location     Type
  9552 ;;                  1    wreg      void 
  9553 ;; Registers used:
  9554 ;;		wreg, status,2, status,0, cstack
  9555 ;; Tracked objects:
  9556 ;;		On entry : 0/0
  9557 ;;		On exit  : 0/0
  9558 ;;		Unchanged: 0/0
  9559 ;; Data sizes:     COMRAM   BANK0   BANK1   BANK2   BANK3   BANK4   BANK5   BANK6   BANK7   BANK8   BANK9  BANK10  BANK1
      +1  BANK12  BANK13  BANK14  BANK15
  9560 ;;      Params:         0       0       0       0       0       0       0       0       0       0       0       0       
      +0       0       0       0       0
  9561 ;;      Locals:         0       0       0       0       0       0       0       0       0       0       0       0       
      +0       0       0       0       0
  9562 ;;      Temps:          0       0       0       0       0       0       0       0       0       0       0       0       
      +0       0       0       0       0
  9563 ;;      Totals:         0       0       0       0       0       0       0       0       0       0       0       0       
      +0       0       0       0       0
  9564 ;;Total ram usage:        0 bytes
  9565 ;; Hardware stack levels used: 1
  9566 ;; Hardware stack levels required when called: 1
  9567 ;; This function calls:
  9568 ;;		_UART1_SetErrorHandler
  9569 ;;		_UART1_SetFramingErrorHandler
  9570 ;;		_UART1_SetOverrunErrorHandler
  9571 ;; This function is called by:
  9572 ;;		_SYSTEM_Initialize
  9573 ;; This function uses a non-reentrant model
  9574 ;;
  9575                           
  9576                           	psect	text84
  9577   002EB6                     __ptext84:
  9578                           	callstack 0
  9579   002EB6                     _UART1_Initialize:
  9580                           	callstack 28
  9581   002EB6                     
  9582                           ;mcc_generated_files/uart1.c: 73:     U1P1L = 0x00;
  9583   002EB6  0E00               	movlw	0
  9584   002EB8  013D               	movlb	61	; () banked
  9585   002EBA  6FEC               	movwf	236,b	;volatile
  9586                           
  9587                           ;mcc_generated_files/uart1.c: 76:     U1P1H = 0x00;
  9588   002EBC  0E00               	movlw	0
  9589   002EBE  6FED               	movwf	237,b	;volatile
  9590                           
  9591                           ;mcc_generated_files/uart1.c: 79:     U1P2L = 0x00;
  9592   002EC0  0E00               	movlw	0
  9593   002EC2  6FEE               	movwf	238,b	;volatile
  9594                           
  9595                           ;mcc_generated_files/uart1.c: 82:     U1P2H = 0x00;
  9596   002EC4  0E00               	movlw	0
  9597   002EC6  6FEF               	movwf	239,b	;volatile
  9598                           
  9599                           ;mcc_generated_files/uart1.c: 85:     U1P3L = 0x00;
  9600   002EC8  0E00               	movlw	0
  9601   002ECA  6FF0               	movwf	240,b	;volatile
  9602                           
  9603                           ;mcc_generated_files/uart1.c: 88:     U1P3H = 0x00;
  9604   002ECC  0E00               	movlw	0
  9605   002ECE  6FF1               	movwf	241,b	;volatile
  9606                           
  9607                           ;mcc_generated_files/uart1.c: 91:     U1CON0 = 0xB0;
  9608   002ED0  0EB0               	movlw	176
  9609   002ED2  6FF2               	movwf	242,b	;volatile
  9610                           
  9611                           ;mcc_generated_files/uart1.c: 94:     U1CON1 = 0x80;
  9612   002ED4  0E80               	movlw	128
  9613   002ED6  6FF3               	movwf	243,b	;volatile
  9614                           
  9615                           ;mcc_generated_files/uart1.c: 97:     U1CON2 = 0x00;
  9616   002ED8  0E00               	movlw	0
  9617   002EDA  6FF4               	movwf	244,b	;volatile
  9618                           
  9619                           ;mcc_generated_files/uart1.c: 100:     U1BRGL = 0xCF;
  9620   002EDC  0ECF               	movlw	207
  9621   002EDE  6FF5               	movwf	245,b	;volatile
  9622                           
  9623                           ;mcc_generated_files/uart1.c: 103:     U1BRGH = 0x00;
  9624   002EE0  0E00               	movlw	0
  9625   002EE2  6FF6               	movwf	246,b	;volatile
  9626                           
  9627                           ;mcc_generated_files/uart1.c: 106:     U1FIFO = 0x00;
  9628   002EE4  0E00               	movlw	0
  9629   002EE6  6FF7               	movwf	247,b	;volatile
  9630                           
  9631                           ;mcc_generated_files/uart1.c: 109:     U1UIR = 0x00;
  9632   002EE8  0E00               	movlw	0
  9633   002EEA  6FF8               	movwf	248,b	;volatile
  9634                           
  9635                           ;mcc_generated_files/uart1.c: 112:     U1ERRIR = 0x00;
  9636   002EEC  0E00               	movlw	0
  9637   002EEE  6FF9               	movwf	249,b	;volatile
  9638                           
  9639                           ;mcc_generated_files/uart1.c: 115:     U1ERRIE = 0x00;
  9640   002EF0  0E00               	movlw	0
  9641   002EF2  6FFA               	movwf	250,b	;volatile
  9642   002EF4                     
  9643                           ; BSR set to: 61
  9644                           ;mcc_generated_files/uart1.c: 118:     UART1_SetFramingErrorHandler(UART1_DefaultFraming
      +                          ErrorHandler);
  9645   002EF4  0E64               	movlw	low _UART1_DefaultFramingErrorHandler
  9646   002EF6  6E01               	movwf	UART1_SetFramingErrorHandler@interruptHandler^0,c
  9647   002EF8  0E37               	movlw	high _UART1_DefaultFramingErrorHandler
  9648   002EFA  6E02               	movwf	(UART1_SetFramingErrorHandler@interruptHandler+1)^0,c
  9649   002EFC  EC69  F01B         	call	_UART1_SetFramingErrorHandler	;wreg free
  9650   002F00                     
  9651                           ;mcc_generated_files/uart1.c: 119:     UART1_SetOverrunErrorHandler(UART1_DefaultOverrun
      +                          ErrorHandler);
  9652   002F00  0E62               	movlw	low _UART1_DefaultOverrunErrorHandler
  9653   002F02  6E01               	movwf	UART1_SetOverrunErrorHandler@interruptHandler^0,c
  9654   002F04  0E37               	movlw	high _UART1_DefaultOverrunErrorHandler
  9655   002F06  6E02               	movwf	(UART1_SetOverrunErrorHandler@interruptHandler+1)^0,c
  9656   002F08  EC64  F01B         	call	_UART1_SetOverrunErrorHandler	;wreg free
  9657   002F0C                     
  9658                           ;mcc_generated_files/uart1.c: 120:     UART1_SetErrorHandler(UART1_DefaultErrorHandler);
  9659   002F0C  0E66               	movlw	low _UART1_DefaultErrorHandler
  9660   002F0E  6E01               	movwf	UART1_SetErrorHandler@interruptHandler^0,c
  9661   002F10  0E37               	movlw	high _UART1_DefaultErrorHandler
  9662   002F12  6E02               	movwf	(UART1_SetErrorHandler@interruptHandler+1)^0,c
  9663   002F14  EC6E  F01B         	call	_UART1_SetErrorHandler	;wreg free
  9664   002F18                     
  9665                           ;mcc_generated_files/uart1.c: 122:     uart1RxLastError.status = 0;
  9666   002F18  0E00               	movlw	0
  9667   002F1A  6E5E               	movwf	_uart1RxLastError^0,c	;volatile
  9668   002F1C  0012               	return		;funcret
  9669   002F1E                     __end_of_UART1_Initialize:
  9670                           	callstack 0
  9671                           
  9672 ;; *************** function _UART1_SetOverrunErrorHandler *****************
  9673 ;; Defined at:
  9674 ;;		line 194 in file "mcc_generated_files/uart1.c"
  9675 ;; Parameters:    Size  Location     Type
  9676 ;;  interruptHan    2    0[COMRAM] PTR FTN()void 
  9677 ;;		 -> UART1_DefaultOverrunErrorHandler(1), 
  9678 ;; Auto vars:     Size  Location     Type
  9679 ;;		None
  9680 ;; Return value:  Size  Location     Type
  9681 ;;                  1    wreg      void 
  9682 ;; Registers used:
  9683 ;;		wreg, status,2, status,0
  9684 ;; Tracked objects:
  9685 ;;		On entry : 0/0
  9686 ;;		On exit  : 0/0
  9687 ;;		Unchanged: 0/0
  9688 ;; Data sizes:     COMRAM   BANK0   BANK1   BANK2   BANK3   BANK4   BANK5   BANK6   BANK7   BANK8   BANK9  BANK10  BANK1
      +1  BANK12  BANK13  BANK14  BANK15
  9689 ;;      Params:         2       0       0       0       0       0       0       0       0       0       0       0       
      +0       0       0       0       0
  9690 ;;      Locals:         0       0       0       0       0       0       0       0       0       0       0       0       
      +0       0       0       0       0
  9691 ;;      Temps:          0       0       0       0       0       0       0       0       0       0       0       0       
      +0       0       0       0       0
  9692 ;;      Totals:         2       0       0       0       0       0       0       0       0       0       0       0       
      +0       0       0       0       0
  9693 ;;Total ram usage:        2 bytes
  9694 ;; Hardware stack levels used: 1
  9695 ;; This function calls:
  9696 ;;		Nothing
  9697 ;; This function is called by:
  9698 ;;		_UART1_Initialize
  9699 ;; This function uses a non-reentrant model
  9700 ;;
  9701                           
  9702                           	psect	text85
  9703   0036C8                     __ptext85:
  9704                           	callstack 0
  9705   0036C8                     _UART1_SetOverrunErrorHandler:
  9706                           	callstack 28
  9707   0036C8                     
  9708                           ;mcc_generated_files/uart1.c: 195:     UART1_OverrunErrorHandler = interruptHandler;
  9709   0036C8  C001  F05A         	movff	UART1_SetOverrunErrorHandler@interruptHandler,_UART1_OverrunErrorHandler
  9710   0036CC  C002  F05B         	movff	UART1_SetOverrunErrorHandler@interruptHandler+1,_UART1_OverrunErrorHandler+1
  9711   0036D0  0012               	return		;funcret
  9712   0036D2                     __end_of_UART1_SetOverrunErrorHandler:
  9713                           	callstack 0
  9714                           
  9715 ;; *************** function _UART1_SetFramingErrorHandler *****************
  9716 ;; Defined at:
  9717 ;;		line 190 in file "mcc_generated_files/uart1.c"
  9718 ;; Parameters:    Size  Location     Type
  9719 ;;  interruptHan    2    0[COMRAM] PTR FTN()void 
  9720 ;;		 -> UART1_DefaultFramingErrorHandler(1), 
  9721 ;; Auto vars:     Size  Location     Type
  9722 ;;		None
  9723 ;; Return value:  Size  Location     Type
  9724 ;;                  1    wreg      void 
  9725 ;; Registers used:
  9726 ;;		wreg, status,2, status,0
  9727 ;; Tracked objects:
  9728 ;;		On entry : 0/0
  9729 ;;		On exit  : 0/0
  9730 ;;		Unchanged: 0/0
  9731 ;; Data sizes:     COMRAM   BANK0   BANK1   BANK2   BANK3   BANK4   BANK5   BANK6   BANK7   BANK8   BANK9  BANK10  BANK1
      +1  BANK12  BANK13  BANK14  BANK15
  9732 ;;      Params:         2       0       0       0       0       0       0       0       0       0       0       0       
      +0       0       0       0       0
  9733 ;;      Locals:         0       0       0       0       0       0       0       0       0       0       0       0       
      +0       0       0       0       0
  9734 ;;      Temps:          0       0       0       0       0       0       0       0       0       0       0       0       
      +0       0       0       0       0
  9735 ;;      Totals:         2       0       0       0       0       0       0       0       0       0       0       0       
      +0       0       0       0       0
  9736 ;;Total ram usage:        2 bytes
  9737 ;; Hardware stack levels used: 1
  9738 ;; This function calls:
  9739 ;;		Nothing
  9740 ;; This function is called by:
  9741 ;;		_UART1_Initialize
  9742 ;; This function uses a non-reentrant model
  9743 ;;
  9744                           
  9745                           	psect	text86
  9746   0036D2                     __ptext86:
  9747                           	callstack 0
  9748   0036D2                     _UART1_SetFramingErrorHandler:
  9749                           	callstack 28
  9750   0036D2                     
  9751                           ;mcc_generated_files/uart1.c: 191:     UART1_FramingErrorHandler = interruptHandler;
  9752   0036D2  C001  F05C         	movff	UART1_SetFramingErrorHandler@interruptHandler,_UART1_FramingErrorHandler
  9753   0036D6  C002  F05D         	movff	UART1_SetFramingErrorHandler@interruptHandler+1,_UART1_FramingErrorHandler+1
  9754   0036DA  0012               	return		;funcret
  9755   0036DC                     __end_of_UART1_SetFramingErrorHandler:
  9756                           	callstack 0
  9757                           
  9758 ;; *************** function _UART1_SetErrorHandler *****************
  9759 ;; Defined at:
  9760 ;;		line 198 in file "mcc_generated_files/uart1.c"
  9761 ;; Parameters:    Size  Location     Type
  9762 ;;  interruptHan    2    0[COMRAM] PTR FTN()void 
  9763 ;;		 -> UART1_DefaultErrorHandler(1), 
  9764 ;; Auto vars:     Size  Location     Type
  9765 ;;		None
  9766 ;; Return value:  Size  Location     Type
  9767 ;;                  1    wreg      void 
  9768 ;; Registers used:
  9769 ;;		wreg, status,2, status,0
  9770 ;; Tracked objects:
  9771 ;;		On entry : 0/0
  9772 ;;		On exit  : 0/0
  9773 ;;		Unchanged: 0/0
  9774 ;; Data sizes:     COMRAM   BANK0   BANK1   BANK2   BANK3   BANK4   BANK5   BANK6   BANK7   BANK8   BANK9  BANK10  BANK1
      +1  BANK12  BANK13  BANK14  BANK15
  9775 ;;      Params:         2       0       0       0       0       0       0       0       0       0       0       0       
      +0       0       0       0       0
  9776 ;;      Locals:         0       0       0       0       0       0       0       0       0       0       0       0       
      +0       0       0       0       0
  9777 ;;      Temps:          0       0       0       0       0       0       0       0       0       0       0       0       
      +0       0       0       0       0
  9778 ;;      Totals:         2       0       0       0       0       0       0       0       0       0       0       0       
      +0       0       0       0       0
  9779 ;;Total ram usage:        2 bytes
  9780 ;; Hardware stack levels used: 1
  9781 ;; This function calls:
  9782 ;;		Nothing
  9783 ;; This function is called by:
  9784 ;;		_UART1_Initialize
  9785 ;; This function uses a non-reentrant model
  9786 ;;
  9787                           
  9788                           	psect	text87
  9789   0036DC                     __ptext87:
  9790                           	callstack 0
  9791   0036DC                     _UART1_SetErrorHandler:
  9792                           	callstack 28
  9793   0036DC                     
  9794                           ;mcc_generated_files/uart1.c: 199:     UART1_ErrorHandler = interruptHandler;
  9795   0036DC  C001  F0B8         	movff	UART1_SetErrorHandler@interruptHandler,_UART1_ErrorHandler
  9796   0036E0  C002  F0B9         	movff	UART1_SetErrorHandler@interruptHandler+1,_UART1_ErrorHandler+1
  9797   0036E4  0012               	return		;funcret
  9798   0036E6                     __end_of_UART1_SetErrorHandler:
  9799                           	callstack 0
  9800                           
  9801 ;; *************** function _PMD_Initialize *****************
  9802 ;; Defined at:
  9803 ;;		line 73 in file "mcc_generated_files/mcc.c"
  9804 ;; Parameters:    Size  Location     Type
  9805 ;;		None
  9806 ;; Auto vars:     Size  Location     Type
  9807 ;;		None
  9808 ;; Return value:  Size  Location     Type
  9809 ;;                  1    wreg      void 
  9810 ;; Registers used:
  9811 ;;		wreg, status,2
  9812 ;; Tracked objects:
  9813 ;;		On entry : 0/0
  9814 ;;		On exit  : 0/0
  9815 ;;		Unchanged: 0/0
  9816 ;; Data sizes:     COMRAM   BANK0   BANK1   BANK2   BANK3   BANK4   BANK5   BANK6   BANK7   BANK8   BANK9  BANK10  BANK1
      +1  BANK12  BANK13  BANK14  BANK15
  9817 ;;      Params:         0       0       0       0       0       0       0       0       0       0       0       0       
      +0       0       0       0       0
  9818 ;;      Locals:         0       0       0       0       0       0       0       0       0       0       0       0       
      +0       0       0       0       0
  9819 ;;      Temps:          0       0       0       0       0       0       0       0       0       0       0       0       
      +0       0       0       0       0
  9820 ;;      Totals:         0       0       0       0       0       0       0       0       0       0       0       0       
      +0       0       0       0       0
  9821 ;;Total ram usage:        0 bytes
  9822 ;; Hardware stack levels used: 1
  9823 ;; This function calls:
  9824 ;;		Nothing
  9825 ;; This function is called by:
  9826 ;;		_SYSTEM_Initialize
  9827 ;; This function uses a non-reentrant model
  9828 ;;
  9829                           
  9830                           	psect	text88
  9831   003480                     __ptext88:
  9832                           	callstack 0
  9833   003480                     _PMD_Initialize:
  9834                           	callstack 29
  9835   003480                     
  9836                           ;mcc_generated_files/mcc.c: 76:     PMD0 = 0x00;
  9837   003480  0E00               	movlw	0
  9838   003482  0139               	movlb	57	; () banked
  9839   003484  6FC0               	movwf	192,b	;volatile
  9840                           
  9841                           ;mcc_generated_files/mcc.c: 78:     PMD1 = 0x00;
  9842   003486  0E00               	movlw	0
  9843   003488  6FC1               	movwf	193,b	;volatile
  9844                           
  9845                           ;mcc_generated_files/mcc.c: 80:     PMD2 = 0x00;
  9846   00348A  0E00               	movlw	0
  9847   00348C  6FC2               	movwf	194,b	;volatile
  9848                           
  9849                           ;mcc_generated_files/mcc.c: 82:     PMD3 = 0x00;
  9850   00348E  0E00               	movlw	0
  9851   003490  6FC3               	movwf	195,b	;volatile
  9852                           
  9853                           ;mcc_generated_files/mcc.c: 84:     PMD4 = 0x00;
  9854   003492  0E00               	movlw	0
  9855   003494  6FC4               	movwf	196,b	;volatile
  9856                           
  9857                           ;mcc_generated_files/mcc.c: 86:     PMD5 = 0x00;
  9858   003496  0E00               	movlw	0
  9859   003498  6FC5               	movwf	197,b	;volatile
  9860                           
  9861                           ;mcc_generated_files/mcc.c: 88:     PMD6 = 0x00;
  9862   00349A  0E00               	movlw	0
  9863   00349C  6FC6               	movwf	198,b	;volatile
  9864                           
  9865                           ;mcc_generated_files/mcc.c: 90:     PMD7 = 0x00;
  9866   00349E  0E00               	movlw	0
  9867   0034A0  6FC7               	movwf	199,b	;volatile
  9868   0034A2                     
  9869                           ; BSR set to: 57
  9870   0034A2  0012               	return		;funcret
  9871   0034A4                     __end_of_PMD_Initialize:
  9872                           	callstack 0
  9873                           
  9874 ;; *************** function _PIN_MANAGER_Initialize *****************
  9875 ;; Defined at:
  9876 ;;		line 55 in file "mcc_generated_files/pin_manager.c"
  9877 ;; Parameters:    Size  Location     Type
  9878 ;;		None
  9879 ;; Auto vars:     Size  Location     Type
  9880 ;;		None
  9881 ;; Return value:  Size  Location     Type
  9882 ;;                  1    wreg      void 
  9883 ;; Registers used:
  9884 ;;		wreg, status,2
  9885 ;; Tracked objects:
  9886 ;;		On entry : 0/0
  9887 ;;		On exit  : 0/0
  9888 ;;		Unchanged: 0/0
  9889 ;; Data sizes:     COMRAM   BANK0   BANK1   BANK2   BANK3   BANK4   BANK5   BANK6   BANK7   BANK8   BANK9  BANK10  BANK1
      +1  BANK12  BANK13  BANK14  BANK15
  9890 ;;      Params:         0       0       0       0       0       0       0       0       0       0       0       0       
      +0       0       0       0       0
  9891 ;;      Locals:         0       0       0       0       0       0       0       0       0       0       0       0       
      +0       0       0       0       0
  9892 ;;      Temps:          0       0       0       0       0       0       0       0       0       0       0       0       
      +0       0       0       0       0
  9893 ;;      Totals:         0       0       0       0       0       0       0       0       0       0       0       0       
      +0       0       0       0       0
  9894 ;;Total ram usage:        0 bytes
  9895 ;; Hardware stack levels used: 1
  9896 ;; This function calls:
  9897 ;;		Nothing
  9898 ;; This function is called by:
  9899 ;;		_SYSTEM_Initialize
  9900 ;; This function uses a non-reentrant model
  9901 ;;
  9902                           
  9903                           	psect	text89
  9904   002956                     __ptext89:
  9905                           	callstack 0
  9906   002956                     _PIN_MANAGER_Initialize:
  9907                           	callstack 29
  9908   002956                     
  9909                           ;mcc_generated_files/pin_manager.c: 60:     LATE = 0x00;
  9910   002956  0E00               	movlw	0
  9911   002958  6EBE               	movwf	190,c	;volatile
  9912                           
  9913                           ;mcc_generated_files/pin_manager.c: 61:     LATD = 0x00;
  9914   00295A  0E00               	movlw	0
  9915   00295C  6EBD               	movwf	189,c	;volatile
  9916                           
  9917                           ;mcc_generated_files/pin_manager.c: 62:     LATA = 0x00;
  9918   00295E  0E00               	movlw	0
  9919   002960  6EBA               	movwf	186,c	;volatile
  9920                           
  9921                           ;mcc_generated_files/pin_manager.c: 63:     LATB = 0x00;
  9922   002962  0E00               	movlw	0
  9923   002964  6EBB               	movwf	187,c	;volatile
  9924                           
  9925                           ;mcc_generated_files/pin_manager.c: 64:     LATC = 0x00;
  9926   002966  0E00               	movlw	0
  9927   002968  6EBC               	movwf	188,c	;volatile
  9928                           
  9929                           ;mcc_generated_files/pin_manager.c: 69:     TRISE = 0x07;
  9930   00296A  0E07               	movlw	7
  9931   00296C  6EC6               	movwf	198,c	;volatile
  9932   00296E                     
  9933                           ;mcc_generated_files/pin_manager.c: 70:     TRISA = 0xFF;
  9934   00296E  68C2               	setf	194,c	;volatile
  9935                           
  9936                           ;mcc_generated_files/pin_manager.c: 71:     TRISB = 0xF9;
  9937   002970  0EF9               	movlw	249
  9938   002972  6EC3               	movwf	195,c	;volatile
  9939                           
  9940                           ;mcc_generated_files/pin_manager.c: 72:     TRISC = 0xBF;
  9941   002974  0EBF               	movlw	191
  9942   002976  6EC4               	movwf	196,c	;volatile
  9943   002978                     
  9944                           ;mcc_generated_files/pin_manager.c: 73:     TRISD = 0xFF;
  9945   002978  68C5               	setf	197,c	;volatile
  9946   00297A                     
  9947                           ;mcc_generated_files/pin_manager.c: 78:     ANSELD = 0xFF;
  9948   00297A  013A               	movlb	58	; () banked
  9949   00297C  6970               	setf	112,b	;volatile
  9950                           
  9951                           ;mcc_generated_files/pin_manager.c: 79:     ANSELC = 0x7F;
  9952   00297E  0E7F               	movlw	127
  9953   002980  6F60               	movwf	96,b	;volatile
  9954                           
  9955                           ;mcc_generated_files/pin_manager.c: 80:     ANSELB = 0xF9;
  9956   002982  0EF9               	movlw	249
  9957   002984  6F50               	movwf	80,b	;volatile
  9958                           
  9959                           ;mcc_generated_files/pin_manager.c: 81:     ANSELE = 0x07;
  9960   002986  0E07               	movlw	7
  9961   002988  6F80               	movwf	128,b	;volatile
  9962   00298A                     
  9963                           ; BSR set to: 58
  9964                           ;mcc_generated_files/pin_manager.c: 82:     ANSELA = 0xFF;
  9965   00298A  6940               	setf	64,b	;volatile
  9966                           
  9967                           ;mcc_generated_files/pin_manager.c: 87:     WPUD = 0x00;
  9968   00298C  0E00               	movlw	0
  9969   00298E  6F71               	movwf	113,b	;volatile
  9970                           
  9971                           ;mcc_generated_files/pin_manager.c: 88:     WPUE = 0x00;
  9972   002990  0E00               	movlw	0
  9973   002992  6F81               	movwf	129,b	;volatile
  9974                           
  9975                           ;mcc_generated_files/pin_manager.c: 89:     WPUB = 0x00;
  9976   002994  0E00               	movlw	0
  9977   002996  6F51               	movwf	81,b	;volatile
  9978                           
  9979                           ;mcc_generated_files/pin_manager.c: 90:     WPUA = 0x00;
  9980   002998  0E00               	movlw	0
  9981   00299A  6F41               	movwf	65,b	;volatile
  9982                           
  9983                           ;mcc_generated_files/pin_manager.c: 91:     WPUC = 0x00;
  9984   00299C  0E00               	movlw	0
  9985   00299E  6F61               	movwf	97,b	;volatile
  9986                           
  9987                           ;mcc_generated_files/pin_manager.c: 96:     RB1I2C = 0x00;
  9988   0029A0  0E00               	movlw	0
  9989   0029A2  6F5A               	movwf	90,b	;volatile
  9990                           
  9991                           ;mcc_generated_files/pin_manager.c: 97:     RB2I2C = 0x00;
  9992   0029A4  0E00               	movlw	0
  9993   0029A6  6F5B               	movwf	91,b	;volatile
  9994                           
  9995                           ;mcc_generated_files/pin_manager.c: 98:     RC3I2C = 0x00;
  9996   0029A8  0E00               	movlw	0
  9997   0029AA  6F6A               	movwf	106,b	;volatile
  9998                           
  9999                           ;mcc_generated_files/pin_manager.c: 99:     RC4I2C = 0x00;
 10000   0029AC  0E00               	movlw	0
 10001   0029AE  6F6B               	movwf	107,b	;volatile
 10002                           
 10003                           ;mcc_generated_files/pin_manager.c: 100:     RD0I2C = 0x00;
 10004   0029B0  0E00               	movlw	0
 10005   0029B2  6F7A               	movwf	122,b	;volatile
 10006                           
 10007                           ;mcc_generated_files/pin_manager.c: 101:     RD1I2C = 0x00;
 10008   0029B4  0E00               	movlw	0
 10009   0029B6  6F7B               	movwf	123,b	;volatile
 10010                           
 10011                           ;mcc_generated_files/pin_manager.c: 106:     ODCONE = 0x00;
 10012   0029B8  0E00               	movlw	0
 10013   0029BA  6F82               	movwf	130,b	;volatile
 10014                           
 10015                           ;mcc_generated_files/pin_manager.c: 107:     ODCONA = 0x00;
 10016   0029BC  0E00               	movlw	0
 10017   0029BE  6F42               	movwf	66,b	;volatile
 10018                           
 10019                           ;mcc_generated_files/pin_manager.c: 108:     ODCONB = 0x06;
 10020   0029C0  0E06               	movlw	6
 10021   0029C2  6F52               	movwf	82,b	;volatile
 10022                           
 10023                           ;mcc_generated_files/pin_manager.c: 109:     ODCONC = 0x18;
 10024   0029C4  0E18               	movlw	24
 10025   0029C6  6F62               	movwf	98,b	;volatile
 10026                           
 10027                           ;mcc_generated_files/pin_manager.c: 110:     ODCOND = 0x00;
 10028   0029C8  0E00               	movlw	0
 10029   0029CA  6F72               	movwf	114,b	;volatile
 10030   0029CC                     
 10031                           ; BSR set to: 58
 10032                           ;mcc_generated_files/pin_manager.c: 115:     SLRCONA = 0xFF;
 10033   0029CC  6943               	setf	67,b	;volatile
 10034   0029CE                     
 10035                           ; BSR set to: 58
 10036                           ;mcc_generated_files/pin_manager.c: 116:     SLRCONB = 0xFF;
 10037   0029CE  6953               	setf	83,b	;volatile
 10038   0029D0                     
 10039                           ; BSR set to: 58
 10040                           ;mcc_generated_files/pin_manager.c: 117:     SLRCONC = 0xFF;
 10041   0029D0  6963               	setf	99,b	;volatile
 10042   0029D2                     
 10043                           ; BSR set to: 58
 10044                           ;mcc_generated_files/pin_manager.c: 118:     SLRCOND = 0xFF;
 10045   0029D2  6973               	setf	115,b	;volatile
 10046                           
 10047                           ;mcc_generated_files/pin_manager.c: 119:     SLRCONE = 0x07;
 10048   0029D4  0E07               	movlw	7
 10049   0029D6  6F83               	movwf	131,b	;volatile
 10050   0029D8                     
 10051                           ; BSR set to: 58
 10052                           ;mcc_generated_files/pin_manager.c: 124:     INLVLA = 0xFF;
 10053   0029D8  6944               	setf	68,b	;volatile
 10054   0029DA                     
 10055                           ; BSR set to: 58
 10056                           ;mcc_generated_files/pin_manager.c: 125:     INLVLB = 0xFF;
 10057   0029DA  6954               	setf	84,b	;volatile
 10058   0029DC                     
 10059                           ; BSR set to: 58
 10060                           ;mcc_generated_files/pin_manager.c: 126:     INLVLC = 0xFF;
 10061   0029DC  6964               	setf	100,b	;volatile
 10062   0029DE                     
 10063                           ; BSR set to: 58
 10064                           ;mcc_generated_files/pin_manager.c: 127:     INLVLD = 0xFF;
 10065   0029DE  6974               	setf	116,b	;volatile
 10066                           
 10067                           ;mcc_generated_files/pin_manager.c: 128:     INLVLE = 0x0F;
 10068   0029E0  0E0F               	movlw	15
 10069   0029E2  6F84               	movwf	132,b	;volatile
 10070                           
 10071                           ;mcc_generated_files/pin_manager.c: 137:     I2C1SDAPPS = 0x0A;
 10072   0029E4  0E0A               	movlw	10
 10073   0029E6  6FE2               	movwf	226,b	;volatile
 10074                           
 10075                           ;mcc_generated_files/pin_manager.c: 138:     RB1PPS = 0x21;
 10076   0029E8  0E21               	movlw	33
 10077   0029EA  6F09               	movwf	9,b	;volatile
 10078                           
 10079                           ;mcc_generated_files/pin_manager.c: 139:     RB2PPS = 0x22;
 10080   0029EC  0E22               	movlw	34
 10081   0029EE  6F0A               	movwf	10,b	;volatile
 10082                           
 10083                           ;mcc_generated_files/pin_manager.c: 140:     RC6PPS = 0x13;
 10084   0029F0  0E13               	movlw	19
 10085   0029F2  6F16               	movwf	22,b	;volatile
 10086                           
 10087                           ;mcc_generated_files/pin_manager.c: 141:     U1RXPPS = 0x17;
 10088   0029F4  0E17               	movlw	23
 10089   0029F6  6FE5               	movwf	229,b	;volatile
 10090                           
 10091                           ;mcc_generated_files/pin_manager.c: 142:     I2C1SCLPPS = 0x09;
 10092   0029F8  0E09               	movlw	9
 10093   0029FA  6FE1               	movwf	225,b	;volatile
 10094   0029FC                     
 10095                           ; BSR set to: 58
 10096   0029FC  0012               	return		;funcret
 10097   0029FE                     __end_of_PIN_MANAGER_Initialize:
 10098                           	callstack 0
 10099                           
 10100 ;; *************** function _OSCILLATOR_Initialize *****************
 10101 ;; Defined at:
 10102 ;;		line 59 in file "mcc_generated_files/mcc.c"
 10103 ;; Parameters:    Size  Location     Type
 10104 ;;		None
 10105 ;; Auto vars:     Size  Location     Type
 10106 ;;		None
 10107 ;; Return value:  Size  Location     Type
 10108 ;;                  1    wreg      void 
 10109 ;; Registers used:
 10110 ;;		wreg, status,2
 10111 ;; Tracked objects:
 10112 ;;		On entry : 0/0
 10113 ;;		On exit  : 0/0
 10114 ;;		Unchanged: 0/0
 10115 ;; Data sizes:     COMRAM   BANK0   BANK1   BANK2   BANK3   BANK4   BANK5   BANK6   BANK7   BANK8   BANK9  BANK10  BANK1
      +1  BANK12  BANK13  BANK14  BANK15
 10116 ;;      Params:         0       0       0       0       0       0       0       0       0       0       0       0       
      +0       0       0       0       0
 10117 ;;      Locals:         0       0       0       0       0       0       0       0       0       0       0       0       
      +0       0       0       0       0
 10118 ;;      Temps:          0       0       0       0       0       0       0       0       0       0       0       0       
      +0       0       0       0       0
 10119 ;;      Totals:         0       0       0       0       0       0       0       0       0       0       0       0       
      +0       0       0       0       0
 10120 ;;Total ram usage:        0 bytes
 10121 ;; Hardware stack levels used: 1
 10122 ;; This function calls:
 10123 ;;		Nothing
 10124 ;; This function is called by:
 10125 ;;		_SYSTEM_Initialize
 10126 ;; This function uses a non-reentrant model
 10127 ;;
 10128                           
 10129                           	psect	text90
 10130   003566                     __ptext90:
 10131                           	callstack 0
 10132   003566                     _OSCILLATOR_Initialize:
 10133                           	callstack 29
 10134   003566                     
 10135                           ;mcc_generated_files/mcc.c: 62:     OSCCON1 = 0x60;
 10136   003566  0E60               	movlw	96
 10137   003568  0139               	movlb	57	; () banked
 10138   00356A  6FD9               	movwf	217,b	;volatile
 10139                           
 10140                           ;mcc_generated_files/mcc.c: 64:     OSCCON3 = 0x00;
 10141   00356C  0E00               	movlw	0
 10142   00356E  6FDB               	movwf	219,b	;volatile
 10143                           
 10144                           ;mcc_generated_files/mcc.c: 66:     OSCEN = 0x00;
 10145   003570  0E00               	movlw	0
 10146   003572  6FDD               	movwf	221,b	;volatile
 10147                           
 10148                           ;mcc_generated_files/mcc.c: 68:     OSCFRQ = 0x03;
 10149   003574  0E03               	movlw	3
 10150   003576  6FDF               	movwf	223,b	;volatile
 10151                           
 10152                           ;mcc_generated_files/mcc.c: 70:     OSCTUNE = 0x00;
 10153   003578  0E00               	movlw	0
 10154   00357A  6FDE               	movwf	222,b	;volatile
 10155   00357C                     
 10156                           ; BSR set to: 57
 10157   00357C  0012               	return		;funcret
 10158   00357E                     __end_of_OSCILLATOR_Initialize:
 10159                           	callstack 0
 10160                           
 10161 ;; *************** function _I2C1_Initialize *****************
 10162 ;; Defined at:
 10163 ;;		line 183 in file "mcc_generated_files/i2c1_master.c"
 10164 ;; Parameters:    Size  Location     Type
 10165 ;;		None
 10166 ;; Auto vars:     Size  Location     Type
 10167 ;;		None
 10168 ;; Return value:  Size  Location     Type
 10169 ;;                  1    wreg      void 
 10170 ;; Registers used:
 10171 ;;		wreg, status,2
 10172 ;; Tracked objects:
 10173 ;;		On entry : 0/0
 10174 ;;		On exit  : 0/0
 10175 ;;		Unchanged: 0/0
 10176 ;; Data sizes:     COMRAM   BANK0   BANK1   BANK2   BANK3   BANK4   BANK5   BANK6   BANK7   BANK8   BANK9  BANK10  BANK1
      +1  BANK12  BANK13  BANK14  BANK15
 10177 ;;      Params:         0       0       0       0       0       0       0       0       0       0       0       0       
      +0       0       0       0       0
 10178 ;;      Locals:         0       0       0       0       0       0       0       0       0       0       0       0       
      +0       0       0       0       0
 10179 ;;      Temps:          0       0       0       0       0       0       0       0       0       0       0       0       
      +0       0       0       0       0
 10180 ;;      Totals:         0       0       0       0       0       0       0       0       0       0       0       0       
      +0       0       0       0       0
 10181 ;;Total ram usage:        0 bytes
 10182 ;; Hardware stack levels used: 1
 10183 ;; This function calls:
 10184 ;;		Nothing
 10185 ;; This function is called by:
 10186 ;;		_SYSTEM_Initialize
 10187 ;; This function uses a non-reentrant model
 10188 ;;
 10189                           
 10190                           	psect	text91
 10191   0034A4                     __ptext91:
 10192                           	callstack 0
 10193   0034A4                     _I2C1_Initialize:
 10194                           	callstack 29
 10195   0034A4                     
 10196                           ;mcc_generated_files/i2c1_master.c: 186:     I2C1CON0 = 0x04;
 10197   0034A4  0E04               	movlw	4
 10198   0034A6  013D               	movlb	61	; () banked
 10199   0034A8  6F73               	movwf	115,b	;volatile
 10200                           
 10201                           ;mcc_generated_files/i2c1_master.c: 188:     I2C1CON1 = 0x80;
 10202   0034AA  0E80               	movlw	128
 10203   0034AC  6F74               	movwf	116,b	;volatile
 10204                           
 10205                           ;mcc_generated_files/i2c1_master.c: 190:     I2C1CON2 = 0x18;
 10206   0034AE  0E18               	movlw	24
 10207   0034B0  6F75               	movwf	117,b	;volatile
 10208                           
 10209                           ;mcc_generated_files/i2c1_master.c: 192:     I2C1CLK = 0x03;
 10210   0034B2  0E03               	movlw	3
 10211   0034B4  6F7B               	movwf	123,b	;volatile
 10212                           
 10213                           ;mcc_generated_files/i2c1_master.c: 194:     I2C1PIR = 0x00;
 10214   0034B6  0E00               	movlw	0
 10215   0034B8  6F79               	movwf	121,b	;volatile
 10216                           
 10217                           ;mcc_generated_files/i2c1_master.c: 196:     I2C1PIE = 0x00;
 10218   0034BA  0E00               	movlw	0
 10219   0034BC  6F7A               	movwf	122,b	;volatile
 10220                           
 10221                           ;mcc_generated_files/i2c1_master.c: 198:     I2C1ERR = 0x00;
 10222   0034BE  0E00               	movlw	0
 10223   0034C0  6F76               	movwf	118,b	;volatile
 10224   0034C2                     
 10225                           ; BSR set to: 61
 10226                           ;mcc_generated_files/i2c1_master.c: 200:     I2C1CNT = 0xFF;
 10227   0034C2  696C               	setf	108,b	;volatile
 10228   0034C4                     
 10229                           ; BSR set to: 61
 10230   0034C4  0012               	return		;funcret
 10231   0034C6                     __end_of_I2C1_Initialize:
 10232                           	callstack 0
 10233                           
 10234 ;; *************** function _Iniciarlizar *****************
 10235 ;; Defined at:
 10236 ;;		line 5 in file "FSM.c"
 10237 ;; Parameters:    Size  Location     Type
 10238 ;;  est             2    0[COMRAM] PTR struct variable
 10239 ;;		 -> main@est(35), 
 10240 ;; Auto vars:     Size  Location     Type
 10241 ;;  j               2    6[COMRAM] int 
 10242 ;;  i               2    4[COMRAM] int 
 10243 ;; Return value:  Size  Location     Type
 10244 ;;                  1    wreg      void 
 10245 ;; Registers used:
 10246 ;;		wreg, fsr2l, fsr2h, status,2, status,0
 10247 ;; Tracked objects:
 10248 ;;		On entry : 0/0
 10249 ;;		On exit  : 0/0
 10250 ;;		Unchanged: 0/0
 10251 ;; Data sizes:     COMRAM   BANK0   BANK1   BANK2   BANK3   BANK4   BANK5   BANK6   BANK7   BANK8   BANK9  BANK10  BANK1
      +1  BANK12  BANK13  BANK14  BANK15
 10252 ;;      Params:         2       0       0       0       0       0       0       0       0       0       0       0       
      +0       0       0       0       0
 10253 ;;      Locals:         4       0       0       0       0       0       0       0       0       0       0       0       
      +0       0       0       0       0
 10254 ;;      Temps:          2       0       0       0       0       0       0       0       0       0       0       0       
      +0       0       0       0       0
 10255 ;;      Totals:         8       0       0       0       0       0       0       0       0       0       0       0       
      +0       0       0       0       0
 10256 ;;Total ram usage:        8 bytes
 10257 ;; Hardware stack levels used: 1
 10258 ;; This function calls:
 10259 ;;		Nothing
 10260 ;; This function is called by:
 10261 ;;		_main
 10262 ;; This function uses a non-reentrant model
 10263 ;;
 10264                           
 10265                           	psect	text92
 10266   0026EA                     __ptext92:
 10267                           	callstack 0
 10268   0026EA                     _Iniciarlizar:
 10269                           	callstack 30
 10270   0026EA                     
 10271                           ;FSM.c: 7:     for(int i=0;i<4;i++){
 10272   0026EA  0E00               	movlw	0
 10273   0026EC  6E06               	movwf	(Iniciarlizar@i+1)^0,c
 10274   0026EE  0E00               	movlw	0
 10275   0026F0  6E05               	movwf	Iniciarlizar@i^0,c
 10276   0026F2                     l4118:
 10277                           
 10278                           ;FSM.c: 8:       est->add[i]=0;
 10279   0026F2  5005               	movf	Iniciarlizar@i^0,w,c
 10280   0026F4  2401               	addwf	Iniciarlizar@est^0,w,c
 10281   0026F6  6E03               	movwf	??_Iniciarlizar^0,c
 10282   0026F8  5006               	movf	(Iniciarlizar@i+1)^0,w,c
 10283   0026FA  2002               	addwfc	(Iniciarlizar@est+1)^0,w,c
 10284   0026FC  6E04               	movwf	(??_Iniciarlizar+1)^0,c
 10285   0026FE  0E02               	movlw	2
 10286   002700  2403               	addwf	??_Iniciarlizar^0,w,c
 10287   002702  6ED9               	movwf	fsr2l,c
 10288   002704  0E00               	movlw	0
 10289   002706  2004               	addwfc	(??_Iniciarlizar+1)^0,w,c
 10290   002708  6EDA               	movwf	fsr2h,c
 10291   00270A  0E00               	movlw	0
 10292   00270C  6EDF               	movwf	indf2,c
 10293   00270E                     
 10294                           ;FSM.c: 9:     }
 10295   00270E  4A05               	infsnz	Iniciarlizar@i^0,f,c
 10296   002710  2A06               	incf	(Iniciarlizar@i+1)^0,f,c
 10297   002712  BE06               	btfsc	(Iniciarlizar@i+1)^0,7,c
 10298   002714  EF95  F013         	goto	u2141
 10299   002718  5006               	movf	(Iniciarlizar@i+1)^0,w,c
 10300   00271A  E109               	bnz	u2140
 10301   00271C  0E04               	movlw	4
 10302   00271E  5C05               	subwf	Iniciarlizar@i^0,w,c
 10303   002720  A0D8               	btfss	status,0,c
 10304   002722  EF95  F013         	goto	u2141
 10305   002726  EF97  F013         	goto	u2140
 10306   00272A                     u2141:
 10307   00272A  EF79  F013         	goto	l4118
 10308   00272E                     u2140:
 10309   00272E                     
 10310                           ;FSM.c: 10:     est->estados=1;
 10311   00272E  0060  F007  FFD9   	movff	Iniciarlizar@est,fsr2l
 10312   002734  0060  F00B  FFDA   	movff	Iniciarlizar@est+1,fsr2h
 10313   00273A  0E01               	movlw	1
 10314   00273C  6EDE               	movwf	postinc2,c
 10315   00273E  0E00               	movlw	0
 10316   002740  6EDD               	movwf	postdec2,c
 10317   002742                     
 10318                           ;FSM.c: 11:     est->wb_val[0]=0;
 10319   002742  EE20 F006          	lfsr	2,6
 10320   002746  5001               	movf	Iniciarlizar@est^0,w,c
 10321   002748  26D9               	addwf	fsr2l,f,c
 10322   00274A  5002               	movf	(Iniciarlizar@est+1)^0,w,c
 10323   00274C  22DA               	addwfc	fsr2h,f,c
 10324   00274E  0E00               	movlw	0
 10325   002750  6EDF               	movwf	indf2,c
 10326   002752                     
 10327                           ;FSM.c: 12:     est->rs_num[0]=0;
 10328   002752  EE20 F007          	lfsr	2,7
 10329   002756  5001               	movf	Iniciarlizar@est^0,w,c
 10330   002758  26D9               	addwf	fsr2l,f,c
 10331   00275A  5002               	movf	(Iniciarlizar@est+1)^0,w,c
 10332   00275C  22DA               	addwfc	fsr2h,f,c
 10333   00275E  0E00               	movlw	0
 10334   002760  6EDF               	movwf	indf2,c
 10335   002762                     
 10336                           ;FSM.c: 13:     est->ws_data[0]=0;
 10337   002762  EE20 F008          	lfsr	2,8
 10338   002766  5001               	movf	Iniciarlizar@est^0,w,c
 10339   002768  26D9               	addwf	fsr2l,f,c
 10340   00276A  5002               	movf	(Iniciarlizar@est+1)^0,w,c
 10341   00276C  22DA               	addwfc	fsr2h,f,c
 10342   00276E  0E00               	movlw	0
 10343   002770  6EDF               	movwf	indf2,c
 10344   002772                     
 10345                           ;FSM.c: 14:     est->lectura_add=0;
 10346   002772  EE20 F018          	lfsr	2,24
 10347   002776  5001               	movf	Iniciarlizar@est^0,w,c
 10348   002778  26D9               	addwf	fsr2l,f,c
 10349   00277A  5002               	movf	(Iniciarlizar@est+1)^0,w,c
 10350   00277C  22DA               	addwfc	fsr2h,f,c
 10351   00277E  0E00               	movlw	0
 10352   002780  6EDE               	movwf	postinc2,c
 10353   002782  0E00               	movlw	0
 10354   002784  6EDD               	movwf	postdec2,c
 10355   002786                     
 10356                           ;FSM.c: 15:     est->lectura_data=0;
 10357   002786  EE20 F01A          	lfsr	2,26
 10358   00278A  5001               	movf	Iniciarlizar@est^0,w,c
 10359   00278C  26D9               	addwf	fsr2l,f,c
 10360   00278E  5002               	movf	(Iniciarlizar@est+1)^0,w,c
 10361   002790  22DA               	addwfc	fsr2h,f,c
 10362   002792  0E00               	movlw	0
 10363   002794  6EDE               	movwf	postinc2,c
 10364   002796  0E00               	movlw	0
 10365   002798  6EDD               	movwf	postdec2,c
 10366   00279A                     
 10367                           ;FSM.c: 16:     est->flag=0;
 10368   00279A  EE20 F01C          	lfsr	2,28
 10369   00279E  5001               	movf	Iniciarlizar@est^0,w,c
 10370   0027A0  26D9               	addwf	fsr2l,f,c
 10371   0027A2  5002               	movf	(Iniciarlizar@est+1)^0,w,c
 10372   0027A4  22DA               	addwfc	fsr2h,f,c
 10373   0027A6  0E00               	movlw	0
 10374   0027A8  6EDF               	movwf	indf2,c
 10375   0027AA                     
 10376                           ;FSM.c: 17:     for(int j=0;j<4;j++){
 10377   0027AA  0E00               	movlw	0
 10378   0027AC  6E08               	movwf	(Iniciarlizar@j+1)^0,c
 10379   0027AE  0E00               	movlw	0
 10380   0027B0  6E07               	movwf	Iniciarlizar@j^0,c
 10381   0027B2                     l4144:
 10382                           
 10383                           ;FSM.c: 18:       est->instruccion[j]=0;
 10384   0027B2  5007               	movf	Iniciarlizar@j^0,w,c
 10385   0027B4  2401               	addwf	Iniciarlizar@est^0,w,c
 10386   0027B6  6E03               	movwf	??_Iniciarlizar^0,c
 10387   0027B8  5008               	movf	(Iniciarlizar@j+1)^0,w,c
 10388   0027BA  2002               	addwfc	(Iniciarlizar@est+1)^0,w,c
 10389   0027BC  6E04               	movwf	(??_Iniciarlizar+1)^0,c
 10390   0027BE  0E1F               	movlw	31
 10391   0027C0  2403               	addwf	??_Iniciarlizar^0,w,c
 10392   0027C2  6ED9               	movwf	fsr2l,c
 10393   0027C4  0E00               	movlw	0
 10394   0027C6  2004               	addwfc	(??_Iniciarlizar+1)^0,w,c
 10395   0027C8  6EDA               	movwf	fsr2h,c
 10396   0027CA  0E00               	movlw	0
 10397   0027CC  6EDF               	movwf	indf2,c
 10398   0027CE                     
 10399                           ;FSM.c: 19:     }
 10400   0027CE  4A07               	infsnz	Iniciarlizar@j^0,f,c
 10401   0027D0  2A08               	incf	(Iniciarlizar@j+1)^0,f,c
 10402   0027D2  BE08               	btfsc	(Iniciarlizar@j+1)^0,7,c
 10403   0027D4  EFF5  F013         	goto	u2151
 10404   0027D8  5008               	movf	(Iniciarlizar@j+1)^0,w,c
 10405   0027DA  E109               	bnz	u2150
 10406   0027DC  0E04               	movlw	4
 10407   0027DE  5C07               	subwf	Iniciarlizar@j^0,w,c
 10408   0027E0  A0D8               	btfss	status,0,c
 10409   0027E2  EFF5  F013         	goto	u2151
 10410   0027E6  EFF7  F013         	goto	u2150
 10411   0027EA                     u2151:
 10412   0027EA  EFD9  F013         	goto	l4144
 10413   0027EE                     u2150:
 10414   0027EE  0012               	return		;funcret
 10415   0027F0                     __end_of_Iniciarlizar:
 10416                           	callstack 0
 10417                           
 10418                           	psect	text93
 10419   000000                     __ptext93:
 10420                           	callstack 0
 10421   000000                     
 10422                           	psect	rparam
 10423   000000                     
 10424                           	psect	idloc
 10425                           
 10426                           ;Config register IDLOC0 @ 0x200000
 10427                           ;	unspecified, using default values
 10428   200000                     	org	2097152
 10429   200000  0FFF               	dw	4095
 10430                           
 10431                           ;Config register IDLOC1 @ 0x200002
 10432                           ;	unspecified, using default values
 10433   200002                     	org	2097154
 10434   200002  0FFF               	dw	4095
 10435                           
 10436                           ;Config register IDLOC2 @ 0x200004
 10437                           ;	unspecified, using default values
 10438   200004                     	org	2097156
 10439   200004  0FFF               	dw	4095
 10440                           
 10441                           ;Config register IDLOC3 @ 0x200006
 10442                           ;	unspecified, using default values
 10443   200006                     	org	2097158
 10444   200006  0FFF               	dw	4095
 10445                           
 10446                           ;Config register IDLOC4 @ 0x200008
 10447                           ;	unspecified, using default values
 10448   200008                     	org	2097160
 10449   200008  0FFF               	dw	4095
 10450                           
 10451                           ;Config register IDLOC5 @ 0x20000A
 10452                           ;	unspecified, using default values
 10453   20000A                     	org	2097162
 10454   20000A  0FFF               	dw	4095
 10455                           
 10456                           ;Config register IDLOC6 @ 0x20000C
 10457                           ;	unspecified, using default values
 10458   20000C                     	org	2097164
 10459   20000C  0FFF               	dw	4095
 10460                           
 10461                           ;Config register IDLOC7 @ 0x20000E
 10462                           ;	unspecified, using default values
 10463   20000E                     	org	2097166
 10464   20000E  0FFF               	dw	4095
 10465                           
 10466                           	psect	config
 10467                           
 10468                           ;Config register CONFIG1L @ 0x300000
 10469                           ;	External Oscillator Selection
 10470                           ;	FEXTOSC = OFF, Oscillator not enabled
 10471                           ;	Reset Oscillator Selection
 10472                           ;	RSTOSC = HFINTOSC_1MHZ, HFINTOSC with HFFRQ = 4 MHz and CDIV = 4:1
 10473   300000                     	org	3145728
 10474   300000  EC                 	db	236
 10475                           
 10476                           ;Config register CONFIG1H @ 0x300001
 10477                           ;	Clock out Enable bit
 10478                           ;	CLKOUTEN = OFF, CLKOUT function is disabled
 10479                           ;	PRLOCKED One-Way Set Enable bit
 10480                           ;	PR1WAY = ON, PRLOCK bit can be cleared and set only once
 10481                           ;	Clock Switch Enable bit
 10482                           ;	CSWEN = ON, Writing to NOSC and NDIV is allowed
 10483                           ;	Fail-Safe Clock Monitor Enable bit
 10484                           ;	FCMEN = ON, Fail-Safe Clock Monitor enabled
 10485   300001                     	org	3145729
 10486   300001  FF                 	db	255
 10487                           
 10488                           ;Config register CONFIG2L @ 0x300002
 10489                           ;	MCLR Enable bit
 10490                           ;	MCLRE = EXTMCLR, If LVP = 0, MCLR pin is MCLR; If LVP = 1, RE3 pin function is MCLR
 10491                           ;	Power-up timer selection bits
 10492                           ;	PWRTS = PWRT_OFF, PWRT is disabled
 10493                           ;	Multi-vector enable bit
 10494                           ;	MVECEN = OFF, Interrupt contoller does not use vector table to prioritze interrupts
 10495                           ;	IVTLOCK bit One-way set enable bit
 10496                           ;	IVT1WAY = ON, IVTLOCK bit can be cleared and set only once
 10497                           ;	Low Power BOR Enable bit
 10498                           ;	LPBOREN = OFF, ULPBOR disabled
 10499                           ;	Brown-out Reset Enable bits
 10500                           ;	BOREN = SBORDIS, Brown-out Reset enabled , SBOREN bit is ignored
 10501   300002                     	org	3145730
 10502   300002  F7                 	db	247
 10503                           
 10504                           ;Config register CONFIG2H @ 0x300003
 10505                           ;	Brown-out Reset Voltage Selection bits
 10506                           ;	BORV = VBOR_2P45, Brown-out Reset Voltage (VBOR) set to 2.45V
 10507                           ;	ZCD Disable bit
 10508                           ;	ZCD = OFF, ZCD disabled. ZCD can be enabled by setting the ZCDSEN bit of ZCDCON
 10509                           ;	PPSLOCK bit One-Way Set Enable bit
 10510                           ;	PPS1WAY = ON, PPSLOCK bit can be cleared and set only once; PPS registers remain locke
      +                          d after one clear/set cycle
 10511                           ;	Stack Full/Underflow Reset Enable bit
 10512                           ;	STVREN = ON, Stack full/underflow will cause Reset
 10513                           ;	Debugger Enable bit
 10514                           ;	DEBUG = OFF, Background debugger disabled
 10515                           ;	Extended Instruction Set Enable bit
 10516                           ;	XINST = OFF, Extended Instruction Set and Indexed Addressing Mode disabled
 10517   300003                     	org	3145731
 10518   300003  FF                 	db	255
 10519                           
 10520                           ;Config register CONFIG3L @ 0x300004
 10521                           ;	WDT Period selection bits
 10522                           ;	WDTCPS = WDTCPS_31, Divider ratio 1:65536; software control of WDTPS
 10523                           ;	WDT operating mode
 10524                           ;	WDTE = OFF, WDT Disabled; SWDTEN is ignored
 10525   300004                     	org	3145732
 10526   300004  9F                 	db	159
 10527                           
 10528                           ;Config register CONFIG3H @ 0x300005
 10529                           ;	WDT Window Select bits
 10530                           ;	WDTCWS = WDTCWS_7, window always open (100%); software control; keyed access not requi
      +                          red
 10531                           ;	WDT input clock selector
 10532                           ;	WDTCCS = SC, Software Control
 10533   300005                     	org	3145733
 10534   300005  FF                 	db	255
 10535                           
 10536                           ;Config register CONFIG4L @ 0x300006
 10537                           ;	Boot Block Size selection bits
 10538                           ;	BBSIZE = BBSIZE_512, Boot Block size is 512 words
 10539                           ;	Boot Block enable bit
 10540                           ;	BBEN = OFF, Boot block disabled
 10541                           ;	Storage Area Flash enable bit
 10542                           ;	SAFEN = OFF, SAF disabled
 10543                           ;	Application Block write protection bit
 10544                           ;	WRTAPP = OFF, Application Block not write protected
 10545   300006                     	org	3145734
 10546   300006  FF                 	db	255
 10547                           
 10548                           ;Config register CONFIG4H @ 0x300007
 10549                           ;	Boot Block Write Protection bit
 10550                           ;	WRTB = OFF, Boot Block not write-protected
 10551                           ;	Configuration Register Write Protection bit
 10552                           ;	WRTC = OFF, Configuration registers not write-protected
 10553                           ;	Data EEPROM Write Protection bit
 10554                           ;	WRTD = OFF, Data EEPROM not write-protected
 10555                           ;	SAF Write protection bit
 10556                           ;	WRTSAF = OFF, SAF not Write Protected
 10557                           ;	Low Voltage Programming Enable bit
 10558                           ;	LVP = ON, Low voltage programming enabled. MCLR/VPP pin function is MCLR. MCLRE config
      +                          uration bit is ignored
 10559   300007                     	org	3145735
 10560   300007  FF                 	db	255
 10561                           
 10562                           ;Config register CONFIG5L @ 0x300008
 10563                           ;	PFM and Data EEPROM Code Protection bit
 10564                           ;	CP = OFF, PFM and Data EEPROM code protection disabled
 10565   300008                     	org	3145736
 10566   300008  FF                 	db	255
 10567                           
 10568                           ;Config register CONFIG5H @ 0x300009
 10569                           ;	unspecified, using default values
 10570   300009                     	org	3145737
 10571   300009  FF                 	db	255
 10572                           tosu	equ	0x3FFF
 10573                           tosh	equ	0x3FFE
 10574                           tosl	equ	0x3FFD
 10575                           stkptr	equ	0x3FFC
 10576                           pclatu	equ	0x3FFB
 10577                           pclath	equ	0x3FFA
 10578                           pcl	equ	0x3FF9
 10579                           tblptru	equ	0x3FF8
 10580                           tblptrh	equ	0x3FF7
 10581                           tblptrl	equ	0x3FF6
 10582                           tablat	equ	0x3FF5
 10583                           prodh	equ	0x3FF4
 10584                           prodl	equ	0x3FF3
 10585                           indf0	equ	0x3FEF
 10586                           postinc0	equ	0x3FEE
 10587                           postdec0	equ	0x3FED
 10588                           preinc0	equ	0x3FEC
 10589                           plusw0	equ	0x3FEB
 10590                           fsr0h	equ	0x3FEA
 10591                           fsr0l	equ	0x3FE9
 10592                           wreg	equ	0x3FE8
 10593                           indf1	equ	0x3FE7
 10594                           postinc1	equ	0x3FE6
 10595                           postdec1	equ	0x3FE5
 10596                           preinc1	equ	0x3FE4
 10597                           plusw1	equ	0x3FE3
 10598                           fsr1h	equ	0x3FE2
 10599                           fsr1l	equ	0x3FE1
 10600                           bsr	equ	0x3FE0
 10601                           indf2	equ	0x3FDF
 10602                           postinc2	equ	0x3FDE
 10603                           postdec2	equ	0x3FDD
 10604                           preinc2	equ	0x3FDC
 10605                           plusw2	equ	0x3FDB
 10606                           fsr2h	equ	0x3FDA
 10607                           fsr2l	equ	0x3FD9
 10608                           status	equ	0x3FD8

Data Sizes:
    Strings     169
    Constant    38
    Data        17
    BSS         37
    Persistent  6
    Stack       0

Auto Spaces:
    Space          Size  Autos    Used
    COMRAM           95     89      94
    BANK0           160     35      90
    BANK1           256    255     255
    BANK2           256      0       0
    BANK3           256      0       0
    BANK4           256      0       0
    BANK5           256      0       0
    BANK6           256      0       0
    BANK7           256      0       0
    BANK8           256      0       0
    BANK9           256      0       0
    BANK10          256      0       0
    BANK11          256      0       0
    BANK12          256      0       0
    BANK13          256      0       0
    BANK14          256      0       0
    BANK15          256      0       0

Pointer List with Targets:

    i2c_write1ByteRegister@data.data	PTR unsigned char  size(2) Largest target is 0

    i2c_read1ByteRegister@d2.data	PTR unsigned char  size(2) Largest target is 0

    i2c_read2ByteRegister@result.data	PTR unsigned char  size(2) Largest target is 0

    i2c_write2ByteRegister@data.data	PTR unsigned char  size(2) Largest target is 0

    I2C1_Read1ByteRegister@returnValue.data	PTR unsigned char  size(2) Largest target is 0

    I2C1_Read2ByteRegister@returnValue.data	PTR unsigned char  size(2) Largest target is 0

    I2C1_Write1ByteRegister@data.data	PTR unsigned char  size(2) Largest target is 0

    I2C1_Write2ByteRegister@data.data	PTR unsigned char  size(2) Largest target is 0

    I2C1_DO_TX$2329$0	PTR void  size(2) Largest target is 5
		 -> I2C1_ReadDataBlock@bufferBlock(COMRAM[4]), I2C1_Write2ByteRegister@data(COMRAM[2]), I2C1_Write1ByteRegister@data(COMRAM[1]), I2C1_Read2ByteRegister@returnValue(COMRAM[2]), 
		 -> I2C1_Read1ByteRegister@returnValue(COMRAM[1]), i2c_readDataBlock@d(COMRAM[4]), i2c_write2ByteRegister@data(COMRAM[2]), i2c_read2ByteRegister@result(COMRAM[2]), 
		 -> i2c_read1ByteRegister@d2(COMRAM[1]), i2c_write1ByteRegister@data(COMRAM[1]), NULL(NULL[0]), 

    I2C1_DO_TX_EMPTY$2335$0	PTR void  size(2) Largest target is 5
		 -> I2C1_ReadDataBlock@bufferBlock(COMRAM[4]), I2C1_Write2ByteRegister@data(COMRAM[2]), I2C1_Write1ByteRegister@data(COMRAM[1]), I2C1_Read2ByteRegister@returnValue(COMRAM[2]), 
		 -> I2C1_Read1ByteRegister@returnValue(COMRAM[1]), i2c_readDataBlock@d(COMRAM[4]), i2c_write2ByteRegister@data(COMRAM[2]), i2c_read2ByteRegister@result(COMRAM[2]), 
		 -> i2c_read1ByteRegister@d2(COMRAM[1]), i2c_write1ByteRegister@data(COMRAM[1]), NULL(NULL[0]), 

    I2C1_DO_RX_EMPTY$2341$0	PTR void  size(2) Largest target is 5
		 -> I2C1_ReadDataBlock@bufferBlock(COMRAM[4]), I2C1_Write2ByteRegister@data(COMRAM[2]), I2C1_Write1ByteRegister@data(COMRAM[1]), I2C1_Read2ByteRegister@returnValue(COMRAM[2]), 
		 -> I2C1_Read1ByteRegister@returnValue(COMRAM[1]), i2c_readDataBlock@d(COMRAM[4]), i2c_write2ByteRegister@data(COMRAM[2]), i2c_read2ByteRegister@result(COMRAM[2]), 
		 -> i2c_read1ByteRegister@d2(COMRAM[1]), i2c_write1ByteRegister@data(COMRAM[1]), NULL(NULL[0]), 

    I2C1_DO_RX_EMPTY$2346	PTR void  size(2) Largest target is 5
		 -> I2C1_ReadDataBlock@bufferBlock(COMRAM[4]), I2C1_Write2ByteRegister@data(COMRAM[2]), I2C1_Write1ByteRegister@data(COMRAM[1]), I2C1_Read2ByteRegister@returnValue(COMRAM[2]), 
		 -> I2C1_Read1ByteRegister@returnValue(COMRAM[1]), i2c_readDataBlock@d(COMRAM[4]), i2c_write2ByteRegister@data(COMRAM[2]), i2c_read2ByteRegister@result(COMRAM[2]), 
		 -> i2c_read1ByteRegister@d2(COMRAM[1]), i2c_write1ByteRegister@data(COMRAM[1]), NULL(NULL[0]), 

    I2C1_DO_RX_EMPTY$2341	PTR FTN(PTR void ,)enum E360 size(2) Largest target is 1
		 -> I2C1_CallbackReturnReset(), I2C1_CallbackReturnStop(), Absolute function(), rdBlkRegCompleteHandler@i2c1_master_example$F179(), 
		 -> wr2RegCompleteHandler@i2c1_master_example$F168(), wr1RegCompleteHandler@i2c1_master_example$F162(), rd2RegCompleteHandler@i2c1_master_example$F156(), rd1RegCompleteHandler@i2c1_master_example$F145(), 
		 -> rdBlkRegCompleteHandler(), wr2RegCompleteHandler(), rd2RegCompleteHandler(), rd1RegCompleteHandler(), 
		 -> wr1RegCompleteHandler(), 

    I2C1_DO_TX_EMPTY$2340	PTR void  size(2) Largest target is 5
		 -> I2C1_ReadDataBlock@bufferBlock(COMRAM[4]), I2C1_Write2ByteRegister@data(COMRAM[2]), I2C1_Write1ByteRegister@data(COMRAM[1]), I2C1_Read2ByteRegister@returnValue(COMRAM[2]), 
		 -> I2C1_Read1ByteRegister@returnValue(COMRAM[1]), i2c_readDataBlock@d(COMRAM[4]), i2c_write2ByteRegister@data(COMRAM[2]), i2c_read2ByteRegister@result(COMRAM[2]), 
		 -> i2c_read1ByteRegister@d2(COMRAM[1]), i2c_write1ByteRegister@data(COMRAM[1]), NULL(NULL[0]), 

    I2C1_DO_TX_EMPTY$2335	PTR FTN(PTR void ,)enum E360 size(2) Largest target is 1
		 -> I2C1_CallbackReturnReset(), I2C1_CallbackReturnStop(), Absolute function(), rdBlkRegCompleteHandler@i2c1_master_example$F179(), 
		 -> wr2RegCompleteHandler@i2c1_master_example$F168(), wr1RegCompleteHandler@i2c1_master_example$F162(), rd2RegCompleteHandler@i2c1_master_example$F156(), rd1RegCompleteHandler@i2c1_master_example$F145(), 
		 -> rdBlkRegCompleteHandler(), wr2RegCompleteHandler(), rd2RegCompleteHandler(), rd1RegCompleteHandler(), 
		 -> wr1RegCompleteHandler(), 

    I2C1_DO_TX$2334	PTR void  size(2) Largest target is 5
		 -> I2C1_ReadDataBlock@bufferBlock(COMRAM[4]), I2C1_Write2ByteRegister@data(COMRAM[2]), I2C1_Write1ByteRegister@data(COMRAM[1]), I2C1_Read2ByteRegister@returnValue(COMRAM[2]), 
		 -> I2C1_Read1ByteRegister@returnValue(COMRAM[1]), i2c_readDataBlock@d(COMRAM[4]), i2c_write2ByteRegister@data(COMRAM[2]), i2c_read2ByteRegister@result(COMRAM[2]), 
		 -> i2c_read1ByteRegister@d2(COMRAM[1]), i2c_write1ByteRegister@data(COMRAM[1]), NULL(NULL[0]), 

    I2C1_DO_TX$2329	PTR FTN(PTR void ,)enum E360 size(2) Largest target is 1
		 -> I2C1_CallbackReturnReset(), I2C1_CallbackReturnStop(), Absolute function(), rdBlkRegCompleteHandler@i2c1_master_example$F179(), 
		 -> wr2RegCompleteHandler@i2c1_master_example$F168(), wr1RegCompleteHandler@i2c1_master_example$F162(), rd2RegCompleteHandler@i2c1_master_example$F156(), rd1RegCompleteHandler@i2c1_master_example$F145(), 
		 -> rdBlkRegCompleteHandler(), wr2RegCompleteHandler(), rd2RegCompleteHandler(), rd1RegCompleteHandler(), 
		 -> wr1RegCompleteHandler(), 

    I2C1_MasterFsm$2328	const PTR FTN()enum E16234 size(2) Largest target is 1
		 -> I2C1_DO_BUS_ERROR(), I2C1_DO_BUS_COLLISION(), I2C1_DO_ADDRESS_NACK(), I2C1_DO_RESET(), 
		 -> I2C1_DO_RX_NACK_RESTART(), I2C1_DO_RX_NACK_STOP(), I2C1_DO_TX_ACK(), I2C1_DO_RX_ACK(), 
		 -> I2C1_DO_SEND_STOP(), I2C1_DO_SEND_RESTART(), I2C1_DO_SEND_RESTART_WRITE(), I2C1_DO_SEND_RESTART_READ(), 
		 -> I2C1_DO_RX_EMPTY(), I2C1_DO_TX_EMPTY(), I2C1_DO_RX(), I2C1_DO_TX(), 
		 -> I2C1_DO_SEND_ADR_WRITE(), I2C1_DO_SEND_ADR_READ(), I2C1_DO_IDLE(), 

    I2C1_CallbackReturnStop@funPtr	PTR void  size(2) Largest target is 5
		 -> I2C1_ReadDataBlock@bufferBlock(COMRAM[4]), I2C1_Write2ByteRegister@data(COMRAM[2]), I2C1_Write1ByteRegister@data(COMRAM[1]), I2C1_Read2ByteRegister@returnValue(COMRAM[2]), 
		 -> I2C1_Read1ByteRegister@returnValue(COMRAM[1]), i2c_readDataBlock@d(COMRAM[4]), i2c_write2ByteRegister@data(COMRAM[2]), i2c_read2ByteRegister@result(COMRAM[2]), 
		 -> i2c_read1ByteRegister@d2(COMRAM[1]), i2c_write1ByteRegister@data(COMRAM[1]), NULL(NULL[0]), 

    I2C1_CallbackReturnReset@funPtr	PTR void  size(2) Largest target is 5
		 -> I2C1_ReadDataBlock@bufferBlock(COMRAM[4]), I2C1_Write2ByteRegister@data(COMRAM[2]), I2C1_Write1ByteRegister@data(COMRAM[1]), I2C1_Read2ByteRegister@returnValue(COMRAM[2]), 
		 -> I2C1_Read1ByteRegister@returnValue(COMRAM[1]), i2c_readDataBlock@d(COMRAM[4]), i2c_write2ByteRegister@data(COMRAM[2]), i2c_read2ByteRegister@result(COMRAM[2]), 
		 -> i2c_read1ByteRegister@d2(COMRAM[1]), i2c_write1ByteRegister@data(COMRAM[1]), NULL(NULL[0]), 

    cb$0	PTR void  size(2) Largest target is 5
		 -> I2C1_ReadDataBlock@bufferBlock(COMRAM[4]), I2C1_Write2ByteRegister@data(COMRAM[2]), I2C1_Write1ByteRegister@data(COMRAM[1]), I2C1_Read2ByteRegister@returnValue(COMRAM[2]), 
		 -> I2C1_Read1ByteRegister@returnValue(COMRAM[1]), i2c_readDataBlock@d(COMRAM[4]), i2c_write2ByteRegister@data(COMRAM[2]), i2c_read2ByteRegister@result(COMRAM[2]), 
		 -> i2c_read1ByteRegister@d2(COMRAM[1]), i2c_write1ByteRegister@data(COMRAM[1]), NULL(NULL[0]), 

    Absolute function$0	PTR void  size(2) Largest target is 5
		 -> I2C1_ReadDataBlock@bufferBlock(COMRAM[4]), I2C1_Write2ByteRegister@data(COMRAM[2]), I2C1_Write1ByteRegister@data(COMRAM[1]), I2C1_Read2ByteRegister@returnValue(COMRAM[2]), 
		 -> I2C1_Read1ByteRegister@returnValue(COMRAM[1]), i2c_readDataBlock@d(COMRAM[4]), i2c_write2ByteRegister@data(COMRAM[2]), i2c_read2ByteRegister@result(COMRAM[2]), 
		 -> i2c_read1ByteRegister@d2(COMRAM[1]), i2c_write1ByteRegister@data(COMRAM[1]), NULL(NULL[0]), 

    cb$0	PTR void  size(2) Largest target is 5
		 -> I2C1_ReadDataBlock@bufferBlock(COMRAM[4]), I2C1_Write2ByteRegister@data(COMRAM[2]), I2C1_Write1ByteRegister@data(COMRAM[1]), I2C1_Read2ByteRegister@returnValue(COMRAM[2]), 
		 -> I2C1_Read1ByteRegister@returnValue(COMRAM[1]), i2c_readDataBlock@d(COMRAM[4]), i2c_write2ByteRegister@data(COMRAM[2]), i2c_read2ByteRegister@result(COMRAM[2]), 
		 -> i2c_read1ByteRegister@d2(COMRAM[1]), i2c_write1ByteRegister@data(COMRAM[1]), NULL(NULL[0]), 

    vfprintf$2	PTR PTR void  size(2) Largest target is 2
		 -> printf@ap(COMRAM[2]), 

    vfprintf$1	PTR const unsigned char  size(2) Largest target is 50
		 -> STR_9(CODE[50]), STR_8(CODE[3]), STR_7(CODE[7]), STR_6(CODE[23]), 
		 -> STR_5(CODE[3]), STR_4(CODE[7]), STR_3(CODE[34]), STR_2(CODE[27]), 
		 -> STR_1(CODE[28]), 

    vfprintf$0	PTR struct _IO_FILE size(2) Largest target is 0
		 -> NULL(NULL[0]), 

    S602$0$0	PTR void  size(2) Largest target is 5
		 -> I2C1_ReadDataBlock@bufferBlock(COMRAM[4]), I2C1_Write2ByteRegister@data(COMRAM[2]), I2C1_Write1ByteRegister@data(COMRAM[1]), I2C1_Read2ByteRegister@returnValue(COMRAM[2]), 
		 -> I2C1_Read1ByteRegister@returnValue(COMRAM[1]), i2c_readDataBlock@d(COMRAM[4]), i2c_write2ByteRegister@data(COMRAM[2]), i2c_read2ByteRegister@result(COMRAM[2]), 
		 -> i2c_read1ByteRegister@d2(COMRAM[1]), i2c_write1ByteRegister@data(COMRAM[1]), NULL(NULL[0]), 

    cola_vacia@c	PTR struct eCola size(2) Largest target is 36
		 -> main@cola(COMRAM[36]), 

    cola_llena@c	PTR struct eCola size(2) Largest target is 36
		 -> main@cola(COMRAM[36]), 

    tam_cola@c	PTR struct eCola size(2) Largest target is 36
		 -> main@cola(COMRAM[36]), 

    cola_get@c	PTR struct eCola size(2) Largest target is 36
		 -> main@cola(COMRAM[36]), 

    cola_add@c	PTR struct eCola size(2) Largest target is 36
		 -> main@cola(COMRAM[36]), 

    inicie_cola@c	PTR struct eCola size(2) Largest target is 36
		 -> main@cola(COMRAM[36]), 

    lectura@est	PTR struct variable size(2) Largest target is 35
		 -> main@est(BANK0[35]), 

    Iniciarlizar@est	PTR struct variable size(2) Largest target is 35
		 -> main@est(BANK0[35]), 

    I2C1_SetCallback@ptr	PTR void  size(2) Largest target is 5
		 -> I2C1_ReadDataBlock@bufferBlock(COMRAM[4]), I2C1_Write2ByteRegister@data(COMRAM[2]), I2C1_Write1ByteRegister@data(COMRAM[1]), I2C1_Read2ByteRegister@returnValue(COMRAM[2]), 
		 -> I2C1_Read1ByteRegister@returnValue(COMRAM[1]), i2c_readDataBlock@d(COMRAM[4]), i2c_write2ByteRegister@data(COMRAM[2]), i2c_read2ByteRegister@result(COMRAM[2]), 
		 -> i2c_read1ByteRegister@d2(COMRAM[1]), i2c_write1ByteRegister@data(COMRAM[1]), NULL(NULL[0]), 

    I2C1_SetCallback@cb	PTR FTN(PTR void ,)enum E360 size(2) Largest target is 1
		 -> Absolute function(), rdBlkRegCompleteHandler@i2c1_master_example$F179(), wr2RegCompleteHandler@i2c1_master_example$F168(), wr1RegCompleteHandler@i2c1_master_example$F162(), 
		 -> rd2RegCompleteHandler@i2c1_master_example$F156(), rd1RegCompleteHandler@i2c1_master_example$F145(), rdBlkRegCompleteHandler(), wr2RegCompleteHandler(), 
		 -> rd2RegCompleteHandler(), rd1RegCompleteHandler(), wr1RegCompleteHandler(), 

    I2C1_SetAddressNackCallback@ptr	PTR void  size(2) Largest target is 0
		 -> NULL(NULL[0]), 

    I2C1_SetAddressNackCallback@cb	PTR FTN(PTR void ,)enum E360 size(2) Largest target is 1
		 -> Absolute function(), 

    I2C1_SetDataCompleteCallback@ptr	PTR void  size(2) Largest target is 5
		 -> I2C1_ReadDataBlock@bufferBlock(COMRAM[4]), I2C1_Write2ByteRegister@data(COMRAM[2]), I2C1_Write1ByteRegister@data(COMRAM[1]), I2C1_Read2ByteRegister@returnValue(COMRAM[2]), 
		 -> I2C1_Read1ByteRegister@returnValue(COMRAM[1]), i2c_readDataBlock@d(COMRAM[4]), i2c_write2ByteRegister@data(COMRAM[2]), i2c_read2ByteRegister@result(COMRAM[2]), 
		 -> i2c_read1ByteRegister@d2(COMRAM[1]), i2c_write1ByteRegister@data(COMRAM[1]), NULL(NULL[0]), 

    I2C1_SetDataCompleteCallback@cb	PTR FTN(PTR void ,)enum E360 size(2) Largest target is 1
		 -> Absolute function(), rdBlkRegCompleteHandler@i2c1_master_example$F179(), wr2RegCompleteHandler@i2c1_master_example$F168(), wr1RegCompleteHandler@i2c1_master_example$F162(), 
		 -> rd2RegCompleteHandler@i2c1_master_example$F156(), rd1RegCompleteHandler@i2c1_master_example$F145(), rdBlkRegCompleteHandler(), wr2RegCompleteHandler(), 
		 -> rd2RegCompleteHandler(), rd1RegCompleteHandler(), wr1RegCompleteHandler(), 

    I2C1_SetBuffer@buffer	PTR void  size(2) Largest target is 255
		 -> i2c_write1ByteRegister@data.data(COMRAM[3]), i2c_read1ByteRegister@d2.data(COMRAM[3]), i2c_read2ByteRegister@result.data(COMRAM[3]), i2c_write2ByteRegister@data.data(COMRAM[3]), 
		 -> I2C1_Read1ByteRegister@returnValue.data(COMRAM[3]), I2C1_Read2ByteRegister@returnValue.data(COMRAM[3]), I2C1_Write1ByteRegister@data.data(COMRAM[3]), I2C1_Write2ByteRegister@data.data(COMRAM[3]), 
		 -> main@datosRecibidos(BANK1[255]), main@datosEnvio(COMRAM[18]), I2CSIMPLE_example@receiveData(COMRAM[15]), I2CSIMPLE_example@sendData(COMRAM[17]), 
		 -> I2C1_ReadDataBlock@reg(COMRAM[1]), I2C1_ReadDataBlock@bufferBlock(COMRAM[4]), bufferBlock.data(COMRAM[3]), I2C1_Write2ByteRegister@reg(COMRAM[1]), 
		 -> I2C1_Write2ByteRegister@data(COMRAM[2]), I2C1_Write1ByteRegister@reg(COMRAM[1]), I2C1_Write1ByteRegister@data(COMRAM[1]), I2C1_Read2ByteRegister@reg(COMRAM[1]), 
		 -> I2C1_Read2ByteRegister@returnValue(COMRAM[2]), I2C1_Read1ByteRegister@reg(COMRAM[1]), I2C1_Read1ByteRegister@returnValue(COMRAM[1]), i2c_readDataBlock@reg(COMRAM[1]), 
		 -> i2c_readDataBlock@d(COMRAM[4]), d.data(COMRAM[3]), i2c_write2ByteRegister@reg(COMRAM[1]), i2c_write2ByteRegister@data(COMRAM[2]), 
		 -> i2c_read2ByteRegister@reg(COMRAM[1]), i2c_read2ByteRegister@result(COMRAM[2]), i2c_read1ByteRegister@reg(COMRAM[1]), i2c_read1ByteRegister@d2(COMRAM[1]), 
		 -> i2c_write1ByteRegister@reg(COMRAM[1]), i2c_write1ByteRegister@data(COMRAM[1]), NULL(NULL[0]), 

    S602$data_ptr	PTR unsigned char  size(2) Largest target is 255
		 -> main@datosRecibidos(BANK1[255]), main@datosEnvio(COMRAM[18]), I2CSIMPLE_example@receiveData(COMRAM[15]), I2CSIMPLE_example@sendData(COMRAM[17]), 
		 -> I2C1_ReadDataBlock@reg(COMRAM[1]), I2C1_ReadDataBlock@bufferBlock(COMRAM[4]), I2C1_Write2ByteRegister@reg(COMRAM[1]), I2C1_Write2ByteRegister@data(COMRAM[2]), 
		 -> I2C1_Write1ByteRegister@reg(COMRAM[1]), I2C1_Write1ByteRegister@data(COMRAM[1]), I2C1_Read2ByteRegister@reg(COMRAM[1]), I2C1_Read2ByteRegister@returnValue(COMRAM[2]), 
		 -> I2C1_Read1ByteRegister@reg(COMRAM[1]), I2C1_Read1ByteRegister@returnValue(COMRAM[1]), i2c_readDataBlock@reg(COMRAM[1]), i2c_readDataBlock@d(COMRAM[4]), 
		 -> i2c_write2ByteRegister@reg(COMRAM[1]), i2c_write2ByteRegister@data(COMRAM[2]), i2c_read2ByteRegister@reg(COMRAM[1]), i2c_read2ByteRegister@result(COMRAM[2]), 
		 -> i2c_read1ByteRegister@reg(COMRAM[1]), i2c_read1ByteRegister@d2(COMRAM[1]), i2c_write1ByteRegister@reg(COMRAM[1]), i2c_write1ByteRegister@data(COMRAM[1]), 
		 -> NULL(NULL[0]), 

    I2C1_Status.data_ptr	PTR unsigned char  size(2) Largest target is 255
		 -> i2c_write1ByteRegister@data.data(COMRAM[3]), i2c_read1ByteRegister@d2.data(COMRAM[3]), i2c_read2ByteRegister@result.data(COMRAM[3]), i2c_write2ByteRegister@data.data(COMRAM[3]), 
		 -> I2C1_Read1ByteRegister@returnValue.data(COMRAM[3]), I2C1_Read2ByteRegister@returnValue.data(COMRAM[3]), I2C1_Write1ByteRegister@data.data(COMRAM[3]), I2C1_Write2ByteRegister@data.data(COMRAM[3]), 
		 -> main@datosRecibidos(BANK1[255]), main@datosEnvio(COMRAM[18]), I2CSIMPLE_example@receiveData(COMRAM[15]), I2CSIMPLE_example@sendData(COMRAM[17]), 
		 -> I2C1_ReadDataBlock@reg(COMRAM[1]), I2C1_ReadDataBlock@bufferBlock(COMRAM[4]), bufferBlock.data(COMRAM[3]), I2C1_Write2ByteRegister@reg(COMRAM[1]), 
		 -> I2C1_Write2ByteRegister@data(COMRAM[2]), I2C1_Write1ByteRegister@reg(COMRAM[1]), I2C1_Write1ByteRegister@data(COMRAM[1]), I2C1_Read2ByteRegister@reg(COMRAM[1]), 
		 -> I2C1_Read2ByteRegister@returnValue(COMRAM[2]), I2C1_Read1ByteRegister@reg(COMRAM[1]), I2C1_Read1ByteRegister@returnValue(COMRAM[1]), i2c_readDataBlock@reg(COMRAM[1]), 
		 -> i2c_readDataBlock@d(COMRAM[4]), d.data(COMRAM[3]), i2c_write2ByteRegister@reg(COMRAM[1]), i2c_write2ByteRegister@data(COMRAM[2]), 
		 -> i2c_read2ByteRegister@reg(COMRAM[1]), i2c_read2ByteRegister@result(COMRAM[2]), i2c_read1ByteRegister@reg(COMRAM[1]), i2c_read1ByteRegister@d2(COMRAM[1]), 
		 -> i2c_write1ByteRegister@reg(COMRAM[1]), i2c_write1ByteRegister@data(COMRAM[1]), NULL(NULL[0]), 

    S602$callbackPayload	PTR void [6] size(2) Largest target is 5
		 -> I2C1_ReadDataBlock@bufferBlock(COMRAM[4]), I2C1_Write2ByteRegister@data(COMRAM[2]), I2C1_Write1ByteRegister@data(COMRAM[1]), I2C1_Read2ByteRegister@returnValue(COMRAM[2]), 
		 -> I2C1_Read1ByteRegister@returnValue(COMRAM[1]), i2c_readDataBlock@d(COMRAM[4]), i2c_write2ByteRegister@data(COMRAM[2]), i2c_read2ByteRegister@result(COMRAM[2]), 
		 -> i2c_read1ByteRegister@d2(COMRAM[1]), i2c_write1ByteRegister@data(COMRAM[1]), NULL(NULL[0]), 

    I2C1_Status.callbackPayload	PTR void [6] size(2) Largest target is 5
		 -> I2C1_ReadDataBlock@bufferBlock(COMRAM[4]), I2C1_Write2ByteRegister@data(COMRAM[2]), I2C1_Write1ByteRegister@data(COMRAM[1]), I2C1_Read2ByteRegister@returnValue(COMRAM[2]), 
		 -> I2C1_Read1ByteRegister@returnValue(COMRAM[1]), i2c_readDataBlock@d(COMRAM[4]), i2c_write2ByteRegister@data(COMRAM[2]), i2c_read2ByteRegister@result(COMRAM[2]), 
		 -> i2c_read1ByteRegister@d2(COMRAM[1]), i2c_write1ByteRegister@data(COMRAM[1]), NULL(NULL[0]), 

    S602$callbackTable	PTR FTN(PTR void ,)enum E360[6] size(2) Largest target is 1
		 -> I2C1_CallbackReturnReset(), I2C1_CallbackReturnStop(), Absolute function(), rdBlkRegCompleteHandler@i2c1_master_example$F179(), 
		 -> wr2RegCompleteHandler@i2c1_master_example$F168(), wr1RegCompleteHandler@i2c1_master_example$F162(), rd2RegCompleteHandler@i2c1_master_example$F156(), rd1RegCompleteHandler@i2c1_master_example$F145(), 
		 -> rdBlkRegCompleteHandler(), wr2RegCompleteHandler(), rd2RegCompleteHandler(), rd1RegCompleteHandler(), 
		 -> wr1RegCompleteHandler(), 

    I2C1_Status.callbackTable	PTR FTN(PTR void ,)enum E360[6] size(2) Largest target is 1
		 -> I2C1_CallbackReturnReset(), I2C1_CallbackReturnStop(), Absolute function(), rdBlkRegCompleteHandler@i2c1_master_example$F179(), 
		 -> wr2RegCompleteHandler@i2c1_master_example$F168(), wr1RegCompleteHandler@i2c1_master_example$F162(), rd2RegCompleteHandler@i2c1_master_example$F156(), rd1RegCompleteHandler@i2c1_master_example$F145(), 
		 -> rdBlkRegCompleteHandler(), wr2RegCompleteHandler(), rd2RegCompleteHandler(), rd1RegCompleteHandler(), 
		 -> wr1RegCompleteHandler(), 

    i2c1_fsmStateTable	const PTR FTN()enum E16234[19] size(2) Largest target is 1
		 -> I2C1_DO_BUS_ERROR(), I2C1_DO_BUS_COLLISION(), I2C1_DO_ADDRESS_NACK(), I2C1_DO_RESET(), 
		 -> I2C1_DO_RX_NACK_RESTART(), I2C1_DO_RX_NACK_STOP(), I2C1_DO_TX_ACK(), I2C1_DO_RX_ACK(), 
		 -> I2C1_DO_SEND_STOP(), I2C1_DO_SEND_RESTART(), I2C1_DO_SEND_RESTART_WRITE(), I2C1_DO_SEND_RESTART_READ(), 
		 -> I2C1_DO_RX_EMPTY(), I2C1_DO_TX_EMPTY(), I2C1_DO_RX(), I2C1_DO_TX(), 
		 -> I2C1_DO_SEND_ADR_WRITE(), I2C1_DO_SEND_ADR_READ(), I2C1_DO_IDLE(), 

    UART1_SetErrorHandler@interruptHandler	PTR FTN()void  size(2) Largest target is 1
		 -> UART1_DefaultErrorHandler(), 

    UART1_SetOverrunErrorHandler@interruptHandler	PTR FTN()void  size(2) Largest target is 1
		 -> UART1_DefaultOverrunErrorHandler(), 

    UART1_SetFramingErrorHandler@interruptHandler	PTR FTN()void  size(2) Largest target is 1
		 -> UART1_DefaultFramingErrorHandler(), 

    UART1_ErrorHandler	PTR FTN()void  size(2) Largest target is 1
		 -> Absolute function(), UART1_DefaultErrorHandler(), 

    UART1_OverrunErrorHandler	PTR FTN()void  size(2) Largest target is 1
		 -> Absolute function(), UART1_DefaultOverrunErrorHandler(), 

    UART1_FramingErrorHandler	PTR FTN()void  size(2) Largest target is 1
		 -> Absolute function(), UART1_DefaultFramingErrorHandler(), 

    rdBlkRegCompleteHandler@i2c1_master_example$F179@ptr.data	PTR unsigned char  size(2) Largest target is 0

    rdBlkRegCompleteHandler@i2c1_master_example$F179@ptr	PTR void  size(2) Largest target is 5
		 -> I2C1_ReadDataBlock@bufferBlock(COMRAM[4]), I2C1_Write2ByteRegister@data(COMRAM[2]), I2C1_Write1ByteRegister@data(COMRAM[1]), I2C1_Read2ByteRegister@returnValue(COMRAM[2]), 
		 -> I2C1_Read1ByteRegister@returnValue(COMRAM[1]), i2c_readDataBlock@d(COMRAM[4]), i2c_write2ByteRegister@data(COMRAM[2]), i2c_read2ByteRegister@result(COMRAM[2]), 
		 -> i2c_read1ByteRegister@d2(COMRAM[1]), i2c_write1ByteRegister@data(COMRAM[1]), NULL(NULL[0]), 

    wr2RegCompleteHandler@i2c1_master_example$F168@ptr	PTR void  size(2) Largest target is 5
		 -> I2C1_ReadDataBlock@bufferBlock(COMRAM[4]), I2C1_Write2ByteRegister@data(COMRAM[2]), I2C1_Write1ByteRegister@data(COMRAM[1]), I2C1_Read2ByteRegister@returnValue(COMRAM[2]), 
		 -> I2C1_Read1ByteRegister@returnValue(COMRAM[1]), i2c_readDataBlock@d(COMRAM[4]), i2c_write2ByteRegister@data(COMRAM[2]), i2c_read2ByteRegister@result(COMRAM[2]), 
		 -> i2c_read1ByteRegister@d2(COMRAM[1]), i2c_write1ByteRegister@data(COMRAM[1]), NULL(NULL[0]), 

    wr1RegCompleteHandler@i2c1_master_example$F162@ptr	PTR void  size(2) Largest target is 5
		 -> I2C1_ReadDataBlock@bufferBlock(COMRAM[4]), I2C1_Write2ByteRegister@data(COMRAM[2]), I2C1_Write1ByteRegister@data(COMRAM[1]), I2C1_Read2ByteRegister@returnValue(COMRAM[2]), 
		 -> I2C1_Read1ByteRegister@returnValue(COMRAM[1]), i2c_readDataBlock@d(COMRAM[4]), i2c_write2ByteRegister@data(COMRAM[2]), i2c_read2ByteRegister@result(COMRAM[2]), 
		 -> i2c_read1ByteRegister@d2(COMRAM[1]), i2c_write1ByteRegister@data(COMRAM[1]), NULL(NULL[0]), 

    rd2RegCompleteHandler@i2c1_master_example$F156@ptr	PTR void  size(2) Largest target is 5
		 -> I2C1_ReadDataBlock@bufferBlock(COMRAM[4]), I2C1_Write2ByteRegister@data(COMRAM[2]), I2C1_Write1ByteRegister@data(COMRAM[1]), I2C1_Read2ByteRegister@returnValue(COMRAM[2]), 
		 -> I2C1_Read1ByteRegister@returnValue(COMRAM[1]), i2c_readDataBlock@d(COMRAM[4]), i2c_write2ByteRegister@data(COMRAM[2]), i2c_read2ByteRegister@result(COMRAM[2]), 
		 -> i2c_read1ByteRegister@d2(COMRAM[1]), i2c_write1ByteRegister@data(COMRAM[1]), NULL(NULL[0]), 

    rd1RegCompleteHandler@i2c1_master_example$F145@ptr	PTR void  size(2) Largest target is 5
		 -> I2C1_ReadDataBlock@bufferBlock(COMRAM[4]), I2C1_Write2ByteRegister@data(COMRAM[2]), I2C1_Write1ByteRegister@data(COMRAM[1]), I2C1_Read2ByteRegister@returnValue(COMRAM[2]), 
		 -> I2C1_Read1ByteRegister@returnValue(COMRAM[1]), i2c_readDataBlock@d(COMRAM[4]), i2c_write2ByteRegister@data(COMRAM[2]), i2c_read2ByteRegister@result(COMRAM[2]), 
		 -> i2c_read1ByteRegister@d2(COMRAM[1]), i2c_write1ByteRegister@data(COMRAM[1]), NULL(NULL[0]), 

    bufferBlock.data	PTR unsigned char  size(2) Largest target is 0

    i2c_readNBytes@data	PTR void  size(2) Largest target is 255
		 -> main@datosRecibidos(BANK1[255]), I2CSIMPLE_example@receiveData(COMRAM[15]), 

    d.data	PTR unsigned char  size(2) Largest target is 0

    S76$data	PTR unsigned char  size(2) Largest target is 0

    rdBlkRegCompleteHandler@p.data	PTR unsigned char  size(2) Largest target is 0

    rdBlkRegCompleteHandler@p	PTR void  size(2) Largest target is 5
		 -> I2C1_ReadDataBlock@bufferBlock(COMRAM[4]), I2C1_Write2ByteRegister@data(COMRAM[2]), I2C1_Write1ByteRegister@data(COMRAM[1]), I2C1_Read2ByteRegister@returnValue(COMRAM[2]), 
		 -> I2C1_Read1ByteRegister@returnValue(COMRAM[1]), i2c_readDataBlock@d(COMRAM[4]), i2c_write2ByteRegister@data(COMRAM[2]), i2c_read2ByteRegister@result(COMRAM[2]), 
		 -> i2c_read1ByteRegister@d2(COMRAM[1]), i2c_write1ByteRegister@data(COMRAM[1]), NULL(NULL[0]), 

    wr2RegCompleteHandler@p	PTR void  size(2) Largest target is 5
		 -> I2C1_ReadDataBlock@bufferBlock(COMRAM[4]), I2C1_Write2ByteRegister@data(COMRAM[2]), I2C1_Write1ByteRegister@data(COMRAM[1]), I2C1_Read2ByteRegister@returnValue(COMRAM[2]), 
		 -> I2C1_Read1ByteRegister@returnValue(COMRAM[1]), i2c_readDataBlock@d(COMRAM[4]), i2c_write2ByteRegister@data(COMRAM[2]), i2c_read2ByteRegister@result(COMRAM[2]), 
		 -> i2c_read1ByteRegister@d2(COMRAM[1]), i2c_write1ByteRegister@data(COMRAM[1]), NULL(NULL[0]), 

    rd2RegCompleteHandler@p	PTR void  size(2) Largest target is 5
		 -> I2C1_ReadDataBlock@bufferBlock(COMRAM[4]), I2C1_Write2ByteRegister@data(COMRAM[2]), I2C1_Write1ByteRegister@data(COMRAM[1]), I2C1_Read2ByteRegister@returnValue(COMRAM[2]), 
		 -> I2C1_Read1ByteRegister@returnValue(COMRAM[1]), i2c_readDataBlock@d(COMRAM[4]), i2c_write2ByteRegister@data(COMRAM[2]), i2c_read2ByteRegister@result(COMRAM[2]), 
		 -> i2c_read1ByteRegister@d2(COMRAM[1]), i2c_write1ByteRegister@data(COMRAM[1]), NULL(NULL[0]), 

    rd1RegCompleteHandler@p	PTR void  size(2) Largest target is 5
		 -> I2C1_ReadDataBlock@bufferBlock(COMRAM[4]), I2C1_Write2ByteRegister@data(COMRAM[2]), I2C1_Write1ByteRegister@data(COMRAM[1]), I2C1_Read2ByteRegister@returnValue(COMRAM[2]), 
		 -> I2C1_Read1ByteRegister@returnValue(COMRAM[1]), i2c_readDataBlock@d(COMRAM[4]), i2c_write2ByteRegister@data(COMRAM[2]), i2c_read2ByteRegister@result(COMRAM[2]), 
		 -> i2c_read1ByteRegister@d2(COMRAM[1]), i2c_write1ByteRegister@data(COMRAM[1]), NULL(NULL[0]), 

    i2c_writeNBytes@data	PTR void  size(2) Largest target is 18
		 -> main@datosEnvio(COMRAM[18]), I2CSIMPLE_example@receiveData(COMRAM[15]), I2CSIMPLE_example@sendData(COMRAM[17]), 

    wr1RegCompleteHandler@p	PTR void  size(2) Largest target is 5
		 -> I2C1_ReadDataBlock@bufferBlock(COMRAM[4]), I2C1_Write2ByteRegister@data(COMRAM[2]), I2C1_Write1ByteRegister@data(COMRAM[1]), I2C1_Read2ByteRegister@returnValue(COMRAM[2]), 
		 -> I2C1_Read1ByteRegister@returnValue(COMRAM[1]), i2c_readDataBlock@d(COMRAM[4]), i2c_write2ByteRegister@data(COMRAM[2]), i2c_read2ByteRegister@result(COMRAM[2]), 
		 -> i2c_read1ByteRegister@d2(COMRAM[1]), i2c_write1ByteRegister@data(COMRAM[1]), NULL(NULL[0]), 


Critical Paths under _main in COMRAM

    _main->_i2c_readNBytes
    _main->_i2c_writeNBytes
    _lectura->_cola_get
    _I2C1_SetAddressNackCallback->_I2C1_SetCallback
    _I2C1_MasterWrite->_I2C1_MasterOperation
    _I2C1_MasterRead->_I2C1_MasterOperation
    _I2C1_Poller->_I2C1_MasterFsm
    _I2C1_MasterFsm->_I2C1_DO_TX
    _I2C1_DO_TX->_I2C1_CallbackReturnReset
    _I2C1_DO_TX->_I2C1_CallbackReturnStop
    _I2C1_DO_TX->_rd1RegCompleteHandler
    _I2C1_DO_TX->_rd1RegCompleteHandler@i2c1_master_example$F145
    _I2C1_DO_TX->_rd2RegCompleteHandler
    _I2C1_DO_TX->_rd2RegCompleteHandler@i2c1_master_example$F156
    _I2C1_DO_TX->_rdBlkRegCompleteHandler
    _I2C1_DO_TX->_rdBlkRegCompleteHandler@i2c1_master_example$F179
    _I2C1_DO_TX->_wr1RegCompleteHandler
    _I2C1_DO_TX->_wr1RegCompleteHandler@i2c1_master_example$F162
    _I2C1_DO_TX->_wr2RegCompleteHandler
    _I2C1_DO_TX->_wr2RegCompleteHandler@i2c1_master_example$F168
    _I2C1_DO_TX_EMPTY->_I2C1_CallbackReturnReset
    _I2C1_DO_TX_EMPTY->_I2C1_CallbackReturnStop
    _I2C1_DO_TX_EMPTY->_rd1RegCompleteHandler
    _I2C1_DO_TX_EMPTY->_rd1RegCompleteHandler@i2c1_master_example$F145
    _I2C1_DO_TX_EMPTY->_rd2RegCompleteHandler
    _I2C1_DO_TX_EMPTY->_rd2RegCompleteHandler@i2c1_master_example$F156
    _I2C1_DO_TX_EMPTY->_rdBlkRegCompleteHandler
    _I2C1_DO_TX_EMPTY->_rdBlkRegCompleteHandler@i2c1_master_example$F179
    _I2C1_DO_TX_EMPTY->_wr1RegCompleteHandler
    _I2C1_DO_TX_EMPTY->_wr1RegCompleteHandler@i2c1_master_example$F162
    _I2C1_DO_TX_EMPTY->_wr2RegCompleteHandler
    _I2C1_DO_TX_EMPTY->_wr2RegCompleteHandler@i2c1_master_example$F168
    _I2C1_DO_SEND_STOP->_I2C1_MasterSendTxData
    _I2C1_DO_SEND_STOP->_I2C1_MasterSetCounter
    _I2C1_DO_RX->_I2C1_DO_RX_EMPTY
    _I2C1_DO_BUS_COLLISION->_I2C1_CallbackReturnReset
    _I2C1_DO_BUS_COLLISION->_I2C1_CallbackReturnStop
    _I2C1_DO_BUS_COLLISION->_rd1RegCompleteHandler
    _I2C1_DO_BUS_COLLISION->_rd1RegCompleteHandler@i2c1_master_example$F145
    _I2C1_DO_BUS_COLLISION->_rd2RegCompleteHandler
    _I2C1_DO_BUS_COLLISION->_rd2RegCompleteHandler@i2c1_master_example$F156
    _I2C1_DO_BUS_COLLISION->_rdBlkRegCompleteHandler
    _I2C1_DO_BUS_COLLISION->_rdBlkRegCompleteHandler@i2c1_master_example$F179
    _I2C1_DO_BUS_COLLISION->_wr1RegCompleteHandler
    _I2C1_DO_BUS_COLLISION->_wr1RegCompleteHandler@i2c1_master_example$F162
    _I2C1_DO_BUS_COLLISION->_wr2RegCompleteHandler
    _I2C1_DO_BUS_COLLISION->_wr2RegCompleteHandler@i2c1_master_example$F168
    _I2C1_DO_SEND_RESTART_READ->_I2C1_MasterSetCounter
    _I2C1_DO_RX_EMPTY->_I2C1_CallbackReturnReset
    _I2C1_DO_RX_EMPTY->_I2C1_CallbackReturnStop
    _I2C1_DO_RX_EMPTY->_rd1RegCompleteHandler
    _I2C1_DO_RX_EMPTY->_rd1RegCompleteHandler@i2c1_master_example$F145
    _I2C1_DO_RX_EMPTY->_rd2RegCompleteHandler
    _I2C1_DO_RX_EMPTY->_rd2RegCompleteHandler@i2c1_master_example$F156
    _I2C1_DO_RX_EMPTY->_rdBlkRegCompleteHandler
    _I2C1_DO_RX_EMPTY->_rdBlkRegCompleteHandler@i2c1_master_example$F179
    _I2C1_DO_RX_EMPTY->_wr1RegCompleteHandler
    _I2C1_DO_RX_EMPTY->_wr1RegCompleteHandler@i2c1_master_example$F162
    _I2C1_DO_RX_EMPTY->_wr2RegCompleteHandler
    _I2C1_DO_RX_EMPTY->_wr2RegCompleteHandler@i2c1_master_example$F168
    _I2C1_DO_ADDRESS_NACK->_I2C1_CallbackReturnReset
    _I2C1_DO_ADDRESS_NACK->_I2C1_CallbackReturnStop
    _I2C1_DO_ADDRESS_NACK->_rd1RegCompleteHandler
    _I2C1_DO_ADDRESS_NACK->_rd1RegCompleteHandler@i2c1_master_example$F145
    _I2C1_DO_ADDRESS_NACK->_rd2RegCompleteHandler
    _I2C1_DO_ADDRESS_NACK->_rd2RegCompleteHandler@i2c1_master_example$F156
    _I2C1_DO_ADDRESS_NACK->_rdBlkRegCompleteHandler
    _I2C1_DO_ADDRESS_NACK->_rdBlkRegCompleteHandler@i2c1_master_example$F179
    _I2C1_DO_ADDRESS_NACK->_wr1RegCompleteHandler
    _I2C1_DO_ADDRESS_NACK->_wr1RegCompleteHandler@i2c1_master_example$F162
    _I2C1_DO_ADDRESS_NACK->_wr2RegCompleteHandler
    _I2C1_DO_ADDRESS_NACK->_wr2RegCompleteHandler@i2c1_master_example$F168
    _wr2RegCompleteHandler@i2c1_master_example$F168->_I2C1_SetDataCompleteCallback
    _wr2RegCompleteHandler->_I2C1_SetDataCompleteCallback
    _wr1RegCompleteHandler@i2c1_master_example$F162->_I2C1_SetDataCompleteCallback
    _wr1RegCompleteHandler->_I2C1_SetDataCompleteCallback
    _rdBlkRegCompleteHandler@i2c1_master_example$F179->_I2C1_SetDataCompleteCallback
    _rdBlkRegCompleteHandler->_I2C1_SetDataCompleteCallback
    _rd2RegCompleteHandler@i2c1_master_example$F156->_I2C1_SetDataCompleteCallback
    _rd2RegCompleteHandler->_I2C1_SetDataCompleteCallback
    _rd1RegCompleteHandler@i2c1_master_example$F145->_I2C1_SetDataCompleteCallback
    _rd1RegCompleteHandler->_I2C1_SetDataCompleteCallback
    _I2C1_SetDataCompleteCallback->_I2C1_SetCallback
    _cola_get->_cola_vacia
    _cola_add->_cola_llena
    _UART1_Initialize->_UART1_SetErrorHandler
    _UART1_Initialize->_UART1_SetFramingErrorHandler
    _UART1_Initialize->_UART1_SetOverrunErrorHandler

Critical Paths under _main in BANK0

    None.

Critical Paths under _main in BANK1

    None.

Critical Paths under _main in BANK2

    None.

Critical Paths under _main in BANK3

    None.

Critical Paths under _main in BANK4

    None.

Critical Paths under _main in BANK5

    None.

Critical Paths under _main in BANK6

    None.

Critical Paths under _main in BANK7

    None.

Critical Paths under _main in BANK8

    None.

Critical Paths under _main in BANK9

    None.

Critical Paths under _main in BANK10

    None.

Critical Paths under _main in BANK11

    None.

Critical Paths under _main in BANK12

    None.

Critical Paths under _main in BANK13

    None.

Critical Paths under _main in BANK14

    None.

Critical Paths under _main in BANK15

    None.

Call Graph Tables:

 ---------------------------------------------------------------------------------
 (Depth) Function   	        Calls       Base Space   Used Autos Params    Refs
 ---------------------------------------------------------------------------------
 (0) _main                                               353   353      0 1880376
                                             26 COMRAM    63    63      0
                                              0 BANK0     35    35      0
                                              0 BANK1    255   255      0
                       _Iniciarlizar
                  _SYSTEM_Initialize
                         _UART1_Read
                        _UART1_Write
                  _UART1_is_rx_ready
                           _cola_add
                           _cola_get
                     _i2c_readNBytes
                    _i2c_writeNBytes
                        _inicie_cola
                            _lectura
                           _tam_cola
 ---------------------------------------------------------------------------------
 (1) _tam_cola                                             2     0      2      98
                                              0 COMRAM     2     0      2
 ---------------------------------------------------------------------------------
 (1) _lectura                                              8     6      2    4740
                                              9 COMRAM     8     6      2
                           _cola_get (ARG)
 ---------------------------------------------------------------------------------
 (1) _inicie_cola                                          2     0      2     142
                                              0 COMRAM     2     0      2
 ---------------------------------------------------------------------------------
 (1) _i2c_writeNBytes                                      5     1      4  937619
                                             21 COMRAM     5     1      4
                         _I2C1_Close
                   _I2C1_MasterWrite
                          _I2C1_Open
        _I2C1_SetAddressNackCallback
                     _I2C1_SetBuffer
 ---------------------------------------------------------------------------------
 (2) _I2C1_SetAddressNackCallback                          4     0      4    2782
                                              5 COMRAM     4     0      4
                   _I2C1_SetCallback
 ---------------------------------------------------------------------------------
 (2) _I2C1_MasterWrite                                     0     0      0  929793
               _I2C1_MasterOperation
 ---------------------------------------------------------------------------------
 (1) _i2c_readNBytes                                       5     1      4  934229
                                             21 COMRAM     5     1      4
                         _I2C1_Close
                    _I2C1_MasterRead
                          _I2C1_Open
                     _I2C1_SetBuffer
 ---------------------------------------------------------------------------------
 (2) _I2C1_Open                                            2     2      0      46
                                              0 COMRAM     2     2      0
                _I2C1_MasterClearIrq
                    _I2C1_MasterOpen
 ---------------------------------------------------------------------------------
 (3) _I2C1_MasterOpen                                      0     0      0       0
 ---------------------------------------------------------------------------------
 (2) _I2C1_MasterRead                                      0     0      0  929793
               _I2C1_MasterOperation
 ---------------------------------------------------------------------------------
 (3) _I2C1_MasterOperation                                 2     2      0  929793
                                             19 COMRAM     2     2      0
              _I2C1_DO_SEND_ADR_READ
             _I2C1_DO_SEND_ADR_WRITE
              _I2C1_MasterSetCounter
                        _I2C1_Poller
 ---------------------------------------------------------------------------------
 (4) _I2C1_Poller                                          0     0      0  852230
                     _I2C1_MasterFsm
            _I2C1_MasterWaitForEvent
 ---------------------------------------------------------------------------------
 (5) _I2C1_MasterWaitForEvent                              0     0      0       0
 ---------------------------------------------------------------------------------
 (5) _I2C1_MasterFsm                                       2     2      0  852230
                                             17 COMRAM     2     2      0
           _I2C1_ClearInterruptFlags
               _I2C1_DO_ADDRESS_NACK *
              _I2C1_DO_BUS_COLLISION *
                  _I2C1_DO_BUS_ERROR *
                       _I2C1_DO_IDLE *
                      _I2C1_DO_RESET *
                         _I2C1_DO_RX *
                     _I2C1_DO_RX_ACK *
                   _I2C1_DO_RX_EMPTY *
            _I2C1_DO_RX_NACK_RESTART *
               _I2C1_DO_RX_NACK_STOP *
              _I2C1_DO_SEND_ADR_READ *
             _I2C1_DO_SEND_ADR_WRITE *
               _I2C1_DO_SEND_RESTART *
          _I2C1_DO_SEND_RESTART_READ *
         _I2C1_DO_SEND_RESTART_WRITE *
                  _I2C1_DO_SEND_STOP *
                         _I2C1_DO_TX *
                     _I2C1_DO_TX_ACK *
                   _I2C1_DO_TX_EMPTY *
                  _I2C1_MasterIsNack
 ---------------------------------------------------------------------------------
 (6) _I2C1_DO_TX_ACK                                       0     0      0       0
                 _I2C1_MasterSendAck
 ---------------------------------------------------------------------------------
 (6) _I2C1_DO_TX                                           6     6      0  232467
                                             11 COMRAM     6     6      0
                   Absolute function *
           _I2C1_CallbackReturnReset *
            _I2C1_CallbackReturnStop *
          _I2C1_DO_SEND_RESTART_READ
         _I2C1_DO_SEND_RESTART_WRITE
                   _I2C1_DO_TX_EMPTY
                  _I2C1_MasterIsNack
            _I2C1_MasterIsTxBufEmpty
              _I2C1_MasterSendTxData
              _rd1RegCompleteHandler *
_rd1RegCompleteHandler@i2c1_master_e *
              _rd2RegCompleteHandler *
_rd2RegCompleteHandler@i2c1_master_e *
            _rdBlkRegCompleteHandler *
_rdBlkRegCompleteHandler@i2c1_master *
              _wr1RegCompleteHandler *
_wr1RegCompleteHandler@i2c1_master_e *
              _wr2RegCompleteHandler *
_wr2RegCompleteHandler@i2c1_master_e *
 ---------------------------------------------------------------------------------
 (7) _I2C1_MasterIsTxBufEmpty                              0     0      0       0
 ---------------------------------------------------------------------------------
 (6) _I2C1_MasterIsNack                                    0     0      0       0
 ---------------------------------------------------------------------------------
 (6) _I2C1_DO_TX_EMPTY                                     2     2      0   77451
                                             11 COMRAM     2     2      0
                   Absolute function *
           _I2C1_CallbackReturnReset *
            _I2C1_CallbackReturnStop *
          _I2C1_MasterDisableRestart
           _I2C1_MasterEnableRestart
              _I2C1_MasterSetCounter
              _rd1RegCompleteHandler *
_rd1RegCompleteHandler@i2c1_master_e *
              _rd2RegCompleteHandler *
_rd2RegCompleteHandler@i2c1_master_e *
            _rdBlkRegCompleteHandler *
_rdBlkRegCompleteHandler@i2c1_master *
              _wr1RegCompleteHandler *
_wr1RegCompleteHandler@i2c1_master_e *
              _wr2RegCompleteHandler *
_wr2RegCompleteHandler@i2c1_master_e *
 ---------------------------------------------------------------------------------
 (6) _I2C1_DO_SEND_STOP                                    0     0      0      44
              _I2C1_MasterGetCounter
              _I2C1_MasterSendTxData
              _I2C1_MasterSetCounter
                    _I2C1_MasterStop
 ---------------------------------------------------------------------------------
 (7) _I2C1_MasterGetCounter                                0     0      0       0
 ---------------------------------------------------------------------------------
 (6) _I2C1_DO_SEND_ADR_WRITE                               0     0      0      22
              _I2C1_MasterSendTxData
 ---------------------------------------------------------------------------------
 (6) _I2C1_DO_RX_NACK_STOP                                 0     0      0       0
                       _I2C1_DO_IDLE
                _I2C1_MasterSendNack
                    _I2C1_MasterStop
 ---------------------------------------------------------------------------------
 (7) _I2C1_MasterStop                                      0     0      0       0
 ---------------------------------------------------------------------------------
 (7) _I2C1_DO_IDLE                                         0     0      0       0
 ---------------------------------------------------------------------------------
 (6) _I2C1_DO_RX_NACK_RESTART                              0     0      0       0
                _I2C1_MasterSendNack
 ---------------------------------------------------------------------------------
 (7) _I2C1_MasterSendNack                                  0     0      0       0
 ---------------------------------------------------------------------------------
 (6) _I2C1_DO_RX_ACK                                       0     0      0       0
                 _I2C1_MasterSendAck
 ---------------------------------------------------------------------------------
 (7) _I2C1_MasterSendAck                                   0     0      0       0
 ---------------------------------------------------------------------------------
 (6) _I2C1_DO_RX                                           3     3      0   77474
                                             13 COMRAM     3     3      0
                   _I2C1_DO_RX_EMPTY
               _I2C1_MasterGetRxData
             _I2C1_MasterIsRxBufFull
 ---------------------------------------------------------------------------------
 (7) _I2C1_MasterIsRxBufFull                               0     0      0       0
 ---------------------------------------------------------------------------------
 (7) _I2C1_MasterGetRxData                                 0     0      0       0
 ---------------------------------------------------------------------------------
 (6) _I2C1_DO_BUS_ERROR                                    0     0      0       0
                _I2C1_MasterResetBus
 ---------------------------------------------------------------------------------
 (6) _I2C1_DO_BUS_COLLISION                                2     2      0  154924
                                             11 COMRAM     2     2      0
                   Absolute function *
           _I2C1_CallbackReturnReset *
            _I2C1_CallbackReturnStop *
                      _I2C1_DO_RESET
          _I2C1_DO_SEND_RESTART_READ
         _I2C1_DO_SEND_RESTART_WRITE
                _I2C1_MasterClearIrq
              _rd1RegCompleteHandler *
_rd1RegCompleteHandler@i2c1_master_e *
              _rd2RegCompleteHandler *
_rd2RegCompleteHandler@i2c1_master_e *
            _rdBlkRegCompleteHandler *
_rdBlkRegCompleteHandler@i2c1_master *
              _wr1RegCompleteHandler *
_wr1RegCompleteHandler@i2c1_master_e *
              _wr2RegCompleteHandler *
_wr2RegCompleteHandler@i2c1_master_e *
 ---------------------------------------------------------------------------------
 (7) _I2C1_DO_SEND_RESTART_WRITE                           0     0      0       0
 ---------------------------------------------------------------------------------
 (7) _I2C1_DO_SEND_RESTART_READ                            0     0      0   77495
              _I2C1_DO_SEND_ADR_READ
              _I2C1_MasterSetCounter
 ---------------------------------------------------------------------------------
 (8) _I2C1_DO_SEND_ADR_READ                                0     0      0   77473
                   _I2C1_DO_RX_EMPTY
              _I2C1_MasterSendTxData
 ---------------------------------------------------------------------------------
 (7) _I2C1_MasterSendTxData                                1     1      0      22
                                              0 COMRAM     1     1      0
 ---------------------------------------------------------------------------------
 (9) _I2C1_DO_RX_EMPTY                                     2     2      0   77451
                                             11 COMRAM     2     2      0
                   Absolute function *
           _I2C1_CallbackReturnReset *
            _I2C1_CallbackReturnStop *
          _I2C1_MasterDisableRestart
           _I2C1_MasterEnableRestart
              _I2C1_MasterSetCounter
              _rd1RegCompleteHandler *
_rd1RegCompleteHandler@i2c1_master_e *
              _rd2RegCompleteHandler *
_rd2RegCompleteHandler@i2c1_master_e *
            _rdBlkRegCompleteHandler *
_rdBlkRegCompleteHandler@i2c1_master *
              _wr1RegCompleteHandler *
_wr1RegCompleteHandler@i2c1_master_e *
              _wr2RegCompleteHandler *
_wr2RegCompleteHandler@i2c1_master_e *
 ---------------------------------------------------------------------------------
 (7) _I2C1_MasterSetCounter                                1     1      0      22
                                              0 COMRAM     1     1      0
 ---------------------------------------------------------------------------------
 (7) _I2C1_MasterEnableRestart                             0     0      0       0
 ---------------------------------------------------------------------------------
 (7) _I2C1_MasterDisableRestart                            0     0      0       0
 ---------------------------------------------------------------------------------
 (6) _I2C1_DO_RESET                                        0     0      0       0
                _I2C1_MasterResetBus
 ---------------------------------------------------------------------------------
 (7) _I2C1_MasterResetBus                                  0     0      0       0
 ---------------------------------------------------------------------------------
 (6) _I2C1_DO_ADDRESS_NACK                                 2     2      0   77429
                                             11 COMRAM     2     2      0
                   Absolute function *
           _I2C1_CallbackReturnReset *
            _I2C1_CallbackReturnStop *
               _I2C1_DO_SEND_RESTART
              _rd1RegCompleteHandler *
_rd1RegCompleteHandler@i2c1_master_e *
              _rd2RegCompleteHandler *
_rd2RegCompleteHandler@i2c1_master_e *
            _rdBlkRegCompleteHandler *
_rdBlkRegCompleteHandler@i2c1_master *
              _wr1RegCompleteHandler *
_wr1RegCompleteHandler@i2c1_master_e *
              _wr2RegCompleteHandler *
_wr2RegCompleteHandler@i2c1_master_e *
 ---------------------------------------------------------------------------------
 (7) _wr2RegCompleteHandler@i2c1_master_example$F168       2     0      2    7712
                                              9 COMRAM     2     0      2
                     _I2C1_SetBuffer
       _I2C1_SetDataCompleteCallback
 ---------------------------------------------------------------------------------
 (7) _wr2RegCompleteHandler                                2     0      2    7712
                                              9 COMRAM     2     0      2
                     _I2C1_SetBuffer
       _I2C1_SetDataCompleteCallback
 ---------------------------------------------------------------------------------
 (7) _wr1RegCompleteHandler@i2c1_master_example$F162       2     0      2    7712
                                              9 COMRAM     2     0      2
                     _I2C1_SetBuffer
       _I2C1_SetDataCompleteCallback
 ---------------------------------------------------------------------------------
 (7) _wr1RegCompleteHandler                                2     0      2    7712
                                              9 COMRAM     2     0      2
                     _I2C1_SetBuffer
       _I2C1_SetDataCompleteCallback
 ---------------------------------------------------------------------------------
 (7) _rdBlkRegCompleteHandler@i2c1_master_example$F179     2     0      2    7734
                                              9 COMRAM     2     0      2
                     _I2C1_SetBuffer
       _I2C1_SetDataCompleteCallback
 ---------------------------------------------------------------------------------
 (7) _rdBlkRegCompleteHandler                              2     0      2    7734
                                              9 COMRAM     2     0      2
                     _I2C1_SetBuffer
       _I2C1_SetDataCompleteCallback
 ---------------------------------------------------------------------------------
 (7) _rd2RegCompleteHandler@i2c1_master_example$F156       2     0      2    7712
                                              9 COMRAM     2     0      2
                     _I2C1_SetBuffer
       _I2C1_SetDataCompleteCallback
 ---------------------------------------------------------------------------------
 (7) _rd2RegCompleteHandler                                2     0      2    7712
                                              9 COMRAM     2     0      2
                     _I2C1_SetBuffer
       _I2C1_SetDataCompleteCallback
 ---------------------------------------------------------------------------------
 (7) _rd1RegCompleteHandler@i2c1_master_example$F145       2     0      2    7712
                                              9 COMRAM     2     0      2
                     _I2C1_SetBuffer
       _I2C1_SetDataCompleteCallback
 ---------------------------------------------------------------------------------
 (7) _rd1RegCompleteHandler                                2     0      2    7712
                                              9 COMRAM     2     0      2
                     _I2C1_SetBuffer
       _I2C1_SetDataCompleteCallback
 ---------------------------------------------------------------------------------
 (8) _I2C1_SetDataCompleteCallback                         4     0      4    3998
                                              5 COMRAM     4     0      4
                   _I2C1_SetCallback
 ---------------------------------------------------------------------------------
 (3) _I2C1_SetCallback                                     5     1      4     914
                                              0 COMRAM     5     1      4
 ---------------------------------------------------------------------------------
 (2) _I2C1_SetBuffer                                       4     0      4    3692
                                              0 COMRAM     4     0      4
 ---------------------------------------------------------------------------------
 (6) _I2C1_DO_SEND_RESTART                                 0     0      0       0
 ---------------------------------------------------------------------------------
 (7) _I2C1_CallbackReturnStop                              2     0      2       0
                                              9 COMRAM     2     0      2
 ---------------------------------------------------------------------------------
 (7) _I2C1_CallbackReturnReset                             2     0      2     265
                                              9 COMRAM     2     0      2
 ---------------------------------------------------------------------------------
 (6) _I2C1_ClearInterruptFlags                             0     0      0       0
          _I2C1_MasterClearCountFlag
           _I2C1_MasterClearNackFlag
           _I2C1_MasterClearStopFlag
          _I2C1_MasterIsCountFlagSet
           _I2C1_MasterIsNackFlagSet
           _I2C1_MasterIsStopFlagSet
 ---------------------------------------------------------------------------------
 (7) _I2C1_MasterIsStopFlagSet                             0     0      0       0
 ---------------------------------------------------------------------------------
 (7) _I2C1_MasterIsNackFlagSet                             0     0      0       0
 ---------------------------------------------------------------------------------
 (7) _I2C1_MasterIsCountFlagSet                            0     0      0       0
 ---------------------------------------------------------------------------------
 (7) _I2C1_MasterClearStopFlag                             0     0      0       0
 ---------------------------------------------------------------------------------
 (7) _I2C1_MasterClearNackFlag                             0     0      0       0
 ---------------------------------------------------------------------------------
 (7) _I2C1_MasterClearCountFlag                            0     0      0       0
 ---------------------------------------------------------------------------------
 (2) _I2C1_Close                                           1     1      0      24
                                              0 COMRAM     1     1      0
                _I2C1_MasterClearIrq
                   _I2C1_MasterClose
              _I2C1_MasterDisableIrq
 ---------------------------------------------------------------------------------
 (3) _I2C1_MasterDisableIrq                                0     0      0       0
 ---------------------------------------------------------------------------------
 (3) _I2C1_MasterClose                                     0     0      0       0
 ---------------------------------------------------------------------------------
 (3) _I2C1_MasterClearIrq                                  0     0      0       0
 ---------------------------------------------------------------------------------
 (1) _cola_get                                             5     3      2     351
                                              4 COMRAM     5     3      2
                         _cola_vacia
 ---------------------------------------------------------------------------------
 (2) _cola_vacia                                           4     2      2      98
                                              0 COMRAM     4     2      2
 ---------------------------------------------------------------------------------
 (1) _cola_add                                             5     2      3     426
                                              4 COMRAM     5     2      3
                         _cola_llena
 ---------------------------------------------------------------------------------
 (2) _cola_llena                                           4     2      2      98
                                              0 COMRAM     4     2      2
 ---------------------------------------------------------------------------------
 (1) _UART1_is_rx_ready                                    0     0      0       0
 ---------------------------------------------------------------------------------
 (1) _UART1_Write                                          1     1      0      22
                                              0 COMRAM     1     1      0
 ---------------------------------------------------------------------------------
 (1) _UART1_Read                                           0     0      0       0
                   Absolute function *
          _UART1_DefaultErrorHandler *
   _UART1_DefaultFramingErrorHandler *
   _UART1_DefaultOverrunErrorHandler *
 ---------------------------------------------------------------------------------
 (2) _UART1_DefaultOverrunErrorHandler                     0     0      0       0
 ---------------------------------------------------------------------------------
 (2) _UART1_DefaultFramingErrorHandler                     0     0      0       0
 ---------------------------------------------------------------------------------
 (2) _UART1_DefaultErrorHandler                            0     0      0       0
 ---------------------------------------------------------------------------------
 (7) Absolute function(Fake)                               2     0      2       0
 ---------------------------------------------------------------------------------
 (1) _SYSTEM_Initialize                                    0     0      0     294
                    _I2C1_Initialize
              _OSCILLATOR_Initialize
             _PIN_MANAGER_Initialize
                     _PMD_Initialize
                   _UART1_Initialize
 ---------------------------------------------------------------------------------
 (2) _UART1_Initialize                                     0     0      0     294
              _UART1_SetErrorHandler
       _UART1_SetFramingErrorHandler
       _UART1_SetOverrunErrorHandler
 ---------------------------------------------------------------------------------
 (3) _UART1_SetOverrunErrorHandler                         2     0      2      98
                                              0 COMRAM     2     0      2
 ---------------------------------------------------------------------------------
 (3) _UART1_SetFramingErrorHandler                         2     0      2      98
                                              0 COMRAM     2     0      2
 ---------------------------------------------------------------------------------
 (3) _UART1_SetErrorHandler                                2     0      2      98
                                              0 COMRAM     2     0      2
 ---------------------------------------------------------------------------------
 (2) _PMD_Initialize                                       0     0      0       0
 ---------------------------------------------------------------------------------
 (2) _PIN_MANAGER_Initialize                               0     0      0       0
 ---------------------------------------------------------------------------------
 (2) _OSCILLATOR_Initialize                                0     0      0       0
 ---------------------------------------------------------------------------------
 (2) _I2C1_Initialize                                      0     0      0       0
 ---------------------------------------------------------------------------------
 (1) _Iniciarlizar                                         8     6      2     410
                                              0 COMRAM     8     6      2
 ---------------------------------------------------------------------------------
 Estimated maximum stack depth 9
 ---------------------------------------------------------------------------------

 Call Graph Graphs:

 _main (ROOT)
   _Iniciarlizar
   _SYSTEM_Initialize
     _I2C1_Initialize
     _OSCILLATOR_Initialize
     _PIN_MANAGER_Initialize
     _PMD_Initialize
     _UART1_Initialize
       _UART1_SetErrorHandler
       _UART1_SetFramingErrorHandler
       _UART1_SetOverrunErrorHandler
   _UART1_Read
     Absolute function(Fake) *
     _UART1_DefaultErrorHandler *
     _UART1_DefaultFramingErrorHandler *
     _UART1_DefaultOverrunErrorHandler *
   _UART1_Write
   _UART1_is_rx_ready
   _cola_add
     _cola_llena
   _cola_get
     _cola_vacia
   _i2c_readNBytes
     _I2C1_Close
       _I2C1_MasterClearIrq
       _I2C1_MasterClose
       _I2C1_MasterDisableIrq
     _I2C1_MasterRead
       _I2C1_MasterOperation
         _I2C1_DO_SEND_ADR_READ
           _I2C1_DO_RX_EMPTY
             Absolute function(Fake) *
             _I2C1_CallbackReturnReset *
             _I2C1_CallbackReturnStop *
             _I2C1_MasterDisableRestart *
             _I2C1_MasterEnableRestart *
             _I2C1_MasterSetCounter *
             _rd1RegCompleteHandler *
               _I2C1_SetBuffer
               _I2C1_SetDataCompleteCallback
                 _I2C1_SetCallback
             _rd1RegCompleteHandler@i2c1_master_example$F145 *
               _I2C1_SetBuffer
               _I2C1_SetDataCompleteCallback
             _rd2RegCompleteHandler *
               _I2C1_SetBuffer
               _I2C1_SetDataCompleteCallback
             _rd2RegCompleteHandler@i2c1_master_example$F156 *
               _I2C1_SetBuffer
               _I2C1_SetDataCompleteCallback
             _rdBlkRegCompleteHandler *
               _I2C1_SetBuffer
               _I2C1_SetDataCompleteCallback
             _rdBlkRegCompleteHandler@i2c1_master_example$F179 *
               _I2C1_SetBuffer
               _I2C1_SetDataCompleteCallback
             _wr1RegCompleteHandler *
               _I2C1_SetBuffer
               _I2C1_SetDataCompleteCallback
             _wr1RegCompleteHandler@i2c1_master_example$F162 *
               _I2C1_SetBuffer
               _I2C1_SetDataCompleteCallback
             _wr2RegCompleteHandler *
               _I2C1_SetBuffer
               _I2C1_SetDataCompleteCallback
             _wr2RegCompleteHandler@i2c1_master_example$F168 *
               _I2C1_SetBuffer
               _I2C1_SetDataCompleteCallback
           _I2C1_MasterSendTxData
         _I2C1_DO_SEND_ADR_WRITE
           _I2C1_MasterSendTxData
         _I2C1_MasterSetCounter
         _I2C1_Poller
           _I2C1_MasterFsm
             _I2C1_ClearInterruptFlags
               _I2C1_MasterClearCountFlag
               _I2C1_MasterClearNackFlag
               _I2C1_MasterClearStopFlag
               _I2C1_MasterIsCountFlagSet
               _I2C1_MasterIsNackFlagSet
               _I2C1_MasterIsStopFlagSet
             _I2C1_DO_ADDRESS_NACK *
               Absolute function(Fake) *
               _I2C1_CallbackReturnReset *
               _I2C1_CallbackReturnStop *
               _I2C1_DO_SEND_RESTART *
               _rd1RegCompleteHandler *
               _rd1RegCompleteHandler@i2c1_master_example$F145 *
               _rd2RegCompleteHandler *
               _rd2RegCompleteHandler@i2c1_master_example$F156 *
               _rdBlkRegCompleteHandler *
               _rdBlkRegCompleteHandler@i2c1_master_example$F179 *
               _wr1RegCompleteHandler *
               _wr1RegCompleteHandler@i2c1_master_example$F162 *
               _wr2RegCompleteHandler *
               _wr2RegCompleteHandler@i2c1_master_example$F168 *
             _I2C1_DO_BUS_COLLISION *
               Absolute function(Fake) *
               _I2C1_CallbackReturnReset *
               _I2C1_CallbackReturnStop *
               _I2C1_DO_RESET *
                 _I2C1_MasterResetBus
               _I2C1_DO_SEND_RESTART_READ *
                 _I2C1_DO_SEND_ADR_READ
                 _I2C1_MasterSetCounter
               _I2C1_DO_SEND_RESTART_WRITE *
               _I2C1_MasterClearIrq *
               _rd1RegCompleteHandler *
               _rd1RegCompleteHandler@i2c1_master_example$F145 *
               _rd2RegCompleteHandler *
               _rd2RegCompleteHandler@i2c1_master_example$F156 *
               _rdBlkRegCompleteHandler *
               _rdBlkRegCompleteHandler@i2c1_master_example$F179 *
               _wr1RegCompleteHandler *
               _wr1RegCompleteHandler@i2c1_master_example$F162 *
               _wr2RegCompleteHandler *
               _wr2RegCompleteHandler@i2c1_master_example$F168 *
             _I2C1_DO_BUS_ERROR *
               _I2C1_MasterResetBus
             _I2C1_DO_IDLE *
             _I2C1_DO_RESET *
             _I2C1_DO_RX *
               _I2C1_DO_RX_EMPTY
               _I2C1_MasterGetRxData
               _I2C1_MasterIsRxBufFull
             _I2C1_DO_RX_ACK *
               _I2C1_MasterSendAck
             _I2C1_DO_RX_EMPTY *
             _I2C1_DO_RX_NACK_RESTART *
               _I2C1_MasterSendNack
             _I2C1_DO_RX_NACK_STOP *
               _I2C1_DO_IDLE
               _I2C1_MasterSendNack
               _I2C1_MasterStop
             _I2C1_DO_SEND_ADR_READ *
             _I2C1_DO_SEND_ADR_WRITE *
             _I2C1_DO_SEND_RESTART *
             _I2C1_DO_SEND_RESTART_READ *
             _I2C1_DO_SEND_RESTART_WRITE *
             _I2C1_DO_SEND_STOP *
               _I2C1_MasterGetCounter
               _I2C1_MasterSendTxData
               _I2C1_MasterSetCounter
               _I2C1_MasterStop
             _I2C1_DO_TX *
               Absolute function(Fake) *
               _I2C1_CallbackReturnReset *
               _I2C1_CallbackReturnStop *
               _I2C1_DO_SEND_RESTART_READ *
               _I2C1_DO_SEND_RESTART_WRITE *
               _I2C1_DO_TX_EMPTY *
                 Absolute function(Fake) *
                 _I2C1_CallbackReturnReset *
                 _I2C1_CallbackReturnStop *
                 _I2C1_MasterDisableRestart *
                 _I2C1_MasterEnableRestart *
                 _I2C1_MasterSetCounter *
                 _rd1RegCompleteHandler *
                 _rd1RegCompleteHandler@i2c1_master_example$F145 *
                 _rd2RegCompleteHandler *
                 _rd2RegCompleteHandler@i2c1_master_example$F156 *
                 _rdBlkRegCompleteHandler *
                 _rdBlkRegCompleteHandler@i2c1_master_example$F179 *
                 _wr1RegCompleteHandler *
                 _wr1RegCompleteHandler@i2c1_master_example$F162 *
                 _wr2RegCompleteHandler *
                 _wr2RegCompleteHandler@i2c1_master_example$F168 *
               _I2C1_MasterIsNack *
               _I2C1_MasterIsTxBufEmpty *
               _I2C1_MasterSendTxData *
               _rd1RegCompleteHandler *
               _rd1RegCompleteHandler@i2c1_master_example$F145 *
               _rd2RegCompleteHandler *
               _rd2RegCompleteHandler@i2c1_master_example$F156 *
               _rdBlkRegCompleteHandler *
               _rdBlkRegCompleteHandler@i2c1_master_example$F179 *
               _wr1RegCompleteHandler *
               _wr1RegCompleteHandler@i2c1_master_example$F162 *
               _wr2RegCompleteHandler *
               _wr2RegCompleteHandler@i2c1_master_example$F168 *
             _I2C1_DO_TX_ACK *
               _I2C1_MasterSendAck
             _I2C1_DO_TX_EMPTY *
             _I2C1_MasterIsNack *
           _I2C1_MasterWaitForEvent
     _I2C1_Open
       _I2C1_MasterClearIrq
       _I2C1_MasterOpen
     _I2C1_SetBuffer
   _i2c_writeNBytes
     _I2C1_Close
     _I2C1_MasterWrite
       _I2C1_MasterOperation
     _I2C1_Open
     _I2C1_SetAddressNackCallback
       _I2C1_SetCallback
     _I2C1_SetBuffer
   _inicie_cola
   _lectura
     _cola_get (ARG)
   _tam_cola

 Address spaces:
Name               Size   Autos  Total    Cost      Usage
BIGRAM             FFF      0       0      64        0.0%
EEDATA             400      0       0       0        0.0%
BITBIGSFRlhlllh    284      0       0      44        0.0%
BITBIGSFRhll       1BF      0       0      38        0.0%
BITBIGSFRlll       192      0       0      62        0.0%
BITBANK15          100      0       0      34        0.0%
BANK15             100      0       0      35        0.0%
BITBANK14          100      0       0      32        0.0%
BANK14             100      0       0      33        0.0%
BITBANK13          100      0       0      30        0.0%
BANK13             100      0       0      31        0.0%
BITBANK12          100      0       0      28        0.0%
BANK12             100      0       0      29        0.0%
BITBANK11          100      0       0      26        0.0%
BANK11             100      0       0      27        0.0%
BITBANK10          100      0       0      24        0.0%
BANK10             100      0       0      25        0.0%
BITBANK9           100      0       0      22        0.0%
BANK9              100      0       0      23        0.0%
BITBANK8           100      0       0      20        0.0%
BANK8              100      0       0      21        0.0%
BITBANK7           100      0       0      18        0.0%
BANK7              100      0       0      19        0.0%
BITBANK6           100      0       0      16        0.0%
BANK6              100      0       0      17        0.0%
BITBANK5           100      0       0      14        0.0%
BANK5              100      0       0      15        0.0%
BITBANK4           100      0       0      12        0.0%
BANK4              100      0       0      13        0.0%
BITBANK3           100      0       0      10        0.0%
BANK3              100      0       0      11        0.0%
BITBANK2           100      0       0       8        0.0%
BANK2              100      0       0       9        0.0%
BITBANK1           100      0       0       6        0.0%
BANK1              100     FF      FF       7       99.6%
BITBANK0            A0      0       0       4        0.0%
BANK0               A0     23      5A       5       56.2%
BITBIGSFRlhlhh      6C      0       0      41        0.0%
BITCOMRAM           5F      0       0       0        0.0%
COMRAM              5F     59      5E       1       98.9%
BITBIGSFRlhlllh     5C      0       0      46        0.0%
BITBIGSFRhhh        39      0       0      36        0.0%
BITBIGSFRlhllll     29      0       0      54        0.0%
BITBIGSFRlhllll     29      0       0      56        0.0%
BITBIGSFRlhllll     1C      0       0      60        0.0%
BITBIGSFRlhllll     11      0       0      59        0.0%
BITBIGSFRllh         E      0       0      61        0.0%
BITBIGSFRlhllll      B      0       0      55        0.0%
BITBIGSFRlhllll      B      0       0      53        0.0%
BITBIGSFRlhllh       6      0       0      43        0.0%
BITBIGSFRlhllll      5      0       0      52        0.0%
BITBIGSFRlhlllh      5      0       0      50        0.0%
BITBIGSFRlhlllh      5      0       0      48        0.0%
BITBIGSFRlhlllh      4      0       0      47        0.0%
BITBIGSFRlhlllh      4      0       0      49        0.0%
BITBIGSFRlhlllh      4      0       0      51        0.0%
BITBIGSFRhhll        3      0       0      37        0.0%
BITBIGSFRlhlllh      2      0       0      45        0.0%
BITBIGSFRlhllll      1      0       0      57        0.0%
BITBIGSFRlhllll      1      0       0      58        0.0%
BITBIGSFRlhlhll      1      0       0      42        0.0%
BITBIGSFRlhhh        1      0       0      39        0.0%
BITBIGSFRlhhl        1      0       0      40        0.0%
BIGSFR               0      0       0     200        0.0%
BITSFR_8             0      0       0     200        0.0%
SFR_8                0      0       0     200        0.0%
BITSFR_7             0      0       0     200        0.0%
SFR_7                0      0       0     200        0.0%
BITSFR_6             0      0       0     200        0.0%
SFR_6                0      0       0     200        0.0%
BITSFR_5             0      0       0     200        0.0%
SFR_5                0      0       0     200        0.0%
BITSFR_4             0      0       0     200        0.0%
SFR_4                0      0       0     200        0.0%
BITSFR_3             0      0       0     200        0.0%
SFR_3                0      0       0     200        0.0%
BITSFR_2             0      0       0     200        0.0%
SFR_2                0      0       0     200        0.0%
BITSFR_1             0      0       0     200        0.0%
SFR_1                0      0       0     200        0.0%
BITSFR               0      0       0     200        0.0%
SFR                  0      0       0     200        0.0%
STACK                0      0       0       2        0.0%
NULL                 0      0       0       0        0.0%
ABS                  0      0     1B7      63        0.0%
DATA                 0      0     1B7       3        0.0%
CODE                 0      0       0       0        0.0%


Microchip Technology PIC18 Macro Assembler V2.40 build 20220703182018 
Symbol Table                                                                                   Thu Apr 27 21:16:24 2023

                                                      l17 33DA  
                                                      l35 2FD2  
                                                      l53 3382  
                                                      l38 33AE  
                                                      l65 3356  
                                                      l77 310E  
                                                      l95 3154  
                                                     l302 2BD4  
                                                     l311 3764  
                                                     l320 36DA  
                                                     l305 351E  
                                                     l314 3762  
                                                     l323 36D0  
                                                     l308 3534  
                                                     l317 3766  
                                                     l326 36E4  
                                                     l191 32D2  
                                                     l185 332A  
                                                     l282 362C  
                                                     l506 347E  
                                                     l194 3406  
                                                     l603 3690  
                                                     l515 354C  
                                                     l188 32FE  
                                                     l532 34E2  
                                                     l509 3564  
                                                     l197 30C2  
                                                     l613 345A  
                                                     l526 2CE6  
                                                     l702 3726  
                                                     l606 3758  
                                                     l622 3682  
                                                     l279 2F1C  
                                                     l711 35A8  
                                                     l551 32A6  
                                                     l296 2B3E  
                                                     l720 3600  
                                                     l544 3076  
                                                     l560 26E8  
                                                     l616 3704  
                                                     l536 2DDC  
                                                     l609 3754  
                                                     l625 36FC  
                                                     l641 2E4C  
                                                     l714 35EA  
                                                     l554 3592  
                                                     l634 2EB4  
                                                     l723 3744  
                                                     l619 370C  
                                                     l547 369C  
                                                     l483 2C64  
                                                     l740 3500  
                                                     l708 35D4  
                                                     l628 3674  
                                                     l717 3616  
                                                     l653 3760  
                                                     l493 3024  
                                                     l726 3750  
                                                     l750 2F58  
                                                     l479 34C4  
                                                     l743 3714  
                                                     l487 3432  
                                                     l647 3664  
                                                     l751 2F6A  
                                                     l656 375C  
                                                     l672 3732  
                                                     l496 36F4  
                                                     l729 374A  
                                                     l681 36BC  
                                                     l577 2B3C  
                                                     l585 2D62  
                                                     l690 373E  
                                                     l578 2AE8  
                                                     l594 2A9E  
                                                     l754 2F78  
                                                     l746 2F1E  
                                                     l666 3278  
                                                     l675 36B2  
                                                     l747 2F32  
                                                     l499 36EC  
                                                     l684 36C6  
                                                     l932 25C0  
                                                     l669 36A8  
                                                     l693 3720  
                                                     l749 2F44  
                                                     l678 371A  
                                                     l687 3738  
                                                     l952 27EE  
                                                     l696 35BE  
                                                     l793 3642  
                                                     l699 372C  
                                                     l796 357C  
                                                     l958 1144  
                                                     l799 34A2  
                                                     l896 29FC  
                                                     l993 170E  
                             ??_I2C1_MasterClearCountFlag 0001  
                                   ?_I2C1_MasterOperation 0001  
                                  ?_I2C1_MasterSetCounter 0001  
                                                     prod 003FF3  
                                                     tosl 003FFD  
                                                     wreg 003FE8  
                                  ?_I2C1_MasterSendTxData 0001  
                                    _I2C1_DO_RX_NACK_STOP 3676  
                               ?_I2C1_MasterEnableRestart 0001  
                                fp__I2C1_DO_SEND_ADR_READ 0000  
                                 fp__I2C1_DO_SEND_RESTART 0000  
                                    I2C1_SetBuffer@buffer 0001  
                              ??_I2C1_MasterIsStopFlagSet 0001  
                                                    l1012 1A48  
                                 ??_rd2RegCompleteHandler 000C  
                                                    l1062 3214  
                                                    l1055 22AC  
                                                    l1081 3196  
                                                    l1073 28A6  
                                                    l1067 2954  
                                                    l1077 351A  
                                                    l1086 31D6  
                                                    l4000 3480  
                                                    l4010 298A  
                                                    l4002 2956  
                                                    l4020 29D8  
                                                    l4012 29CC  
                                                    l4004 296E  
                                                    l4100 2BD0  
                                                    l4022 29DA  
                                                    l4014 29CE  
                                                    l4006 2978  
                                                    l4110 363E  
                                                    l4030 3156  
                                                    l4120 270E  
                                                    l4112 26EA  
                                                    l4024 29DC  
                                                    l4016 29D0  
                                                    l4008 297A  
                                                    l4104 351E  
                                                    l4032 3182  
                                                    l4200 1186  
                                                    l4130 2762  
                                                    l4122 2712  
                                                    l4026 29DE  
                                                    l4018 29D2  
                                                    l4106 352E  
                                                    l4050 31CE  
                                                    l4042 3198  
                                                    l3402 3358  
                                                    l3410 332C  
                                                    l4210 11FE  
                                                    l4202 1198  
                                                    l4132 2772  
                                                    l4124 272E  
                                                    l4028 3566  
                                                    l4108 362E  
                                                    l4044 31C2  
                                                    l3404 336C  
                                                    l3412 3340  
                                                    l3420 30F8  
                                                    l3500 2A28  
                                                    l4060 2FA6  
                                                    l4300 1930  
                                                    l4220 12C0  
                                                    l4212 1236  
                                                    l4204 11BC  
                                                    l4134 2786  
                                                    l4126 2742  
                                                    l4118 26F2  
                                                    l4038 318E  
                                                    l3406 3380  
                                                    l3414 3354  
                                                    l3422 310C  
                                                    l3430 3328  
                                                    l3502 2A3C  
                                                    l3510 2A46  
                                                    l4070 3128  
                                                    l4062 2FBA  
                                                    l4054 2F7C  
                                                    l4150 31D8  
                                                    l4310 199A  
                                                    l4302 194E  
                                                    l4230 1414  
                                                    l4222 12D8  
                                                    l4214 124E  
                                                    l4206 11D4  
                                                    l4144 27B2  
                                                    l4136 279A  
                                                    l4128 2752  
                                                    l4080 2B3E  
                                                    l4152 28A8  
                                                    l3520 3284  
                                                    l3600 2D12  
                                                    l3504 2A40  
                                                    l4072 313C  
                                                    l4064 2FBE  
                                                    l4056 2F7C  
                                                    l4400 1FB2  
                                                    l4320 1A30  
                                                    l4304 195E  
                                                    l4312 19D6  
                                                    l4240 14A0  
                                                    l4232 142C  
                                                    l4224 1304  
                                                    l4216 1260  
                                                    l4208 11EC  
                                                    l4146 27CE  
                                                    l4138 27AA  
                                                    l4090 2B7C  
                                                    l4082 2B4E  
                                                    l4154 28C6  
                                                    l4170 285E  
                                                    l3370 2C68  
                                                    l3450 33DC  
                                                    l3418 30C4  
                                                    l3426 3300  
                                                    l3434 32D4  
                                                    l3442 32A8  
                                                    l3530 36BE  
                                                    l3610 372E  
                                                    l3522 3296  
                                                    l4074 3140  
                                                    l4066 3112  
                                                    l4058 2F92  
                                                    l4410 207C  
                                                    l4402 1FEC  
                                                    l4330 1ACC  
                                                    l4322 1A7C  
                                                    l4314 19F4  
                                                    l4306 1974  
                                                    l4242 1512  
                                                    l4250 15DA  
                                                    l4234 1440  
                                                    l4226 1376  
                                                    l4218 12A8  
                                                    l4162 3502  
                                                    l4148 27D2  
                                                    l4092 2B8C  
                                                    l4084 2B52  
                                                    l4076 3618  
                                                    l4156 2914  
                                                    l3532 370E  
                                                    l3380 3474  
                                                    l3372 2C7A  
                                                    l3452 33F0  
                                                    l3428 3314  
                                                    l3436 32E8  
                                                    l3444 32BC  
                                                    l3460 30AC  
                                                    l3516 36AC  
                                                    l3620 3716  
                                                    l3524 329A  
                                                    l4068 3112  
                                                    l4420 213E  
                                                    l4412 208C  
                                                    l4404 2010  
                                                    l4340 1BBA  
                                                    l4332 1AE0  
                                                    l4316 1A04  
                                                    l4308 1984  
                                                    l4324 1A94  
                                                    l4260 164A  
                                                    l4252 15F6  
                                                    l4244 1532  
                                                    l4236 1458  
                                                    l4228 1396  
                                                    l4094 2B8E  
                                                    l4086 2B62  
                                                    l4158 2940  
                                                    l4174 2864  
                                                    l4166 27F0  
                                                    l3542 374C  
                                                    l3550 35EC  
                                                    l3382 347C  
                                                    l3374 2CB6  
                                                    l3454 3404  
                                                    l3390 33D8  
                                                    l3438 32FC  
                                                    l3446 32D0  
                                                    l3462 30C0  
                                                    l3470 373A  
                                                    l3606 35C0  
                                                    l3534 35AA  
                                                    l3526 32A4  
                                                    l3518 327A  
                                                    l3614 3752  
                                                    l3630 366A  
                                                    l4430 21A2  
                                                    l4422 2156  
                                                    l4414 20C8  
                                                    l4406 202C  
                                                    l4350 1CAA  
                                                    l4342 1C3C  
                                                    l4334 1AFC  
                                                    l4326 1AA8  
                                                    l4318 1A20  
                                                    l4270 16E6  
                                                    l4262 1660  
                                                    l4254 1614  
                                                    l4246 15B4  
                                                    l4238 1474  
                                                    l4190 1114  
                                                    l4182 10D4  
                                                    l4096 2BA6  
                                                    l4088 2B64  
                                                    l4176 2890  
                                                    l4168 280E  
                                                    l3544 35D6  
                                                    l3376 345C  
                                                    l3384 354E  
                                                    l3472 375E  
                                                    l3624 3728  
                                                    l3560 369A  
                                                    l3640 3588  
                                                    l3704 26E6  
                                                    l3720 2AD0  
                                                    l3712 2AA0  
                                                    l3480 29FE  
                                                    l3632 366E  
                                                    l3800 2DEC  
                                                    l4440 2202  
                                                    l4424 216A  
                                                    l4408 203C  
                                                    l4416 20EC  
                                                    l4360 1D5A  
                                                    l4352 1CC6  
                                                    l4432 21B6  
                                                    l4344 1C4E  
                                                    l4336 1B28  
                                                    l4328 1ABC  
                                                    l4280 176E  
                                                    l4272 16F6  
                                                    l4256 1624  
                                                    l4264 169C  
                                                    l4248 15C6  
                                                    l4192 112C  
                                                    l4184 10D8  
                                                    l4098 2BB6  
                                                    l4178 28A4  
                                                    l3554 3746  
                                                    l3538 3602  
                                                    l3650 3042  
                                                    l3378 346C  
                                                    l3386 33B0  
                                                    l3394 3384  
                                                    l3458 3078  
                                                    l3466 36B6  
                                                    l3626 3722  
                                                    l3618 371C  
                                                    l3642 3590  
                                                    l3722 2B00  
                                                    l3714 2AB4  
                                                    l3490 2A14  
                                                    l3482 2A06  
                                                    l3570 3756  
                                                    l3634 3672  
                                                    l4442 2216  
                                                    l4434 21CA  
                                                    l4426 217E  
                                                    l4418 210A  
                                                    l4370 1DFA  
                                                    l4354 1CD6  
                                                    l4362 1D7E  
                                                    l4338 1B9A  
                                                    l4346 1C62  
                                                    l4290 184C  
                                                    l4282 177E  
                                                    l4274 172E  
                                                    l4266 16BA  
                                                    l4258 163A  
                                                    l4194 1148  
                                                    l4186 10EA  
                                                    l3548 3740  
                                                    l3652 3056  
                                                    l3388 33C4  
                                                    l3396 3398  
                                                    l3476 375A  
                                                    l3468 3734  
                                                    l3556 3692  
                                                    l3724 2B12  
                                                    l3732 2B1C  
                                                    l3580 2CF0  
                                                    l3484 2A0A  
                                                    l3564 3684  
                                                    l3628 3666  
                                                    l3804 2DF4  
                                                    l3820 3656  
                                                    l3900 301A  
                                                    l4444 2228  
                                                    l4436 21DE  
                                                    l4428 218E  
                                                    l4380 1EB0  
                                                    l4372 1E36  
                                                    l4364 1D9A  
                                                    l4356 1D10  
                                                    l4348 1C7E  
                                                    l4292 186C  
                                                    l4284 1792  
                                                    l4268 16CA  
                                                    l4276 1746  
                                                    l4196 115A  
                                                    l4188 1102  
                                                    l3654 305E  
                                                    l3646 3026  
                                                    l3398 33AC  
                                                    l3574 3594  
                                                    l3558 3696  
                                                    l3638 357E  
                                                    l3670 25F0  
                                                    l3662 25E0  
                                                    l3734 2B22  
                                                    l3718 2ABA  
                                                    l3582 2CF4  
                                                    l3494 2A1A  
                                                    l3566 368C  
                                                    l3742 3434  
                                                    l3814 2E04  
                                                    l3822 365A  
                                                    l3902 301E  
                                                    l3910 2BDC  
                                                    l4438 21F2  
                                                    l4382 1EC4  
                                                    l4366 1DAA  
                                                    l4374 1E5A  
                                                    l4358 1D20  
                                                    l4390 1F10  
                                                    l4294 18EE  
                                                    l4286 17AE  
                                                    l4278 175A  
                                                    l4198 116E  
                                                    l4710 22BE  
                                                    l3656 3072  
                                                    l3648 303A  
                                                    l3760 370A  
                                                    l3680 2664  
                                                    l3736 2B34  
                                                    l3592 2D08  
                                                    l3496 2A22  
                                                    l3488 2A10  
                                                    l3744 3438  
                                                    l3752 36FE  
                                                    l3808 2DFC  
                                                    l3824 365E  
                                                    l3840 2D64  
                                                    l3904 3022  
                                                    l3920 2BF8  
                                                    l3912 2BEC  
                                                    l4392 1F3C  
                                                    l4384 1ED8  
                                                    l4376 1E78  
                                                    l4368 1DEA  
                                                    l4296 1900  
                                                    l4288 17DA  
                                                    l4448 2240  
                                                    l4800 24E8  
                                                    l4720 231A  
                                                    l4712 22CA  
                                                    l3690 26BE  
                                                    l3682 267A  
                                                    l3666 25E8  
                                                    l3658 25C8  
                                                    l3738 2B3A  
                                                    l3594 2D0C  
                                                    l3586 2CFA  
                                                    l3578 2CE8  
                                                    l3746 344C  
                                                    l3754 3702  
                                                    l3770 36F6  
                                                    l3826 3662  
                                                    l3842 2D68  
                                                    l3850 34C6  
                                                    l3930 2C16  
                                                    l3922 2BFC  
                                                    l3914 2BF0  
                                                    l4394 1F58  
                                                    l4386 1EE8  
                                                    l4378 1E8A  
                                                    l4298 1914  
                                                    l4810 252C  
                                                    l4802 24FE  
                                                    l4730 2360  
                                                    l4722 2332  
                                                    l4714 22DE  
                                                    l4706 22AE  
                                                    l3860 36C8  
                                                    l3692 26CE  
                                                    l3684 2692  
                                                    l3676 25F6  
                                                    l3588 2D02  
                                                    l3748 3458  
                                                    l3764 3676  
                                                    l3772 36FA  
                                                    l3780 2E5E  
                                                    l3844 2D7E  
                                                    l3852 34CA  
                                                    l3940 2C3E  
                                                    l3932 2C1E  
                                                    l3924 2C04  
                                                    l3916 2BF2  
                                                    l3908 2BD8  
                                                    l4396 1F68  
                                                    l4388 1EFC  
                                                    l4812 2534  
                                                    l4804 2508  
                                                    l4740 2390  
                                                    l4732 2366  
                                                    l4724 2344  
                                                    l4716 22E4  
                                                    l4708 22B2  
                                                    l3862 36DC  
                                                    l3758 3706  
                                                    l3694 26D6  
                                                    l3686 26A2  
                                                    l3678 2650  
                                                    l3766 367E  
                                                    l3790 2E6C  
                                                    l3846 2D92  
                                                    l3854 34CE  
                                                    l3870 3274  
                                                    l3950 2C5E  
                                                    l3942 2C46  
                                                    l3934 2C26  
                                                    l3926 2C06  
                                                    l3918 2BF4  
                                                    l4398 1FA2  
                                                    l4830 25B6  
                                                    l4822 254A  
                                                    l4814 253A  
                                                    l4806 2518  
                                                    l4750 23D4  
                                                    l4742 23A6  
                                                    l4734 236E  
                                                    l4726 2350  
                                                    l4718 22F4  
                                                    l3880 36A6  
                                                    l3696 26DA  
                                                    l3688 26A6  
                                                    l3784 2E66  
                                                    l3776 2E4E  
                                                    l3848 2D98  
                                                    l3856 34D2  
                                                    l3864 324C  
                                                    l3944 2C4E  
                                                    l3936 2C2E  
                                                    l3928 2C0E  
                                                    l3952 2C62  
                                                    l4824 2580  
                                                    l4816 2542  
                                                    l4808 2524  
                                                    l4760 23F8  
                                                    l4752 23DC  
                                                    l4744 23AE  
                                                    l4736 2374  
                                                    l4728 2358  
                                                    l3858 36D2  
                                                    l3874 34E4  
                                                    l3970 3424  
                                                    l3962 3408  
                                                    l3698 26E0  
                                                    l3778 2E58  
                                                    l3890 2FF0  
                                                    l3882 2FD6  
                                                    l3866 325C  
                                                    l3946 2C56  
                                                    l3938 2C36  
                                                    l4826 2584  
                                                    l4770 243A  
                                                    l4762 23FE  
                                                    l4754 23E4  
                                                    l4738 237A  
                                                    l4746 23B8  
                                                    l3876 369E  
                                                    l3972 3428  
                                                    l3964 340C  
                                                    l3796 2DDE  
                                                    l3892 2FF6  
                                                    l3884 2FDA  
                                                    l3980 36EE  
                                                    l3868 3268  
                                                    l3948 2C5A  
                                                    l3956 3536  
                                                    l4828 25A0  
                                                    l4780 2488  
                                                    l4772 243E  
                                                    l4764 2414  
                                                    l4756 23EA  
                                                    l4748 23C8  
                                                    l3990 2F0C  
                                                    l3878 36A2  
                                                    l3974 342C  
                                                    l3966 341C  
                                                    l3798 2DE2  
                                                    l3894 3006  
                                                    l3886 2FEA  
                                                    l3958 36E6  
                                                    l4790 24AA  
                                                    l4782 2490  
                                                    l4774 2464  
                                                    l4766 2428  
                                                    l4758 23F2  
                                                    l3992 2F18  
                                                    l3984 2EB6  
                                                    l3968 3420  
                                                    l3976 3430  
                                                    l3896 300C  
                                                    l3888 2FEC  
                                                    l4792 24B0  
                                                    l4784 2498  
                                                    l4768 2434  
                                                    l4776 246C  
                                                    l3994 34A4  
                                                    l3986 2EF4  
                                                    l3898 3014  
                                                    l4794 24B6  
                                                    l4786 249E  
                                                    l4778 247C  
                                                    l3996 34C2  
                                                    l3988 2F00  
                                                    l4796 24BC  
                                                    l4788 24A6  
                                                    l4990 2E36  
                                                    l4798 24D2  
                                                    l4992 2E9E  
                                                    l4994 2A78  
                                                    l4996 2D44  
                                                    l4988 2266  
                                                    l4998 262A  
                                                    STR_1 107B  
                                                    STR_2 1097  
                                                    STR_3 1059  
                                                    STR_4 10C9  
                                                    STR_6 10B2  
                                                    STR_9 1027  
                                                    u2000 31C2  
                                                    u2001 31BE  
                                                    u2010 2F92  
                                                    u2011 2F8E  
                                                    u2020 2FD2  
                                                    u2021 2FCE  
                                                    u2110 2BB6  
                                                    u2030 3128  
                                                    u2111 2BB2  
                                                    u2031 3124  
                                                    u2040 3154  
                                                    u2200 10EA  
                                                    u2041 3150  
                                                    u2201 10E6  
                                                    u2130 352E  
                                                    u2050 362A  
                                                    u2210 1114  
                                                    u2131 352A  
                                                    u2051 3624  
                                                    u2211 1110  
                                                    u2140 272E  
                                                    u2108 2B94  
                                                    u2060 2B4E  
                                                    u2300 1532  
                                                    u2220 115A  
                                                    u3100 2518  
                                                    u2141 272A  
                                                    u2109 2BA6  
                                                    u2061 2B4A  
                                                    u2301 152E  
                                                    u2221 1156  
                                                    u3101 2514  
                                                    _LATA 003FBA  
                                                    u2150 27EE  
                                                    u2070 2B62  
                                                    u2310 15C6  
                                                    u2230 1198  
                                                    u3110 25A0  
                                                    _LATB 003FBB  
                                                    u2151 27EA  
                                                    u2071 2B5E  
                                                    u2311 15C2  
                                                    u2231 1194  
                                                    u3111 259C  
                                                    _LATC 003FBC  
                                                    u2128 2BBC  
                                                    u2056 362C  
                                                    u2160 28C6  
                                                    u1600 346C  
                                                    u2400 17DA  
                                                    u2320 15F6  
                                                    u2240 11FE  
                                                    u3040 22DE  
                                                    _LATD 003FBD  
                                                    u2129 2BD0  
                                                    u2161 28C2  
                                                    u1601 3468  
                                                    u2401 17D6  
                                                    u2321 15F2  
                                                    u2241 11FA  
                                                    u3041 22DA  
                                                    _LATE 003FBE  
                                                    u2090 2B8C  
                                                    u2170 2940  
                                                    u1610 2A3C  
                                                    u2410 186C  
                                                    u2330 1614  
                                                    u2250 1260  
                                                    u3050 231A  
                                                    u2091 2B88  
                                                    u2171 293C  
                                                    u1611 2A38  
                                                    u2411 1868  
                                                    u2331 1610  
                                                    u2251 125C  
                                                    u3051 2316  
                                                    u2180 280E  
                                                    u1700 35D2  
                                                    u2500 1AFC  
                                                    u2420 1900  
                                                    u2340 1624  
                                                    u2260 1304  
                                                    u3060 2344  
                                                    u2181 280A  
                                                    u1701 35CC  
                                                    u2501 1AF8  
                                                    u2421 18FC  
                                                    u2341 1620  
                                                    u2261 1300  
                                                    u3061 2340  
                                                    u2190 2890  
                                                    u1710 303A  
                                                    u1630 3296  
                                                    u2510 1B28  
                                                    u2430 1930  
                                                    u2350 164A  
                                                    u2270 1396  
                                                    u3070 23C8  
                                                    u2191 288C  
                                                    u1711 3036  
                                                    u1631 3292  
                                                    u2511 1B24  
                                                    u2431 192C  
                                                    u2351 1646  
                                                    u2271 1392  
                                                    u3071 23C4  
                                                    u2088 2B6A  
                                                    u1720 3056  
                                                    u1640 35BC  
                                                    u1800 2AD0  
                                                    u2600 1DAA  
                                                    u2520 1BBA  
                                                    u2440 194E  
                                                    u2360 16BA  
                                                    u2280 1474  
                                                    u3080 2464  
                                                    u2089 2B7C  
                                                    u1721 3052  
                                                    u1641 35B6  
                                                    u1801 2ACC  
                                                    u2601 1DA6  
                                                    u2521 1BB6  
                                                    u2441 194A  
                                                    u2361 16B6  
                                                    u2281 1470  
                                                    u3081 2460  
                                                    u1650 3614  
                                                    u1730 3072  
                                                    u1706 35D4  
                                                    u1810 2B00  
                                                    u2610 1DFA  
                                                    u2530 1C4E  
                                                    u2450 195E  
                                                    u2370 16CA  
                                                    u2290 14A0  
                                                    u3090 247C  
                                                    u1651 360E  
                                                    u1731 306E  
                                                    u1811 2AFC  
                                                    u2611 1DF6  
                                                    u2531 1C4A  
                                                    u2451 195A  
                                                    u2371 16C6  
                                                    u2291 149C  
                                                    u3091 2478  
                                                    u1660 35E8  
                                                    u1740 25DC  
                                                    u1628 2A54  
                                                    u1820 344C  
                                                    u1900 2D7E  
                                                    u2700 208C  
                                                    u2620 1E78  
                                                    u2540 1C7E  
                                                    u2460 1984  
                                                    u2380 16F6  
                                                    u1661 35E2  
                                                    u1741 25D8  
                                                    u1629 2A66  
                                                    u1821 3448  
                                                    u1901 2D7A  
                                                    u2701 2088  
                                                    u2621 1E74  
                                                    u2541 1C7A  
                                                    u2461 1980  
                                                    u2381 16F2  
                                                    u1670 35FE  
                                                    u1590 2C7A  
                                                    u1646 35BE  
                                                    u1910 2D92  
                                                    u2710 210A  
                                                    u2630 1E8A  
                                                    u2550 1CAA  
                                                    u2470 19F4  
                                                    u2390 17AE  
                                                    u1671 35F8  
                                                    u1591 2C76  
                                                    u1911 2D8E  
                                                    u2711 2106  
                                                    u2631 1E86  
                                                    u2551 1CA6  
                                                    u2471 19F0  
                                                    u2391 17AA  
                                                    u1656 3616  
                                                    u1680 35A6  
                                                    u1760 2664  
                                                    u2720 2228  
                                                    u2640 1F3C  
                                                    u2560 1CC6  
                                                    u2480 1A04  
                                                    u1681 35A0  
                                                    u1761 2660  
                                                    u2721 2224  
                                                    u2641 1F38  
                                                    u2561 1CC2  
                                                    u2481 1A00  
                                                    u1666 35EA  
                                                    u1770 267A  
                                                    u1850 2F2E  
                                                    u1930 34E2  
                                                    u2650 1F58  
                                                    u2570 1CD6  
                                                    u2490 1A30  
                                                    u1771 2676  
                                                    u1851 2F2A  
                                                    u1931 34DE  
                                                    u2651 1F54  
                                                    u2571 1CD2  
                                                    u2491 1A2C  
                                                    u1676 3600  
                                                    u1780 26BE  
                                                    u1860 2F40  
                                                    u1940 325C  
                                                    u2660 1F68  
                                                    u2580 1D20  
                                                    u1781 26BA  
                                                    u1861 2F3C  
                                                    u1941 3258  
                                                    u2661 1F64  
                                                    u2581 1D1C  
                                                    u1686 35A8  
                                                    u1758 2604  
                                                    u1790 2AB4  
                                                    u1838 2E7A  
                                                    u1870 2F54  
                                                    u1950 2FEA  
                                                    u2670 1FB2  
                                                    u2590 1D9A  
                                                    u1759 2618  
                                                    u1791 2AB0  
                                                    u1839 2E8C  
                                                    u1871 2F50  
                                                    u1951 2FE6  
                                                    u2671 1FAE  
                                                    u2591 1D96  
                                                    u1848 2E12  
                                                    u1928 2DC6  
                                                    u1880 2F66  
                                                    u1960 3006  
                                                    u2680 202C  
                                                    u1849 2E24  
                                                    u1929 2DD8  
                                                    u1881 2F62  
                                                    u1961 3002  
                                                    u2681 2028  
                                                    u1698 2D20  
                                                    u1890 2F78  
                                                    u1970 2BEC  
                                                    u2690 203C  
                                                    u1699 2D32  
                                                    u1891 2F74  
                                                    u1971 2BE8  
                                                    u2691 2038  
                                                    u1980 341C  
                                                    _PMD0 0039C0  
                                                    u1981 3418  
                                                    _PMD1 0039C1  
                                                    u1990 3182  
                                                    _PMD2 0039C2  
                                                    u1991 317E  
                                                    _PMD3 0039C3  
                                                    _PMD4 0039C4  
                                                    _PMD5 0039C5  
                                                    _PMD6 0039C6  
                                                    _PMD7 0039C7  
                                             main@guardar 0021  
                                           ?_Iniciarlizar 0001  
                                                    _WPUA 003A41  
                                                    _WPUB 003A51  
                                                    _WPUC 003A61  
                                                    _WPUD 003A71  
                                                    _WPUE 003A81  
                                 ??_wr2RegCompleteHandler 000C  
                                        ??_I2C1_MasterFsm 0012  
                               ??_I2C1_CallbackReturnStop 000C  
                                                    _main 22AE  
                                                    fsr1h 003FE2  
                                                    fsr2h 003FDA  
                                                    indf1 003FE7  
                                                    indf2 003FDF  
                                                    fsr1l 003FE1  
                                                    fsr2l 003FD9  
                                                    prodh 003FF4  
                                                    prodl 003FF3  
                                                    start FFFC  
                                            ?_inicie_cola 0001  
                                        ??_I2C1_SetBuffer 0005  
                                            ___param_bank 000000  
                                             ?_UART1_Read 0001  
                           I2C1_CallbackReturnStop@funPtr 000A  
                                         _I2C1_DO_TX$1176 000E  
                           __end_of_OSCILLATOR_Initialize 357E  
                                       __end_of_I2C1_Open 2C66  
                                                   ?_main 0001  
                                          _i2c_readNBytes 3110  
                                                   _U1P1H 003DED  
                                                   _U1P2H 003DEF  
                                                   _U1P3H 003DF1  
                                                   _U1P1L 003DEC  
                                                   _U1P2L 003DEE  
                                                   _U1P3L 003DF0  
                                                   _U1UIR 003DF8  
                                                   _U1RXB 003DE8  
                                                   _U1TXB 003DEA  
                              __end_of_i2c1_fsmStateTable 1027  
                                                   _OSCEN 0039DD  
                                                   _TRISA 003FC2  
                                                   _TRISB 003FC3  
                                                   _TRISC 003FC4  
                                                   _TRISD 003FC5  
                                                   _TRISE 003FC6  
                                  ??_I2C1_MasterGetRxData 0001  
                                   ?_I2C1_DO_RX_NACK_STOP 0001  
                                       ??_I2C1_MasterRead 0016  
                              ??_I2C1_CallbackReturnReset 000C  
                                       ??_I2C1_MasterOpen 0001  
                                       ??_I2C1_MasterStop 0001  
                                       ??_I2C1_Initialize 0001  
                               ?_I2C1_MasterIsNackFlagSet 0001  
                                         __end_of_lectura 22AE  
                                                   main@i 001F  
                                          ??_Iniciarlizar 0003  
                        __end_of_I2C1_MasterClearNackFlag 374C  
       rd1RegCompleteHandler@i2c1_master_example$F145@ptr 000A  
       wr1RegCompleteHandler@i2c1_master_example$F162@ptr 000A  
                                                   pclath 003FFA  
       rd2RegCompleteHandler@i2c1_master_example$F156@ptr 000A  
                                                   tablat 003FF5  
       wr2RegCompleteHandler@i2c1_master_example$F168@ptr 000A  
     rdBlkRegCompleteHandler@i2c1_master_example$F179@ptr 000A  
                                                   plusw2 003FDB  
                                                   status 003FD8  
                                            ??_I2C1_DO_RX 000E  
                                            ??_I2C1_DO_TX 000C  
                               _I2C1_MasterClearCountFlag 374C  
                     fp__UART1_DefaultFramingErrorHandler 0000  
                __end_of_UART1_DefaultFramingErrorHandler 3766  
                      ??_UART1_DefaultFramingErrorHandler 0001  
                       ?_UART1_DefaultFramingErrorHandler 0001  
                        _UART1_DefaultFramingErrorHandler 3764  
                                  ??_I2C1_DO_ADDRESS_NACK 000C  
                                            ??_I2C1_Close 0001  
                                fp__rd1RegCompleteHandler 0000  
                                         __initialization 3216  
                                            __end_of_main 25C8  
                                fp__wr1RegCompleteHandler 0000  
                             ??_UART1_DefaultErrorHandler 0001  
                              ?_I2C1_MasterDisableRestart 0001  
                                  __end_of_i2c_readNBytes 3156  
                            I2C1_MasterSetCounter@counter 0001  
                                            ?_UART1_Write 0001  
                        __end_of_I2C1_MasterClearStopFlag 3746  
                            fp__I2C1_DO_SEND_RESTART_READ 0000  
                                  ??_I2C1_MasterOperation 0014  
                                                  ??_main 001B  
                                           __activetblptr 000003  
                                      __end_of_I2C1_DO_RX 2B3E  
                                      __end_of_I2C1_DO_TX 26EA  
                                        _UART1_Initialize 2EB6  
                                      __end_of_I2C1_Close 3434  
                                                  _ANSELA 003A40  
                                                  _ANSELB 003A50  
                                                  _ANSELC 003A60  
                                                  _ANSELD 003A70  
                                                  _ANSELE 003A80  
                                                  _RB1I2C 003A5A  
                                                  _RB2I2C 003A5B  
                                                  _RD0I2C 003A7A  
                                                  _U1CON0 003DF2  
                                                  _U1CON1 003DF3  
                                                  _U1CON2 003DF4  
                                                  _RD1I2C 003A7B  
                                                  _RC3I2C 003A6A  
                                                  _RC4I2C 003A6B  
                                                  _U1BRGH 003DF6  
                                                  _U1FIFO 003DF7  
                                                  _U1BRGL 003DF5  
                                                  _RB1PPS 003A09  
                                                  _RB2PPS 003A0A  
                                                  _ODCONA 003A42  
                                                  _ODCONB 003A52  
                                                  _RC6PPS 003A16  
                                                  _ODCONC 003A62  
                                                  _ODCOND 003A72  
                                                  _ODCONE 003A82  
                                                  _INLVLA 003A44  
                                                  _INLVLB 003A54  
                                                  _INLVLC 003A64  
                                                  _INLVLD 003A74  
                                                  _INLVLE 003A84  
                                 ??_I2C1_MasterGetCounter 0001  
                                                  _OSCFRQ 0039DF  
                                       ?_I2C1_MasterClose 0001  
                                   _UART1_SetErrorHandler 36DC  
                                rdBlkRegCompleteHandler@p 000A  
                                        _I2C1_DO_RX_EMPTY 29FE  
                                 ??_I2C1_MasterDisableIrq 0001  
                                       ?_I2C1_MasterWrite 0001  
                                ?_I2C1_MasterWaitForEvent 0001  
                                      ??_I2C1_MasterClose 0001  
                                        _I2C1_DO_TX_EMPTY 2CE8  
                                        __end_of_cola_add 2956  
                                        __end_of_cola_get 28A8  
                                      ??_I2C1_MasterWrite 0016  
                                       ??_i2c_writeNBytes 001A  
                                         ?_i2c_readNBytes 0016  
                       __end_of_I2C1_MasterDisableRestart 3740  
                                                  clear_0 323E  
                                                  isa$std 000001  
                                        __end_of_tam_cola 351C  
                                ??_I2C1_DO_SEND_ADR_WRITE 0001  
                                       ?_I2C1_SetCallback 0001  
                                  ??_I2C1_DO_RX_NACK_STOP 0001  
                                 ??_I2C1_DO_BUS_COLLISION 000C  
                                               ??_lectura 000C  
                                   _I2C1_DO_SEND_ADR_READ 327A  
                                          _PMD_Initialize 3480  
                           ?_I2C1_SetDataCompleteCallback 0006  
                                      ??_I2C1_SetCallback 0005  
                                            __mediumconst 0000  
                                                  tblptrh 003FF7  
                                                  tblptrl 003FF6  
                                                  tblptru 003FF8  
                    __end_of_UART1_SetOverrunErrorHandler 36D2  
                            _UART1_SetOverrunErrorHandler 36C8  
                               _UART1_DefaultErrorHandler 3766  
                                 _I2C1_DO_RX_NACK_RESTART 36F6  
                              fp__I2C1_DO_RX_NACK_RESTART 0000  
                                       _SYSTEM_Initialize 362E  
                          I2C1_SetDataCompleteCallback@cb 0006  
                                              __accesstop 0060  
                                 __end_of__initialization 3246  
                         I2C1_MasterOperation@returnValue 0015  
                                      ?_SYSTEM_Initialize 0001  
                                           ___rparam_used 000001  
                                _I2C1_MasterClearNackFlag 3746  
                                           ??_I2C1_Poller 0014  
                                 _rdBlkRegCompleteHandler 30C4  
                              fp__rdBlkRegCompleteHandler 0000  
                                          __pcstackCOMRAM 0001  
                                            __pidataBANK0 3644  
                                     ??_SYSTEM_Initialize 0003  
                        __end_of_I2C1_MasterEnableRestart 373A  
                                          lectura@lectura 0011  
                                    __end_of_Iniciarlizar 27F0  
                                 ??_I2C1_MasterSetCounter 0001  
                                  __end_of_PMD_Initialize 34A4  
                            ??_I2C1_DO_SEND_RESTART_WRITE 0001  
                                 ??_I2C1_MasterSendTxData 0001  
                              ?_I2C1_MasterIsCountFlagSet 0001  
                               _UART1_FramingErrorHandler 005C  
                                _I2C1_MasterClearStopFlag 3740  
                                   __end_of_I2C1_DO_RESET 3676  
                                          main@datosEnvio 0022  
                                       _I2C1_DO_BUS_ERROR 3656  
                               __end_of_SYSTEM_Initialize 3644  
                               ?_I2C1_ClearInterruptFlags 0001  
                                              __pbssBANK0 0060  
                                      ?_I2C1_DO_BUS_ERROR 0001  
                         __end_of_I2C1_MasterWaitForEvent 2F7A  
                           ?_UART1_SetOverrunErrorHandler 0001  
                                  ?_UART1_SetErrorHandler 0001  
                                            inicie_cola@c 0001  
                           __end_of_rd2RegCompleteHandler 3384  
                                    I2C1_Open@returnValue 0002  
                                              __pnvCOMRAM 005A  
                           __end_of_wr2RegCompleteHandler 3358  
                                   _rd1RegCompleteHandler 3384  
                                     ??_I2C1_DO_BUS_ERROR 0001  
                                       _I2C1_DO_SEND_STOP 3434  
                                         Iniciarlizar@est 0001  
                                   _wr1RegCompleteHandler 33B0  
                                           Iniciarlizar@i 0005  
                                           Iniciarlizar@j 0007  
                                           fp__I2C1_DO_RX 0000  
                                           fp__I2C1_DO_TX 0000  
                                         fp__I2C1_DO_IDLE 0000  
                                   i2c_readNBytes@address 001A  
                                 fp__I2C1_DO_ADDRESS_NACK 0000  
                                      ?_I2C1_DO_SEND_STOP 0001  
                                            ??_UART1_Read 0001  
                                                 _I2C1CLK 003D7B  
                                                 _I2C1CNT 003D6C  
                                                 _I2C1ERR 003D76  
                                                 _I2C1PIE 003D7A  
                                                 _I2C1PIR 003D79  
                                                 _I2C1RXB 003D6A  
                                                 _I2C1TXB 003D6B  
                        __end_of_I2C1_MasterIsNackFlagSet 3602  
                                         _I2C1_MasterRead 36EE  
                                         _I2C1_MasterOpen 324C  
                                 _I2C1_MasterIsTxBufEmpty 3594  
                                         _I2C1_MasterStop 371C  
                                         _I2C1_Initialize 34A4  
                                     __end_of_I2C1_Poller 34E4  
                                       fp__I2C1_DO_RX_ACK 0000  
                                       fp__I2C1_DO_TX_ACK 0000  
                                         ?_PMD_Initialize 0001  
                                  ?_I2C1_DO_SEND_ADR_READ 0001  
                                              _cola_llena 3156  
                                     ??_I2C1_DO_SEND_STOP 0002  
                                              _cola_vacia 3198  
                                                 _U1ERRIE 003DFA  
                                                 _U1ERRIR 003DF9  
                                                 _U1RXPPS 003AE5  
                               __end_of_I2C1_DO_BUS_ERROR 3666  
                                       _I2C1_MasterIsNack 35AA  
                       __end_of_I2C1_MasterIsCountFlagSet 3618  
                                                 _OSCCON1 0039D9  
                                                 _OSCCON3 0039DB  
                                               _I2C1_Open 2BD6  
                               ??_I2C1_DO_RX_NACK_RESTART 0001  
                                                 _OSCTUNE 0039DE  
                                                 _SLRCONA 003A43  
                                                 _SLRCONB 003A53  
                                                 _SLRCONC 003A63  
                                                 _SLRCOND 003A73  
                                                 _SLRCONE 003A83  
                                   I2C1_DO_RX@retFsmState 0010  
                                               ?_cola_add 0005  
                                               ?_cola_get 0005  
                                      ?_I2C1_MasterIsNack 0001  
                              ?_I2C1_DO_SEND_RESTART_READ 0001  
                          ??_I2C1_SetDataCompleteCallback 000A  
                                      __end_of_UART1_Read 2BD6  
                                      _i2c1_fsmStateTable 1001  
                                     ??_I2C1_MasterIsNack 0001  
       fp__rd1RegCompleteHandler@i2c1_master_example$F145 0000  
  __end_of_rd1RegCompleteHandler@i2c1_master_example$F145 332C  
          _rd1RegCompleteHandler@i2c1_master_example$F145 3300  
       fp__wr1RegCompleteHandler@i2c1_master_example$F162 0000  
  __end_of_wr1RegCompleteHandler@i2c1_master_example$F162 32D4  
          _wr1RegCompleteHandler@i2c1_master_example$F162 32A8  
       fp__rd2RegCompleteHandler@i2c1_master_example$F156 0000  
  __end_of_rd2RegCompleteHandler@i2c1_master_example$F156 3300  
          _rd2RegCompleteHandler@i2c1_master_example$F156 32D4  
       fp__wr2RegCompleteHandler@i2c1_master_example$F168 0000  
  __end_of_wr2RegCompleteHandler@i2c1_master_example$F168 3408  
          _wr2RegCompleteHandler@i2c1_master_example$F168 33DC  
     fp__rdBlkRegCompleteHandler@i2c1_master_example$F179 0000  
__end_of_rdBlkRegCompleteHandler@i2c1_master_example$F179 30C4  
        _rdBlkRegCompleteHandler@i2c1_master_example$F179 3078  
                               __end_of_I2C1_DO_SEND_STOP 345C  
                               ??_rdBlkRegCompleteHandler 000C  
                                      I2C1_SetCallback@cb 0001  
                                               ?_tam_cola 0001  
                                                 __Hparam 0000  
                                                 __Lparam 0000  
                                __end_of_UART1_Initialize 2F1E  
                                     fp__I2C1_DO_RX_EMPTY 0000  
                                     fp__I2C1_DO_TX_EMPTY 0000  
                               ?_I2C1_MasterIsStopFlagSet 0001  
                             ??_I2C1_MasterDisableRestart 0001  
                                            __psmallconst 1000  
                                                 __pcinit 3216  
                                           ?_I2C1_DO_IDLE 0001  
                                                 __ramtop 1000  
                                  i2c_writeNBytes@address 001A  
                                      i2c_readNBytes@data 0016  
                                                 __ptext0 22AE  
                                                 __ptext1 3502  
                                                 __ptext2 10D2  
                                                 __ptext3 31D8  
                                                 __ptext4 2F7A  
                                                 __ptext5 3536  
                                                 __ptext6 36E6  
                                                 __ptext7 3110  
                                                 __ptext8 2BD6  
                                                 __ptext9 324C  
                                _I2C1_MasterEnableRestart 3734  
                               __end_of_I2C1_MasterIsNack 35C0  
                            ?_I2C1_SetAddressNackCallback 0006  
                                __end_of_I2C1_DO_RX_EMPTY 2AA0  
                                                 _lectura 10D2  
                                   _OSCILLATOR_Initialize 3566  
                                             _I2C1ERRbits 003D76  
                                __end_of_I2C1_DO_TX_EMPTY 2D64  
                                ??_I2C1_MasterIsRxBufFull 0001  
                                ??_PIN_MANAGER_Initialize 0001  
                                             _I2C1PIEbits 003D7A  
                                              ?_I2C1_Open 0001  
                                             _I2C1PIRbits 003D79  
                                 fp__I2C1_DO_RX_NACK_STOP 0000  
                                              ??_cola_add 0008  
                                              ??_cola_get 0007  
                                ?_I2C1_CallbackReturnStop 000A  
                                                 main@est 0084  
                       __end_of_I2C1_DO_SEND_RESTART_READ 3692  
                                    end_of_initialization 3246  
                              __end_of_I2C1_MasterSendAck 372E  
                                     _I2C1_MasterClearIrq 370E  
                                  ?_rd1RegCompleteHandler 000A  
                                         _i2c_writeNBytes 2F7A  
                                  _I2C1_DO_SEND_ADR_WRITE 357E  
                           __end_of_I2C1_MasterGetCounter 371C  
                            __end_of_I2C1_DO_SEND_RESTART 3756  
                                 __end_of_I2C1_MasterRead 36F6  
                                 __end_of_I2C1_MasterOpen 327A  
                                  ?_wr1RegCompleteHandler 000A  
                                              ??_tam_cola 0003  
                                 __end_of_I2C1_MasterStop 3722  
                          ??_UART1_SetOverrunErrorHandler 0003  
                                 __end_of_I2C1_Initialize 34C6  
                                             _I2C1_Poller 34C6  
                               ?_I2C1_CallbackReturnReset 000A  
                           __end_of_I2C1_MasterDisableIrq 3502  
                                        ??_i2c_readNBytes 001A  
                                             _I2C1_Status 0060  
                               ??_I2C1_MasterIsTxBufEmpty 0001  
                                fp__rd2RegCompleteHandler 0000  
                                                 postdec1 003FE5  
                                                 postdec2 003FDD  
                                fp__wr2RegCompleteHandler 0000  
                                                 postinc0 003FEE  
                                                 postinc2 003FDE  
                                     _I2C1_MasterSendNack 3722  
                     __end_of_I2C1_SetAddressNackCallback 354E  
                             _I2C1_SetAddressNackCallback 3536  
                                    ?_I2C1_MasterClearIrq 0001  
                                          ??_I2C1_DO_IDLE 0001  
                                     _I2C1_MasterResetBus 36BE  
                                       UART1_Write@txData 0001  
                      __end_of_I2C1_DO_SEND_RESTART_WRITE 375A  
                              _I2C1_DO_SEND_RESTART_WRITE 3756  
                                             ?_cola_llena 0001  
                         __end_of_rdBlkRegCompleteHandler 3110  
                                             ?_cola_vacia 0001  
                                _I2C1_MasterIsNackFlagSet 35EC  
                           ??_I2C1_SetAddressNackCallback 000A  
                           __end_of_I2C1_DO_BUS_COLLISION 2E4E  
                         I2C1_SetDataCompleteCallback@ptr 0008  
                          I2C1_CallbackReturnReset@funPtr 000A  
                                              main@i_1494 0034  
                              ??_I2C1_MasterClearNackFlag 0001  
                                    ?_I2C1_MasterSendNack 0001  
                               _I2C1_MasterDisableRestart 373A  
                                    ?_I2C1_MasterResetBus 0001  
                                            _Iniciarlizar 26EA  
                                   ??_I2C1_MasterClearIrq 0001  
                                        I2C1_DO_TX@dataTx 0010  
                              ??_I2C1_MasterClearStopFlag 0001  
                                          _I2C1_DO_RX_ACK 36FE  
                                          _I2C1_DO_TX_ACK 3706  
                        __end_of_I2C1_ClearInterruptFlags 3078  
                                  ?_OSCILLATOR_Initialize 0001  
                         __end_of_I2C1_CallbackReturnStop 3762  
                           __end_of_I2C1_MasterSetCounter 36BE  
                           __end_of_I2C1_MasterSendTxData 36B4  
                             ??_I2C1_MasterIsCountFlagSet 0001  
                                     start_initialization 3216  
                                             ??_I2C1_Open 0001  
                                 ??_UART1_SetErrorHandler 0003  
                                   ??_I2C1_MasterSendNack 0001  
                                 __end_of_i2c_writeNBytes 2FD4  
                                   ??_I2C1_MasterResetBus 0001  
                                              lectura@est 000A  
                                  rd1RegCompleteHandler@p 000A  
                                           ??_inicie_cola 0003  
                                I2C1_SetBuffer@bufferSize 0003  
                                        ?_I2C1_MasterRead 0001  
                                        ?_I2C1_MasterOpen 0001  
                                        ?_I2C1_MasterStop 0001  
                                        ?_I2C1_Initialize 0001  
                                        ??_PMD_Initialize 0001  
                                  __end_of_I2C1_DO_RX_ACK 3706  
                                  __end_of_I2C1_DO_TX_ACK 370E  
                                  wr1RegCompleteHandler@p 000A  
                                 ??_I2C1_DO_SEND_ADR_READ 0001  
                                             __pdataBANK0 00A7  
                                        I2C1_Open@address 0001  
                                             __pbssCOMRAM 005E  
                                    _I2C1_DO_SEND_RESTART 3752  
                                      _UART1_ErrorHandler 00B8  
                                           __pcstackBANK0 0084  
                                           __pcstackBANK1 0100  
                             ??_I2C1_DO_SEND_RESTART_READ 0002  
                                   I2C1_DO_TX@retFsmState 0011  
                        __end_of_I2C1_MasterIsStopFlagSet 35EC  
                                fp__I2C1_DO_BUS_COLLISION 0000  
                                    __end_of_I2C1_DO_IDLE 369E  
                            fp__UART1_DefaultErrorHandler 0000  
                           I2C1_SetAddressNackCallback@cb 0006  
                                               __pnvBANK0 00B8  
                               _I2C1_MasterIsCountFlagSet 3602  
                                   _rd2RegCompleteHandler 3358  
                               fp__I2C1_DO_SEND_ADR_WRITE 0000  
                                  _I2C1_MasterIsRxBufFull 35C0  
                                  _PIN_MANAGER_Initialize 2956  
                                   _wr2RegCompleteHandler 332C  
                              ??_I2C1_MasterEnableRestart 0001  
                                       ?_UART1_Initialize 0001  
                    __end_of_UART1_SetFramingErrorHandler 36DC  
                            _UART1_SetFramingErrorHandler 36D2  
                                          _I2C1_MasterFsm 2D64  
                                        fp__I2C1_DO_RESET 0000  
                                         ?_I2C1_DO_RX_ACK 0001  
                                         ?_I2C1_DO_TX_ACK 0001  
                                      ??_UART1_Initialize 0003  
                                                _I2C1CON0 003D73  
                                                _I2C1CON1 003D74  
                                                _I2C1CON2 003D75  
                                     __end_of_inicie_cola 3216  
                                        _uart1RxLastError 005E  
                                           ??_UART1_Write 0001  
                                 _I2C1_MasterWaitForEvent 2F1E  
                                        _I2C1_MasterClose 369E  
                                          _I2C1_SetBuffer 345C  
                                        _I2C1_MasterWrite 36E6  
                                             __smallconst 1000  
                                                ?_lectura 000A  
                     fp__UART1_DefaultOverrunErrorHandler 0000  
                __end_of_UART1_DefaultOverrunErrorHandler 3764  
                      ??_UART1_DefaultOverrunErrorHandler 0001  
                       ?_UART1_DefaultOverrunErrorHandler 0001  
                        _UART1_DefaultOverrunErrorHandler 3762  
                                   ?_I2C1_DO_SEND_RESTART 0001  
                                       ?_I2C1_DO_RX_EMPTY 0001  
                                _I2C1_ClearInterruptFlags 3026  
                                       ?_I2C1_DO_TX_EMPTY 0001  
                                      ??_I2C1_DO_RX_EMPTY 000C  
                        __end_of_I2C1_CallbackReturnReset 375E  
                                        ?_i2c_writeNBytes 0016  
                                      ??_I2C1_DO_TX_EMPTY 000C  
                                 ??_rd1RegCompleteHandler 000C  
                                       i2c_readNBytes@len 0018  
                                             _U1ERRIRbits 003DF9  
                                 ?_I2C1_DO_SEND_ADR_WRITE 0001  
                               I2C1_MasterSendTxData@data 0001  
                                              _I2C1SDAPPS 003AE2  
                                              _I2C1SCLPPS 003AE1  
                                 ??_wr1RegCompleteHandler 000C  
                                        _I2C1_SetCallback 2C66  
                   UART1_SetErrorHandler@interruptHandler 0001  
                                              _I2C1_DO_RX 2AA0  
                                              _I2C1_DO_TX 25C8  
                                                _PIE2bits 003992  
                                                _PIE3bits 003993  
                                              _I2C1_Close 3408  
                                            ?_I2C1_Poller 0001  
                                  __end_of_I2C1_MasterFsm 2DDE  
                                    fp__I2C1_DO_BUS_ERROR 0000  
                            __end_of_I2C1_MasterGetRxData 3734  
                                           _I2C1STAT1bits 003D78  
                                                _PIR2bits 0039A2  
                                                _PIR3bits 0039A3  
                              ??_I2C1_MasterIsNackFlagSet 0001  
                                      _I2C1_MasterSendAck 3728  
                               _I2C1_DO_SEND_RESTART_READ 3684  
                                               cola_add@c 0005  
                                  __end_of_I2C1_SetBuffer 3480  
                                               cola_get@c 0005  
                           ?_UART1_SetFramingErrorHandler 0001  
                    __end_of_I2C1_SetDataCompleteCallback 3566  
                            _I2C1_SetDataCompleteCallback 354E  
                             ?_I2C1_DO_SEND_RESTART_WRITE 0001  
                                            ??_cola_llena 0003  
                                     ?_I2C1_MasterSendAck 0001  
                                            ??_cola_vacia 0003  
                                ?_I2C1_DO_RX_NACK_RESTART 0001  
                                    fp__I2C1_DO_SEND_STOP 0000  
                              ?_I2C1_MasterClearCountFlag 0001  
                            __end_of_I2C1_DO_ADDRESS_NACK 2EB6  
                                     __end_of_UART1_Write 3536  
                          __end_of_I2C1_DO_SEND_ADR_WRITE 3594  
                                           _I2C1_DO_RESET 3666  
                                               copy_data0 322A  
                                   I2C1_Close@returnValue 0001  
                                ?_rdBlkRegCompleteHandler 000A  
                                     I2C1_SetCallback@idx 0005  
                                     I2C1_SetCallback@ptr 0003  
                                    ??_I2C1_MasterSendAck 0001  
                                  ?_rd2RegCompleteHandler 000A  
                            __end_of_I2C1_MasterOperation 3026  
                                  ?_wr2RegCompleteHandler 000A  
                                      __end_of_cola_llena 3198  
                                _I2C1_MasterIsStopFlagSet 35D6  
                                             _inicie_cola 31D8  
                                      __end_of_cola_vacia 31D8  
                                                __Hrparam 0000  
                                         ?_I2C1_MasterFsm 0001  
                                   _I2C1_MasterGetCounter 3716  
                                                __Lrparam 0000  
                                     i2c_writeNBytes@data 0016  
                               ??_I2C1_MasterWaitForEvent 0001  
                                   _I2C1_MasterDisableIrq 34E4  
                                 ??_OSCILLATOR_Initialize 0001  
                                         ?_I2C1_SetBuffer 0001  
                                  ??_I2C1_DO_SEND_RESTART 0001  
                       __end_of_I2C1_MasterClearCountFlag 3752  
                                               tam_cola@c 0001  
                                            _I2C1CON0bits 003D73  
                                            _I2C1CON1bits 003D74  
                                          ?_I2C1_DO_RESET 0001  
                                                __ptext10 36EE  
                                                __ptext11 2FD4  
                                                __ptext20 3676  
                                                __ptext12 34C6  
                                                __ptext21 36FE  
                                                __ptext13 2F1E  
                                                __ptext30 357E  
                                                __ptext22 3434  
                                                __ptext14 2D64  
                                                __ptext31 327A  
                                                __ptext23 3752  
                                                __ptext15 3656  
                                                __ptext40 35C0  
                                                __ptext32 3692  
                                                __ptext24 3756  
                                                __ptext16 2DDE  
                                                _cola_add 28A8  
                                                __ptext41 372E  
                                                __ptext33 3706  
                                                __ptext25 3684  
                                                __ptext17 2E4E  
                                                __ptext50 32A8  
                                                __ptext42 36AA  
                                                __ptext34 3594  
                                                __ptext26 29FE  
                                                __ptext18 3666  
                                                __ptext51 32D4  
                                                __ptext43 36B4  
                                                __ptext35 35AA  
                                                __ptext27 2CE8  
                                                __ptext19 36F6  
                                                __ptext60 2C66  
                                                __ptext52 3300  
                                                __ptext44 3734  
                                                __ptext36 3716  
                                                __ptext28 2AA0  
                                                __ptext61 345C  
                                                __ptext53 30C4  
                                                __ptext45 373A  
                                                __ptext37 371C  
                                                __ptext29 25C8  
                                                __ptext70 34E4  
                                                __ptext62 3026  
                                                __ptext54 332C  
                                                __ptext46 36BE  
                                                __ptext38 3722  
                                                __ptext71 369E  
                                                __ptext63 35D6  
                                                __ptext55 3358  
                                                __ptext47 375A  
                                                __ptext39 3728  
                                                __ptext80 3762  
                                                __ptext72 370E  
                                                __ptext64 35EC  
                                                __ptext56 3384  
                                                __ptext48 375E  
                                                __ptext81 3764  
                                                __ptext73 27F0  
                                                __ptext65 3602  
                                                __ptext57 33B0  
                                                __ptext49 3078  
                                                __ptext90 3566  
                                                __ptext82 3766  
                                                __ptext74 3198  
                                                __ptext66 3740  
                                                __ptext58 33DC  
                                                __ptext91 34A4  
                                                __ptext83 362E  
                                                __ptext75 28A8  
                                                __ptext67 3746  
                                                __ptext59 354E  
                                                __ptext92 26EA  
                                                __ptext84 2EB6  
                                                __ptext76 3156  
                                                __ptext68 374C  
                                                __ptext93 0000  
                                                __ptext85 36C8  
                                                __ptext77 3618  
                                                __ptext69 3408  
                                                __ptext86 36D2  
                                                __ptext78 351C  
                                                __ptext87 36DC  
                                                __ptext79 2B3E  
                                                __ptext88 3480  
                                                __ptext89 2956  
                                                _cola_get 27F0  
                                   _I2C1_DO_BUS_COLLISION 2DDE  
                                              _U1CON0bits 003DF2  
                           __end_of_UART1_SetErrorHandler 36E6  
                ?_wr1RegCompleteHandler@pic18f46k42$F2051 000A  
               ??_rd1RegCompleteHandler@pic18f46k42$F2061 000C  
               ??_wr1RegCompleteHandler@pic18f46k42$F2053 000C  
                ?_wr2RegCompleteHandler@pic18f46k42$F2071 000A  
               ??_wr2RegCompleteHandler@pic18f46k42$F2073 000C  
                ?_rd2RegCompleteHandler@pic18f46k42$F2065 000A  
               ??_rd2RegCompleteHandler@pic18f46k42$F2067 000C  
                ?_rd1RegCompleteHandler@pic18f46k42$F2059 000A  
              ?_rdBlkRegCompleteHandler@pic18f46k42$F2077 000A  
             ??_rdBlkRegCompleteHandler@pic18f46k42$F2079 000C  
                                _I2C1_CallbackReturnReset 375A  
                             fp__I2C1_CallbackReturnReset 0000  
                                ?_I2C1_MasterIsTxBufEmpty 0001  
                                             ?_I2C1_DO_RX 0001  
                                             ?_I2C1_DO_TX 0001  
                                      main@datosRecibidos 0100  
                                                _tam_cola 3502  
                             __end_of_I2C1_MasterClearIrq 3716  
                            __end_of_I2C1_DO_RX_NACK_STOP 3684  
                                             ?_I2C1_Close 0001  
                               _UART1_OverrunErrorHandler 005A  
            UART1_SetOverrunErrorHandler@interruptHandler 0001  
                                                isa$xinst 000000  
                               ?_I2C1_MasterClearNackFlag 0001  
                              ?_UART1_DefaultErrorHandler 0001  
                         __end_of_I2C1_DO_RX_NACK_RESTART 36FE  
                                I2C1_MasterOperation@read 0014  
                                                main@cola 0036  
                                       _UART1_is_rx_ready 3618  
                           __end_of_I2C1_DO_SEND_ADR_READ 32A8  
                                            _I2C1_DO_IDLE 3692  
                                             _UART1_Write 351C  
                             __end_of_I2C1_MasterSendNack 3728  
                                      ?_UART1_is_rx_ready 0001  
                          ??_UART1_SetFramingErrorHandler 0003  
                             __end_of_I2C1_MasterResetBus 36C8  
                           fp__I2C1_DO_SEND_RESTART_WRITE 0000  
                          I2C1_SetAddressNackCallback@ptr 0008  
                                   _I2C1_MasterSetCounter 36B4  
                                      i2c_writeNBytes@len 0018  
                                    _I2C1_MasterGetRxData 372E  
                                   _I2C1_MasterSendTxData 36AA  
                                     ??_UART1_is_rx_ready 0001  
                               ?_I2C1_MasterClearStopFlag 0001  
                                __end_of_I2C1_MasterClose 36AA  
                                  rd2RegCompleteHandler@p 000A  
                                 ?_I2C1_MasterIsRxBufFull 0001  
                                 ?_PIN_MANAGER_Initialize 0001  
                                            cola_add@dato 0007  
                                __end_of_I2C1_MasterWrite 36EE  
                                        ??_I2C1_DO_RX_ACK 0001  
                                        ??_I2C1_DO_TX_ACK 0001  
                                  ?_I2C1_MasterGetCounter 0001  
                                 _I2C1_CallbackReturnStop 375E  
                              fp__I2C1_CallbackReturnStop 0000  
                                    _I2C1_DO_ADDRESS_NACK 2E4E  
                                  ?_I2C1_MasterDisableIrq 0001  
                               __end_of_UART1_is_rx_ready 362E  
                                              _UART1_Read 2B3E  
                                  wr2RegCompleteHandler@p 000A  
            UART1_SetFramingErrorHandler@interruptHandler 0001  
                              ??_I2C1_ClearInterruptFlags 0001  
                                            cola_get@temp 0009  
                       __end_of_UART1_DefaultErrorHandler 3768  
                                __end_of_I2C1_SetCallback 2CE8  
                                         ??_I2C1_DO_RESET 0001  
                                    _I2C1_MasterOperation 2FD4  
                                   ?_I2C1_MasterGetRxData 0001  
                                  ?_I2C1_DO_BUS_COLLISION 0001  
                         __end_of_I2C1_MasterIsTxBufEmpty 35AA  
                          __end_of_I2C1_MasterIsRxBufFull 35D6  
                          __end_of_PIN_MANAGER_Initialize 29FE  
                                             cola_llena@c 0001  
                           __end_of_rd1RegCompleteHandler 33B0  
                                             cola_vacia@c 0001  
                           __end_of_wr1RegCompleteHandler 33DC  
                                   ?_I2C1_DO_ADDRESS_NACK 0001  
                                 I2CSIMPLE_example@F16297 00A7  
